
audioplayer.elf:     file format elf32-littlearm

Sections:
Idx Name          Size      VMA       LMA       File off  Algn
  0 .isr_vector   00000188  08000000  08000000  00010000  2**0
                  CONTENTS, ALLOC, LOAD, READONLY, DATA
  1 .text         00008664  08000190  08000190  00010190  2**4
                  CONTENTS, ALLOC, LOAD, READONLY, CODE
  2 .rodata       000004c8  080087f4  080087f4  000187f4  2**2
                  CONTENTS, ALLOC, LOAD, READONLY, DATA
  3 .ARM.extab    00000000  08008cbc  08008cbc  000200b0  2**0
                  CONTENTS
  4 .ARM          00000008  08008cbc  08008cbc  00018cbc  2**2
                  CONTENTS, ALLOC, LOAD, READONLY, DATA
  5 .preinit_array 00000000  08008cc4  08008cc4  000200b0  2**0
                  CONTENTS, ALLOC, LOAD, DATA
  6 .init_array   00000004  08008cc4  08008cc4  00018cc4  2**2
                  CONTENTS, ALLOC, LOAD, DATA
  7 .fini_array   00000004  08008cc8  08008cc8  00018cc8  2**2
                  CONTENTS, ALLOC, LOAD, DATA
  8 .data         000000b0  20000000  08008ccc  00020000  2**2
                  CONTENTS, ALLOC, LOAD, DATA
  9 .ccmram       00000000  10000000  10000000  000200b0  2**0
                  CONTENTS
 10 .bss          00013454  200000b0  200000b0  000200b0  2**2
                  ALLOC
 11 ._user_heap_stack 00000604  20013504  20013504  000200b0  2**0
                  ALLOC
 12 .ARM.attributes 00000030  00000000  00000000  000200b0  2**0
                  CONTENTS, READONLY
 13 .debug_info   0001d335  00000000  00000000  000200e0  2**0
                  CONTENTS, READONLY, DEBUGGING, OCTETS
 14 .debug_abbrev 00003fc0  00000000  00000000  0003d415  2**0
                  CONTENTS, READONLY, DEBUGGING, OCTETS
 15 .debug_aranges 000019d0  00000000  00000000  000413d8  2**3
                  CONTENTS, READONLY, DEBUGGING, OCTETS
 16 .debug_ranges 00001840  00000000  00000000  00042da8  2**3
                  CONTENTS, READONLY, DEBUGGING, OCTETS
 17 .debug_macro  0000577f  00000000  00000000  000445e8  2**0
                  CONTENTS, READONLY, DEBUGGING, OCTETS
 18 .debug_line   00020547  00000000  00000000  00049d67  2**0
                  CONTENTS, READONLY, DEBUGGING, OCTETS
 19 .debug_str    000d8b3a  00000000  00000000  0006a2ae  2**0
                  CONTENTS, READONLY, DEBUGGING, OCTETS
 20 .comment      00000050  00000000  00000000  00142de8  2**0
                  CONTENTS, READONLY
 21 .debug_frame  00007098  00000000  00000000  00142e38  2**2
                  CONTENTS, READONLY, DEBUGGING, OCTETS

Disassembly of section .text:

08000190 <__do_global_dtors_aux>:
 8000190:	b510      	push	{r4, lr}
 8000192:	4c05      	ldr	r4, [pc, #20]	; (80001a8 <__do_global_dtors_aux+0x18>)
 8000194:	7823      	ldrb	r3, [r4, #0]
 8000196:	b933      	cbnz	r3, 80001a6 <__do_global_dtors_aux+0x16>
 8000198:	4b04      	ldr	r3, [pc, #16]	; (80001ac <__do_global_dtors_aux+0x1c>)
 800019a:	b113      	cbz	r3, 80001a2 <__do_global_dtors_aux+0x12>
 800019c:	4804      	ldr	r0, [pc, #16]	; (80001b0 <__do_global_dtors_aux+0x20>)
 800019e:	f3af 8000 	nop.w
 80001a2:	2301      	movs	r3, #1
 80001a4:	7023      	strb	r3, [r4, #0]
 80001a6:	bd10      	pop	{r4, pc}
 80001a8:	200000b0 	.word	0x200000b0
 80001ac:	00000000 	.word	0x00000000
 80001b0:	080087dc 	.word	0x080087dc

080001b4 <frame_dummy>:
 80001b4:	b508      	push	{r3, lr}
 80001b6:	4b03      	ldr	r3, [pc, #12]	; (80001c4 <frame_dummy+0x10>)
 80001b8:	b11b      	cbz	r3, 80001c2 <frame_dummy+0xe>
 80001ba:	4903      	ldr	r1, [pc, #12]	; (80001c8 <frame_dummy+0x14>)
 80001bc:	4803      	ldr	r0, [pc, #12]	; (80001cc <frame_dummy+0x18>)
 80001be:	f3af 8000 	nop.w
 80001c2:	bd08      	pop	{r3, pc}
 80001c4:	00000000 	.word	0x00000000
 80001c8:	200000b4 	.word	0x200000b4
 80001cc:	080087dc 	.word	0x080087dc

080001d0 <strlen>:
 80001d0:	4603      	mov	r3, r0
 80001d2:	f813 2b01 	ldrb.w	r2, [r3], #1
 80001d6:	2a00      	cmp	r2, #0
 80001d8:	d1fb      	bne.n	80001d2 <strlen+0x2>
 80001da:	1a18      	subs	r0, r3, r0
 80001dc:	3801      	subs	r0, #1
 80001de:	4770      	bx	lr

080001e0 <memchr>:
 80001e0:	f001 01ff 	and.w	r1, r1, #255	; 0xff
 80001e4:	2a10      	cmp	r2, #16
 80001e6:	db2b      	blt.n	8000240 <memchr+0x60>
 80001e8:	f010 0f07 	tst.w	r0, #7
 80001ec:	d008      	beq.n	8000200 <memchr+0x20>
 80001ee:	f810 3b01 	ldrb.w	r3, [r0], #1
 80001f2:	3a01      	subs	r2, #1
 80001f4:	428b      	cmp	r3, r1
 80001f6:	d02d      	beq.n	8000254 <memchr+0x74>
 80001f8:	f010 0f07 	tst.w	r0, #7
 80001fc:	b342      	cbz	r2, 8000250 <memchr+0x70>
 80001fe:	d1f6      	bne.n	80001ee <memchr+0xe>
 8000200:	b4f0      	push	{r4, r5, r6, r7}
 8000202:	ea41 2101 	orr.w	r1, r1, r1, lsl #8
 8000206:	ea41 4101 	orr.w	r1, r1, r1, lsl #16
 800020a:	f022 0407 	bic.w	r4, r2, #7
 800020e:	f07f 0700 	mvns.w	r7, #0
 8000212:	2300      	movs	r3, #0
 8000214:	e8f0 5602 	ldrd	r5, r6, [r0], #8
 8000218:	3c08      	subs	r4, #8
 800021a:	ea85 0501 	eor.w	r5, r5, r1
 800021e:	ea86 0601 	eor.w	r6, r6, r1
 8000222:	fa85 f547 	uadd8	r5, r5, r7
 8000226:	faa3 f587 	sel	r5, r3, r7
 800022a:	fa86 f647 	uadd8	r6, r6, r7
 800022e:	faa5 f687 	sel	r6, r5, r7
 8000232:	b98e      	cbnz	r6, 8000258 <memchr+0x78>
 8000234:	d1ee      	bne.n	8000214 <memchr+0x34>
 8000236:	bcf0      	pop	{r4, r5, r6, r7}
 8000238:	f001 01ff 	and.w	r1, r1, #255	; 0xff
 800023c:	f002 0207 	and.w	r2, r2, #7
 8000240:	b132      	cbz	r2, 8000250 <memchr+0x70>
 8000242:	f810 3b01 	ldrb.w	r3, [r0], #1
 8000246:	3a01      	subs	r2, #1
 8000248:	ea83 0301 	eor.w	r3, r3, r1
 800024c:	b113      	cbz	r3, 8000254 <memchr+0x74>
 800024e:	d1f8      	bne.n	8000242 <memchr+0x62>
 8000250:	2000      	movs	r0, #0
 8000252:	4770      	bx	lr
 8000254:	3801      	subs	r0, #1
 8000256:	4770      	bx	lr
 8000258:	2d00      	cmp	r5, #0
 800025a:	bf06      	itte	eq
 800025c:	4635      	moveq	r5, r6
 800025e:	3803      	subeq	r0, #3
 8000260:	3807      	subne	r0, #7
 8000262:	f015 0f01 	tst.w	r5, #1
 8000266:	d107      	bne.n	8000278 <memchr+0x98>
 8000268:	3001      	adds	r0, #1
 800026a:	f415 7f80 	tst.w	r5, #256	; 0x100
 800026e:	bf02      	ittt	eq
 8000270:	3001      	addeq	r0, #1
 8000272:	f415 3fc0 	tsteq.w	r5, #98304	; 0x18000
 8000276:	3001      	addeq	r0, #1
 8000278:	bcf0      	pop	{r4, r5, r6, r7}
 800027a:	3801      	subs	r0, #1
 800027c:	4770      	bx	lr
 800027e:	bf00      	nop

08000280 <__aeabi_uldivmod>:
 8000280:	b953      	cbnz	r3, 8000298 <__aeabi_uldivmod+0x18>
 8000282:	b94a      	cbnz	r2, 8000298 <__aeabi_uldivmod+0x18>
 8000284:	2900      	cmp	r1, #0
 8000286:	bf08      	it	eq
 8000288:	2800      	cmpeq	r0, #0
 800028a:	bf1c      	itt	ne
 800028c:	f04f 31ff 	movne.w	r1, #4294967295	; 0xffffffff
 8000290:	f04f 30ff 	movne.w	r0, #4294967295	; 0xffffffff
 8000294:	f000 b974 	b.w	8000580 <__aeabi_idiv0>
 8000298:	f1ad 0c08 	sub.w	ip, sp, #8
 800029c:	e96d ce04 	strd	ip, lr, [sp, #-16]!
 80002a0:	f000 f806 	bl	80002b0 <__udivmoddi4>
 80002a4:	f8dd e004 	ldr.w	lr, [sp, #4]
 80002a8:	e9dd 2302 	ldrd	r2, r3, [sp, #8]
 80002ac:	b004      	add	sp, #16
 80002ae:	4770      	bx	lr

080002b0 <__udivmoddi4>:
 80002b0:	e92d 47f0 	stmdb	sp!, {r4, r5, r6, r7, r8, r9, sl, lr}
 80002b4:	9d08      	ldr	r5, [sp, #32]
 80002b6:	4604      	mov	r4, r0
 80002b8:	468e      	mov	lr, r1
 80002ba:	2b00      	cmp	r3, #0
 80002bc:	d14d      	bne.n	800035a <__udivmoddi4+0xaa>
 80002be:	428a      	cmp	r2, r1
 80002c0:	4694      	mov	ip, r2
 80002c2:	d969      	bls.n	8000398 <__udivmoddi4+0xe8>
 80002c4:	fab2 f282 	clz	r2, r2
 80002c8:	b152      	cbz	r2, 80002e0 <__udivmoddi4+0x30>
 80002ca:	fa01 f302 	lsl.w	r3, r1, r2
 80002ce:	f1c2 0120 	rsb	r1, r2, #32
 80002d2:	fa20 f101 	lsr.w	r1, r0, r1
 80002d6:	fa0c fc02 	lsl.w	ip, ip, r2
 80002da:	ea41 0e03 	orr.w	lr, r1, r3
 80002de:	4094      	lsls	r4, r2
 80002e0:	ea4f 481c 	mov.w	r8, ip, lsr #16
 80002e4:	0c21      	lsrs	r1, r4, #16
 80002e6:	fbbe f6f8 	udiv	r6, lr, r8
 80002ea:	fa1f f78c 	uxth.w	r7, ip
 80002ee:	fb08 e316 	mls	r3, r8, r6, lr
 80002f2:	ea41 4303 	orr.w	r3, r1, r3, lsl #16
 80002f6:	fb06 f107 	mul.w	r1, r6, r7
 80002fa:	4299      	cmp	r1, r3
 80002fc:	d90a      	bls.n	8000314 <__udivmoddi4+0x64>
 80002fe:	eb1c 0303 	adds.w	r3, ip, r3
 8000302:	f106 30ff 	add.w	r0, r6, #4294967295	; 0xffffffff
 8000306:	f080 811f 	bcs.w	8000548 <__udivmoddi4+0x298>
 800030a:	4299      	cmp	r1, r3
 800030c:	f240 811c 	bls.w	8000548 <__udivmoddi4+0x298>
 8000310:	3e02      	subs	r6, #2
 8000312:	4463      	add	r3, ip
 8000314:	1a5b      	subs	r3, r3, r1
 8000316:	b2a4      	uxth	r4, r4
 8000318:	fbb3 f0f8 	udiv	r0, r3, r8
 800031c:	fb08 3310 	mls	r3, r8, r0, r3
 8000320:	ea44 4403 	orr.w	r4, r4, r3, lsl #16
 8000324:	fb00 f707 	mul.w	r7, r0, r7
 8000328:	42a7      	cmp	r7, r4
 800032a:	d90a      	bls.n	8000342 <__udivmoddi4+0x92>
 800032c:	eb1c 0404 	adds.w	r4, ip, r4
 8000330:	f100 33ff 	add.w	r3, r0, #4294967295	; 0xffffffff
 8000334:	f080 810a 	bcs.w	800054c <__udivmoddi4+0x29c>
 8000338:	42a7      	cmp	r7, r4
 800033a:	f240 8107 	bls.w	800054c <__udivmoddi4+0x29c>
 800033e:	4464      	add	r4, ip
 8000340:	3802      	subs	r0, #2
 8000342:	ea40 4006 	orr.w	r0, r0, r6, lsl #16
 8000346:	1be4      	subs	r4, r4, r7
 8000348:	2600      	movs	r6, #0
 800034a:	b11d      	cbz	r5, 8000354 <__udivmoddi4+0xa4>
 800034c:	40d4      	lsrs	r4, r2
 800034e:	2300      	movs	r3, #0
 8000350:	e9c5 4300 	strd	r4, r3, [r5]
 8000354:	4631      	mov	r1, r6
 8000356:	e8bd 87f0 	ldmia.w	sp!, {r4, r5, r6, r7, r8, r9, sl, pc}
 800035a:	428b      	cmp	r3, r1
 800035c:	d909      	bls.n	8000372 <__udivmoddi4+0xc2>
 800035e:	2d00      	cmp	r5, #0
 8000360:	f000 80ef 	beq.w	8000542 <__udivmoddi4+0x292>
 8000364:	2600      	movs	r6, #0
 8000366:	e9c5 0100 	strd	r0, r1, [r5]
 800036a:	4630      	mov	r0, r6
 800036c:	4631      	mov	r1, r6
 800036e:	e8bd 87f0 	ldmia.w	sp!, {r4, r5, r6, r7, r8, r9, sl, pc}
 8000372:	fab3 f683 	clz	r6, r3
 8000376:	2e00      	cmp	r6, #0
 8000378:	d14a      	bne.n	8000410 <__udivmoddi4+0x160>
 800037a:	428b      	cmp	r3, r1
 800037c:	d302      	bcc.n	8000384 <__udivmoddi4+0xd4>
 800037e:	4282      	cmp	r2, r0
 8000380:	f200 80f9 	bhi.w	8000576 <__udivmoddi4+0x2c6>
 8000384:	1a84      	subs	r4, r0, r2
 8000386:	eb61 0303 	sbc.w	r3, r1, r3
 800038a:	2001      	movs	r0, #1
 800038c:	469e      	mov	lr, r3
 800038e:	2d00      	cmp	r5, #0
 8000390:	d0e0      	beq.n	8000354 <__udivmoddi4+0xa4>
 8000392:	e9c5 4e00 	strd	r4, lr, [r5]
 8000396:	e7dd      	b.n	8000354 <__udivmoddi4+0xa4>
 8000398:	b902      	cbnz	r2, 800039c <__udivmoddi4+0xec>
 800039a:	deff      	udf	#255	; 0xff
 800039c:	fab2 f282 	clz	r2, r2
 80003a0:	2a00      	cmp	r2, #0
 80003a2:	f040 8092 	bne.w	80004ca <__udivmoddi4+0x21a>
 80003a6:	eba1 010c 	sub.w	r1, r1, ip
 80003aa:	ea4f 471c 	mov.w	r7, ip, lsr #16
 80003ae:	fa1f fe8c 	uxth.w	lr, ip
 80003b2:	2601      	movs	r6, #1
 80003b4:	0c20      	lsrs	r0, r4, #16
 80003b6:	fbb1 f3f7 	udiv	r3, r1, r7
 80003ba:	fb07 1113 	mls	r1, r7, r3, r1
 80003be:	ea40 4101 	orr.w	r1, r0, r1, lsl #16
 80003c2:	fb0e f003 	mul.w	r0, lr, r3
 80003c6:	4288      	cmp	r0, r1
 80003c8:	d908      	bls.n	80003dc <__udivmoddi4+0x12c>
 80003ca:	eb1c 0101 	adds.w	r1, ip, r1
 80003ce:	f103 38ff 	add.w	r8, r3, #4294967295	; 0xffffffff
 80003d2:	d202      	bcs.n	80003da <__udivmoddi4+0x12a>
 80003d4:	4288      	cmp	r0, r1
 80003d6:	f200 80cb 	bhi.w	8000570 <__udivmoddi4+0x2c0>
 80003da:	4643      	mov	r3, r8
 80003dc:	1a09      	subs	r1, r1, r0
 80003de:	b2a4      	uxth	r4, r4
 80003e0:	fbb1 f0f7 	udiv	r0, r1, r7
 80003e4:	fb07 1110 	mls	r1, r7, r0, r1
 80003e8:	ea44 4401 	orr.w	r4, r4, r1, lsl #16
 80003ec:	fb0e fe00 	mul.w	lr, lr, r0
 80003f0:	45a6      	cmp	lr, r4
 80003f2:	d908      	bls.n	8000406 <__udivmoddi4+0x156>
 80003f4:	eb1c 0404 	adds.w	r4, ip, r4
 80003f8:	f100 31ff 	add.w	r1, r0, #4294967295	; 0xffffffff
 80003fc:	d202      	bcs.n	8000404 <__udivmoddi4+0x154>
 80003fe:	45a6      	cmp	lr, r4
 8000400:	f200 80bb 	bhi.w	800057a <__udivmoddi4+0x2ca>
 8000404:	4608      	mov	r0, r1
 8000406:	eba4 040e 	sub.w	r4, r4, lr
 800040a:	ea40 4003 	orr.w	r0, r0, r3, lsl #16
 800040e:	e79c      	b.n	800034a <__udivmoddi4+0x9a>
 8000410:	f1c6 0720 	rsb	r7, r6, #32
 8000414:	40b3      	lsls	r3, r6
 8000416:	fa22 fc07 	lsr.w	ip, r2, r7
 800041a:	ea4c 0c03 	orr.w	ip, ip, r3
 800041e:	fa20 f407 	lsr.w	r4, r0, r7
 8000422:	fa01 f306 	lsl.w	r3, r1, r6
 8000426:	431c      	orrs	r4, r3
 8000428:	40f9      	lsrs	r1, r7
 800042a:	ea4f 491c 	mov.w	r9, ip, lsr #16
 800042e:	fa00 f306 	lsl.w	r3, r0, r6
 8000432:	fbb1 f8f9 	udiv	r8, r1, r9
 8000436:	0c20      	lsrs	r0, r4, #16
 8000438:	fa1f fe8c 	uxth.w	lr, ip
 800043c:	fb09 1118 	mls	r1, r9, r8, r1
 8000440:	ea40 4101 	orr.w	r1, r0, r1, lsl #16
 8000444:	fb08 f00e 	mul.w	r0, r8, lr
 8000448:	4288      	cmp	r0, r1
 800044a:	fa02 f206 	lsl.w	r2, r2, r6
 800044e:	d90b      	bls.n	8000468 <__udivmoddi4+0x1b8>
 8000450:	eb1c 0101 	adds.w	r1, ip, r1
 8000454:	f108 3aff 	add.w	sl, r8, #4294967295	; 0xffffffff
 8000458:	f080 8088 	bcs.w	800056c <__udivmoddi4+0x2bc>
 800045c:	4288      	cmp	r0, r1
 800045e:	f240 8085 	bls.w	800056c <__udivmoddi4+0x2bc>
 8000462:	f1a8 0802 	sub.w	r8, r8, #2
 8000466:	4461      	add	r1, ip
 8000468:	1a09      	subs	r1, r1, r0
 800046a:	b2a4      	uxth	r4, r4
 800046c:	fbb1 f0f9 	udiv	r0, r1, r9
 8000470:	fb09 1110 	mls	r1, r9, r0, r1
 8000474:	ea44 4101 	orr.w	r1, r4, r1, lsl #16
 8000478:	fb00 fe0e 	mul.w	lr, r0, lr
 800047c:	458e      	cmp	lr, r1
 800047e:	d908      	bls.n	8000492 <__udivmoddi4+0x1e2>
 8000480:	eb1c 0101 	adds.w	r1, ip, r1
 8000484:	f100 34ff 	add.w	r4, r0, #4294967295	; 0xffffffff
 8000488:	d26c      	bcs.n	8000564 <__udivmoddi4+0x2b4>
 800048a:	458e      	cmp	lr, r1
 800048c:	d96a      	bls.n	8000564 <__udivmoddi4+0x2b4>
 800048e:	3802      	subs	r0, #2
 8000490:	4461      	add	r1, ip
 8000492:	ea40 4008 	orr.w	r0, r0, r8, lsl #16
 8000496:	fba0 9402 	umull	r9, r4, r0, r2
 800049a:	eba1 010e 	sub.w	r1, r1, lr
 800049e:	42a1      	cmp	r1, r4
 80004a0:	46c8      	mov	r8, r9
 80004a2:	46a6      	mov	lr, r4
 80004a4:	d356      	bcc.n	8000554 <__udivmoddi4+0x2a4>
 80004a6:	d053      	beq.n	8000550 <__udivmoddi4+0x2a0>
 80004a8:	b15d      	cbz	r5, 80004c2 <__udivmoddi4+0x212>
 80004aa:	ebb3 0208 	subs.w	r2, r3, r8
 80004ae:	eb61 010e 	sbc.w	r1, r1, lr
 80004b2:	fa01 f707 	lsl.w	r7, r1, r7
 80004b6:	fa22 f306 	lsr.w	r3, r2, r6
 80004ba:	40f1      	lsrs	r1, r6
 80004bc:	431f      	orrs	r7, r3
 80004be:	e9c5 7100 	strd	r7, r1, [r5]
 80004c2:	2600      	movs	r6, #0
 80004c4:	4631      	mov	r1, r6
 80004c6:	e8bd 87f0 	ldmia.w	sp!, {r4, r5, r6, r7, r8, r9, sl, pc}
 80004ca:	f1c2 0320 	rsb	r3, r2, #32
 80004ce:	40d8      	lsrs	r0, r3
 80004d0:	fa0c fc02 	lsl.w	ip, ip, r2
 80004d4:	fa21 f303 	lsr.w	r3, r1, r3
 80004d8:	4091      	lsls	r1, r2
 80004da:	4301      	orrs	r1, r0
 80004dc:	ea4f 471c 	mov.w	r7, ip, lsr #16
 80004e0:	fa1f fe8c 	uxth.w	lr, ip
 80004e4:	fbb3 f0f7 	udiv	r0, r3, r7
 80004e8:	fb07 3610 	mls	r6, r7, r0, r3
 80004ec:	0c0b      	lsrs	r3, r1, #16
 80004ee:	ea43 4306 	orr.w	r3, r3, r6, lsl #16
 80004f2:	fb00 f60e 	mul.w	r6, r0, lr
 80004f6:	429e      	cmp	r6, r3
 80004f8:	fa04 f402 	lsl.w	r4, r4, r2
 80004fc:	d908      	bls.n	8000510 <__udivmoddi4+0x260>
 80004fe:	eb1c 0303 	adds.w	r3, ip, r3
 8000502:	f100 38ff 	add.w	r8, r0, #4294967295	; 0xffffffff
 8000506:	d22f      	bcs.n	8000568 <__udivmoddi4+0x2b8>
 8000508:	429e      	cmp	r6, r3
 800050a:	d92d      	bls.n	8000568 <__udivmoddi4+0x2b8>
 800050c:	3802      	subs	r0, #2
 800050e:	4463      	add	r3, ip
 8000510:	1b9b      	subs	r3, r3, r6
 8000512:	b289      	uxth	r1, r1
 8000514:	fbb3 f6f7 	udiv	r6, r3, r7
 8000518:	fb07 3316 	mls	r3, r7, r6, r3
 800051c:	ea41 4103 	orr.w	r1, r1, r3, lsl #16
 8000520:	fb06 f30e 	mul.w	r3, r6, lr
 8000524:	428b      	cmp	r3, r1
 8000526:	d908      	bls.n	800053a <__udivmoddi4+0x28a>
 8000528:	eb1c 0101 	adds.w	r1, ip, r1
 800052c:	f106 38ff 	add.w	r8, r6, #4294967295	; 0xffffffff
 8000530:	d216      	bcs.n	8000560 <__udivmoddi4+0x2b0>
 8000532:	428b      	cmp	r3, r1
 8000534:	d914      	bls.n	8000560 <__udivmoddi4+0x2b0>
 8000536:	3e02      	subs	r6, #2
 8000538:	4461      	add	r1, ip
 800053a:	1ac9      	subs	r1, r1, r3
 800053c:	ea46 4600 	orr.w	r6, r6, r0, lsl #16
 8000540:	e738      	b.n	80003b4 <__udivmoddi4+0x104>
 8000542:	462e      	mov	r6, r5
 8000544:	4628      	mov	r0, r5
 8000546:	e705      	b.n	8000354 <__udivmoddi4+0xa4>
 8000548:	4606      	mov	r6, r0
 800054a:	e6e3      	b.n	8000314 <__udivmoddi4+0x64>
 800054c:	4618      	mov	r0, r3
 800054e:	e6f8      	b.n	8000342 <__udivmoddi4+0x92>
 8000550:	454b      	cmp	r3, r9
 8000552:	d2a9      	bcs.n	80004a8 <__udivmoddi4+0x1f8>
 8000554:	ebb9 0802 	subs.w	r8, r9, r2
 8000558:	eb64 0e0c 	sbc.w	lr, r4, ip
 800055c:	3801      	subs	r0, #1
 800055e:	e7a3      	b.n	80004a8 <__udivmoddi4+0x1f8>
 8000560:	4646      	mov	r6, r8
 8000562:	e7ea      	b.n	800053a <__udivmoddi4+0x28a>
 8000564:	4620      	mov	r0, r4
 8000566:	e794      	b.n	8000492 <__udivmoddi4+0x1e2>
 8000568:	4640      	mov	r0, r8
 800056a:	e7d1      	b.n	8000510 <__udivmoddi4+0x260>
 800056c:	46d0      	mov	r8, sl
 800056e:	e77b      	b.n	8000468 <__udivmoddi4+0x1b8>
 8000570:	3b02      	subs	r3, #2
 8000572:	4461      	add	r1, ip
 8000574:	e732      	b.n	80003dc <__udivmoddi4+0x12c>
 8000576:	4630      	mov	r0, r6
 8000578:	e709      	b.n	800038e <__udivmoddi4+0xde>
 800057a:	4464      	add	r4, ip
 800057c:	3802      	subs	r0, #2
 800057e:	e742      	b.n	8000406 <__udivmoddi4+0x156>

08000580 <__aeabi_idiv0>:
 8000580:	4770      	bx	lr
 8000582:	bf00      	nop

08000584 <LCD_Init>:
   
   0xFF
};
//----------------------------------------------------------------------------------
void LCD_Init(void)
{
 8000584:	b580      	push	{r7, lr}
 8000586:	b082      	sub	sp, #8
 8000588:	af02      	add	r7, sp, #8
   HAL_I2C_Master_Transmit(&hi2c1, LCD_ADDRESS, comm, sizeof(comm),10);
 800058a:	230a      	movs	r3, #10
 800058c:	9300      	str	r3, [sp, #0]
 800058e:	231b      	movs	r3, #27
 8000590:	4a03      	ldr	r2, [pc, #12]	; (80005a0 <LCD_Init+0x1c>)
 8000592:	2178      	movs	r1, #120	; 0x78
 8000594:	4803      	ldr	r0, [pc, #12]	; (80005a4 <LCD_Init+0x20>)
 8000596:	f003 f843 	bl	8003620 <HAL_I2C_Master_Transmit>
}
 800059a:	bf00      	nop
 800059c:	46bd      	mov	sp, r7
 800059e:	bd80      	pop	{r7, pc}
 80005a0:	20000000 	.word	0x20000000
 80005a4:	2000052c 	.word	0x2000052c

080005a8 <LCD_command>:
//----------------------------------------------------------------------------------
void  LCD_command(uint8_t cmd)
{   
 80005a8:	b580      	push	{r7, lr}
 80005aa:	b086      	sub	sp, #24
 80005ac:	af02      	add	r7, sp, #8
 80005ae:	4603      	mov	r3, r0
 80005b0:	71fb      	strb	r3, [r7, #7]
   uint8_t cmd_arr[2] = {0,0};
 80005b2:	2300      	movs	r3, #0
 80005b4:	81bb      	strh	r3, [r7, #12]
   cmd_arr[0] = COMMAND_MODE;
 80005b6:	2300      	movs	r3, #0
 80005b8:	733b      	strb	r3, [r7, #12]
   cmd_arr[1] = cmd;
 80005ba:	79fb      	ldrb	r3, [r7, #7]
 80005bc:	737b      	strb	r3, [r7, #13]
   HAL_I2C_Master_Transmit(&hi2c1, LCD_ADDRESS, cmd_arr, sizeof(cmd_arr),10);
 80005be:	f107 020c 	add.w	r2, r7, #12
 80005c2:	230a      	movs	r3, #10
 80005c4:	9300      	str	r3, [sp, #0]
 80005c6:	2302      	movs	r3, #2
 80005c8:	2178      	movs	r1, #120	; 0x78
 80005ca:	4803      	ldr	r0, [pc, #12]	; (80005d8 <LCD_command+0x30>)
 80005cc:	f003 f828 	bl	8003620 <HAL_I2C_Master_Transmit>
}
 80005d0:	bf00      	nop
 80005d2:	3710      	adds	r7, #16
 80005d4:	46bd      	mov	sp, r7
 80005d6:	bd80      	pop	{r7, pc}
 80005d8:	2000052c 	.word	0x2000052c

080005dc <LCD_Clear>:
{
   LCD_command(0xAE);
}
//----------------------------------------------------------------------------------
void LCD_Clear(void)
{
 80005dc:	b480      	push	{r7}
 80005de:	b083      	sub	sp, #12
 80005e0:	af00      	add	r7, sp, #0
   for(uint16_t ix = 1; ix < BUFF_SIZE; ix++)
 80005e2:	2301      	movs	r3, #1
 80005e4:	80fb      	strh	r3, [r7, #6]
 80005e6:	e006      	b.n	80005f6 <LCD_Clear+0x1a>
   {
      lcd_buff[ix] = 0;
 80005e8:	88fb      	ldrh	r3, [r7, #6]
 80005ea:	4a0b      	ldr	r2, [pc, #44]	; (8000618 <LCD_Clear+0x3c>)
 80005ec:	2100      	movs	r1, #0
 80005ee:	54d1      	strb	r1, [r2, r3]
   for(uint16_t ix = 1; ix < BUFF_SIZE; ix++)
 80005f0:	88fb      	ldrh	r3, [r7, #6]
 80005f2:	3301      	adds	r3, #1
 80005f4:	80fb      	strh	r3, [r7, #6]
 80005f6:	88fb      	ldrh	r3, [r7, #6]
 80005f8:	f5b3 7f00 	cmp.w	r3, #512	; 0x200
 80005fc:	d9f4      	bls.n	80005e8 <LCD_Clear+0xc>
   }
   x_cur = 0;
 80005fe:	4b07      	ldr	r3, [pc, #28]	; (800061c <LCD_Clear+0x40>)
 8000600:	2200      	movs	r2, #0
 8000602:	701a      	strb	r2, [r3, #0]
   y_cur = 0;
 8000604:	4b06      	ldr	r3, [pc, #24]	; (8000620 <LCD_Clear+0x44>)
 8000606:	2200      	movs	r2, #0
 8000608:	701a      	strb	r2, [r3, #0]
}
 800060a:	bf00      	nop
 800060c:	370c      	adds	r7, #12
 800060e:	46bd      	mov	sp, r7
 8000610:	f85d 7b04 	ldr.w	r7, [sp], #4
 8000614:	4770      	bx	lr
 8000616:	bf00      	nop
 8000618:	200000cc 	.word	0x200000cc
 800061c:	200002d0 	.word	0x200002d0
 8000620:	200002d1 	.word	0x200002d1

08000624 <LCD_Update>:
//----------------------------------------------------------------------------------
void LCD_Update(void)
{
 8000624:	b580      	push	{r7, lr}
 8000626:	b082      	sub	sp, #8
 8000628:	af02      	add	r7, sp, #8
   LCD_command(0x21);		      // SSD1306_COLUMNADDR
 800062a:	2021      	movs	r0, #33	; 0x21
 800062c:	f7ff ffbc 	bl	80005a8 <LCD_command>
   LCD_command(column_start);     // column start
 8000630:	2000      	movs	r0, #0
 8000632:	f7ff ffb9 	bl	80005a8 <LCD_command>
   LCD_command(column_end);       // column end
 8000636:	207f      	movs	r0, #127	; 0x7f
 8000638:	f7ff ffb6 	bl	80005a8 <LCD_command>
   LCD_command(0x22);             // SSD1306_PAGEADDR
 800063c:	2022      	movs	r0, #34	; 0x22
 800063e:	f7ff ffb3 	bl	80005a8 <LCD_command>
   LCD_command(page_start);       // page start
 8000642:	2000      	movs	r0, #0
 8000644:	f7ff ffb0 	bl	80005a8 <LCD_command>
   LCD_command(page_end);         // page end (4 pages for 32 rows OLED)
 8000648:	2003      	movs	r0, #3
 800064a:	f7ff ffad 	bl	80005a8 <LCD_command>
   
   lcd_buff[0]= DATA_MODE;              
 800064e:	4b07      	ldr	r3, [pc, #28]	; (800066c <LCD_Update+0x48>)
 8000650:	2240      	movs	r2, #64	; 0x40
 8000652:	701a      	strb	r2, [r3, #0]
   
   HAL_I2C_Master_Transmit(&hi2c1, LCD_ADDRESS, lcd_buff, BUFF_SIZE,50);
 8000654:	2332      	movs	r3, #50	; 0x32
 8000656:	9300      	str	r3, [sp, #0]
 8000658:	f240 2301 	movw	r3, #513	; 0x201
 800065c:	4a03      	ldr	r2, [pc, #12]	; (800066c <LCD_Update+0x48>)
 800065e:	2178      	movs	r1, #120	; 0x78
 8000660:	4803      	ldr	r0, [pc, #12]	; (8000670 <LCD_Update+0x4c>)
 8000662:	f002 ffdd 	bl	8003620 <HAL_I2C_Master_Transmit>
}
 8000666:	bf00      	nop
 8000668:	46bd      	mov	sp, r7
 800066a:	bd80      	pop	{r7, pc}
 800066c:	200000cc 	.word	0x200000cc
 8000670:	2000052c 	.word	0x2000052c

08000674 <LCD_Chr>:
//----------------------------------------------------------------------------------
void LCD_Chr(char ch)
{
 8000674:	b490      	push	{r4, r7}
 8000676:	b084      	sub	sp, #16
 8000678:	af00      	add	r7, sp, #0
 800067a:	4603      	mov	r3, r0
 800067c:	71fb      	strb	r3, [r7, #7]
   uint8_t i;   
   lcd_buff_idx=(y_cur*128 + x_cur*6) + 1;    
 800067e:	4b32      	ldr	r3, [pc, #200]	; (8000748 <LCD_Chr+0xd4>)
 8000680:	781b      	ldrb	r3, [r3, #0]
 8000682:	b29b      	uxth	r3, r3
 8000684:	01db      	lsls	r3, r3, #7
 8000686:	b29a      	uxth	r2, r3
 8000688:	4b30      	ldr	r3, [pc, #192]	; (800074c <LCD_Chr+0xd8>)
 800068a:	781b      	ldrb	r3, [r3, #0]
 800068c:	b29b      	uxth	r3, r3
 800068e:	4619      	mov	r1, r3
 8000690:	0049      	lsls	r1, r1, #1
 8000692:	440b      	add	r3, r1
 8000694:	005b      	lsls	r3, r3, #1
 8000696:	b29b      	uxth	r3, r3
 8000698:	4413      	add	r3, r2
 800069a:	b29b      	uxth	r3, r3
 800069c:	3301      	adds	r3, #1
 800069e:	b29a      	uxth	r2, r3
 80006a0:	4b2b      	ldr	r3, [pc, #172]	; (8000750 <LCD_Chr+0xdc>)
 80006a2:	801a      	strh	r2, [r3, #0]
   if ((ch >= 0x20)&&(ch <= 0x7F)) ch -= 32;
 80006a4:	79fb      	ldrb	r3, [r7, #7]
 80006a6:	2b1f      	cmp	r3, #31
 80006a8:	d907      	bls.n	80006ba <LCD_Chr+0x46>
 80006aa:	f997 3007 	ldrsb.w	r3, [r7, #7]
 80006ae:	2b00      	cmp	r3, #0
 80006b0:	db03      	blt.n	80006ba <LCD_Chr+0x46>
 80006b2:	79fb      	ldrb	r3, [r7, #7]
 80006b4:	3b20      	subs	r3, #32
 80006b6:	71fb      	strb	r3, [r7, #7]
 80006b8:	e001      	b.n	80006be <LCD_Chr+0x4a>
   else ch = 95;   
 80006ba:	235f      	movs	r3, #95	; 0x5f
 80006bc:	71fb      	strb	r3, [r7, #7]
   for (i = 0; i < 5; i++)
 80006be:	2300      	movs	r3, #0
 80006c0:	73fb      	strb	r3, [r7, #15]
 80006c2:	e014      	b.n	80006ee <LCD_Chr+0x7a>
   {
        lcd_buff[lcd_buff_idx++] = font[(int) ch][i];
 80006c4:	79fa      	ldrb	r2, [r7, #7]
 80006c6:	7bf9      	ldrb	r1, [r7, #15]
 80006c8:	4b21      	ldr	r3, [pc, #132]	; (8000750 <LCD_Chr+0xdc>)
 80006ca:	881b      	ldrh	r3, [r3, #0]
 80006cc:	1c58      	adds	r0, r3, #1
 80006ce:	b284      	uxth	r4, r0
 80006d0:	481f      	ldr	r0, [pc, #124]	; (8000750 <LCD_Chr+0xdc>)
 80006d2:	8004      	strh	r4, [r0, #0]
 80006d4:	461c      	mov	r4, r3
 80006d6:	481f      	ldr	r0, [pc, #124]	; (8000754 <LCD_Chr+0xe0>)
 80006d8:	4613      	mov	r3, r2
 80006da:	009b      	lsls	r3, r3, #2
 80006dc:	4413      	add	r3, r2
 80006de:	4403      	add	r3, r0
 80006e0:	440b      	add	r3, r1
 80006e2:	781a      	ldrb	r2, [r3, #0]
 80006e4:	4b1c      	ldr	r3, [pc, #112]	; (8000758 <LCD_Chr+0xe4>)
 80006e6:	551a      	strb	r2, [r3, r4]
   for (i = 0; i < 5; i++)
 80006e8:	7bfb      	ldrb	r3, [r7, #15]
 80006ea:	3301      	adds	r3, #1
 80006ec:	73fb      	strb	r3, [r7, #15]
 80006ee:	7bfb      	ldrb	r3, [r7, #15]
 80006f0:	2b04      	cmp	r3, #4
 80006f2:	d9e7      	bls.n	80006c4 <LCD_Chr+0x50>
   }
   lcd_buff[lcd_buff_idx++] = 0x00;  
 80006f4:	4b16      	ldr	r3, [pc, #88]	; (8000750 <LCD_Chr+0xdc>)
 80006f6:	881b      	ldrh	r3, [r3, #0]
 80006f8:	1c5a      	adds	r2, r3, #1
 80006fa:	b291      	uxth	r1, r2
 80006fc:	4a14      	ldr	r2, [pc, #80]	; (8000750 <LCD_Chr+0xdc>)
 80006fe:	8011      	strh	r1, [r2, #0]
 8000700:	461a      	mov	r2, r3
 8000702:	4b15      	ldr	r3, [pc, #84]	; (8000758 <LCD_Chr+0xe4>)
 8000704:	2100      	movs	r1, #0
 8000706:	5499      	strb	r1, [r3, r2]
   x_cur++;
 8000708:	4b10      	ldr	r3, [pc, #64]	; (800074c <LCD_Chr+0xd8>)
 800070a:	781b      	ldrb	r3, [r3, #0]
 800070c:	3301      	adds	r3, #1
 800070e:	b2da      	uxtb	r2, r3
 8000710:	4b0e      	ldr	r3, [pc, #56]	; (800074c <LCD_Chr+0xd8>)
 8000712:	701a      	strb	r2, [r3, #0]
   if (x_cur > 20)
 8000714:	4b0d      	ldr	r3, [pc, #52]	; (800074c <LCD_Chr+0xd8>)
 8000716:	781b      	ldrb	r3, [r3, #0]
 8000718:	2b14      	cmp	r3, #20
 800071a:	d90f      	bls.n	800073c <LCD_Chr+0xc8>
   {
      x_cur = 0;
 800071c:	4b0b      	ldr	r3, [pc, #44]	; (800074c <LCD_Chr+0xd8>)
 800071e:	2200      	movs	r2, #0
 8000720:	701a      	strb	r2, [r3, #0]
      y_cur++;
 8000722:	4b09      	ldr	r3, [pc, #36]	; (8000748 <LCD_Chr+0xd4>)
 8000724:	781b      	ldrb	r3, [r3, #0]
 8000726:	3301      	adds	r3, #1
 8000728:	b2da      	uxtb	r2, r3
 800072a:	4b07      	ldr	r3, [pc, #28]	; (8000748 <LCD_Chr+0xd4>)
 800072c:	701a      	strb	r2, [r3, #0]
      if (y_cur > 3)
 800072e:	4b06      	ldr	r3, [pc, #24]	; (8000748 <LCD_Chr+0xd4>)
 8000730:	781b      	ldrb	r3, [r3, #0]
 8000732:	2b03      	cmp	r3, #3
 8000734:	d902      	bls.n	800073c <LCD_Chr+0xc8>
      {
         y_cur = 0;
 8000736:	4b04      	ldr	r3, [pc, #16]	; (8000748 <LCD_Chr+0xd4>)
 8000738:	2200      	movs	r2, #0
 800073a:	701a      	strb	r2, [r3, #0]
      }
   }
}
 800073c:	bf00      	nop
 800073e:	3710      	adds	r7, #16
 8000740:	46bd      	mov	sp, r7
 8000742:	bc90      	pop	{r4, r7}
 8000744:	4770      	bx	lr
 8000746:	bf00      	nop
 8000748:	200002d1 	.word	0x200002d1
 800074c:	200002d0 	.word	0x200002d0
 8000750:	200002ce 	.word	0x200002ce
 8000754:	08008a90 	.word	0x08008a90
 8000758:	200000cc 	.word	0x200000cc

0800075c <LCD_FStr>:
      }
   }
}
//----------------------------------------------------------------------------------
void LCD_FStr(const char *dataPtr, uint8_t x, uint8_t y)
{
 800075c:	b580      	push	{r7, lr}
 800075e:	b082      	sub	sp, #8
 8000760:	af00      	add	r7, sp, #0
 8000762:	6078      	str	r0, [r7, #4]
 8000764:	460b      	mov	r3, r1
 8000766:	70fb      	strb	r3, [r7, #3]
 8000768:	4613      	mov	r3, r2
 800076a:	70bb      	strb	r3, [r7, #2]
   LCD_GotoXY(x,y);
 800076c:	78ba      	ldrb	r2, [r7, #2]
 800076e:	78fb      	ldrb	r3, [r7, #3]
 8000770:	4611      	mov	r1, r2
 8000772:	4618      	mov	r0, r3
 8000774:	f000 f812 	bl	800079c <LCD_GotoXY>
   while(*dataPtr != 0)
 8000778:	e007      	b.n	800078a <LCD_FStr+0x2e>
   {
      LCD_Chr(*dataPtr);
 800077a:	687b      	ldr	r3, [r7, #4]
 800077c:	781b      	ldrb	r3, [r3, #0]
 800077e:	4618      	mov	r0, r3
 8000780:	f7ff ff78 	bl	8000674 <LCD_Chr>
      dataPtr++;
 8000784:	687b      	ldr	r3, [r7, #4]
 8000786:	3301      	adds	r3, #1
 8000788:	607b      	str	r3, [r7, #4]
   while(*dataPtr != 0)
 800078a:	687b      	ldr	r3, [r7, #4]
 800078c:	781b      	ldrb	r3, [r3, #0]
 800078e:	2b00      	cmp	r3, #0
 8000790:	d1f3      	bne.n	800077a <LCD_FStr+0x1e>
   }
}
 8000792:	bf00      	nop
 8000794:	bf00      	nop
 8000796:	3708      	adds	r7, #8
 8000798:	46bd      	mov	sp, r7
 800079a:	bd80      	pop	{r7, pc}

0800079c <LCD_GotoXY>:
      dataPtr++;
   }
}
////----------------------------------------------------
void LCD_GotoXY(uint8_t x,uint8_t y)
{
 800079c:	b480      	push	{r7}
 800079e:	b083      	sub	sp, #12
 80007a0:	af00      	add	r7, sp, #0
 80007a2:	4603      	mov	r3, r0
 80007a4:	460a      	mov	r2, r1
 80007a6:	71fb      	strb	r3, [r7, #7]
 80007a8:	4613      	mov	r3, r2
 80007aa:	71bb      	strb	r3, [r7, #6]
   if((x < 21)&&(y < (page_end+1)))
 80007ac:	79fb      	ldrb	r3, [r7, #7]
 80007ae:	2b14      	cmp	r3, #20
 80007b0:	d808      	bhi.n	80007c4 <LCD_GotoXY+0x28>
 80007b2:	79bb      	ldrb	r3, [r7, #6]
 80007b4:	2b03      	cmp	r3, #3
 80007b6:	d805      	bhi.n	80007c4 <LCD_GotoXY+0x28>
   {
      x_cur = x;
 80007b8:	4a05      	ldr	r2, [pc, #20]	; (80007d0 <LCD_GotoXY+0x34>)
 80007ba:	79fb      	ldrb	r3, [r7, #7]
 80007bc:	7013      	strb	r3, [r2, #0]
      y_cur = y;
 80007be:	4a05      	ldr	r2, [pc, #20]	; (80007d4 <LCD_GotoXY+0x38>)
 80007c0:	79bb      	ldrb	r3, [r7, #6]
 80007c2:	7013      	strb	r3, [r2, #0]
   }
}
 80007c4:	bf00      	nop
 80007c6:	370c      	adds	r7, #12
 80007c8:	46bd      	mov	sp, r7
 80007ca:	f85d 7b04 	ldr.w	r7, [sp], #4
 80007ce:	4770      	bx	lr
 80007d0:	200002d0 	.word	0x200002d0
 80007d4:	200002d1 	.word	0x200002d1

080007d8 <disk_status>:
  * @retval DSTATUS: Operation status
  */
DSTATUS disk_status (
	BYTE pdrv		/* Physical drive nmuber to identify the drive */
)
{
 80007d8:	b580      	push	{r7, lr}
 80007da:	b084      	sub	sp, #16
 80007dc:	af00      	add	r7, sp, #0
 80007de:	4603      	mov	r3, r0
 80007e0:	71fb      	strb	r3, [r7, #7]
  DSTATUS stat;
  
  stat = disk.drv[pdrv]->disk_status(disk.lun[pdrv]);
 80007e2:	79fb      	ldrb	r3, [r7, #7]
 80007e4:	4a08      	ldr	r2, [pc, #32]	; (8000808 <disk_status+0x30>)
 80007e6:	009b      	lsls	r3, r3, #2
 80007e8:	4413      	add	r3, r2
 80007ea:	685b      	ldr	r3, [r3, #4]
 80007ec:	685b      	ldr	r3, [r3, #4]
 80007ee:	79fa      	ldrb	r2, [r7, #7]
 80007f0:	4905      	ldr	r1, [pc, #20]	; (8000808 <disk_status+0x30>)
 80007f2:	440a      	add	r2, r1
 80007f4:	7a12      	ldrb	r2, [r2, #8]
 80007f6:	4610      	mov	r0, r2
 80007f8:	4798      	blx	r3
 80007fa:	4603      	mov	r3, r0
 80007fc:	73fb      	strb	r3, [r7, #15]
  return stat;
 80007fe:	7bfb      	ldrb	r3, [r7, #15]
}
 8000800:	4618      	mov	r0, r3
 8000802:	3710      	adds	r7, #16
 8000804:	46bd      	mov	sp, r7
 8000806:	bd80      	pop	{r7, pc}
 8000808:	20000520 	.word	0x20000520

0800080c <disk_initialize>:
  * @retval DSTATUS: Operation status
  */
DSTATUS disk_initialize (
	BYTE pdrv				/* Physical drive nmuber to identify the drive */
)
{
 800080c:	b580      	push	{r7, lr}
 800080e:	b084      	sub	sp, #16
 8000810:	af00      	add	r7, sp, #0
 8000812:	4603      	mov	r3, r0
 8000814:	71fb      	strb	r3, [r7, #7]
  DSTATUS stat = RES_OK;
 8000816:	2300      	movs	r3, #0
 8000818:	73fb      	strb	r3, [r7, #15]
  
  if(disk.is_initialized[pdrv] == 0)
 800081a:	79fb      	ldrb	r3, [r7, #7]
 800081c:	4a0d      	ldr	r2, [pc, #52]	; (8000854 <disk_initialize+0x48>)
 800081e:	5cd3      	ldrb	r3, [r2, r3]
 8000820:	2b00      	cmp	r3, #0
 8000822:	d111      	bne.n	8000848 <disk_initialize+0x3c>
  { 
    disk.is_initialized[pdrv] = 1;
 8000824:	79fb      	ldrb	r3, [r7, #7]
 8000826:	4a0b      	ldr	r2, [pc, #44]	; (8000854 <disk_initialize+0x48>)
 8000828:	2101      	movs	r1, #1
 800082a:	54d1      	strb	r1, [r2, r3]
    stat = disk.drv[pdrv]->disk_initialize(disk.lun[pdrv]);
 800082c:	79fb      	ldrb	r3, [r7, #7]
 800082e:	4a09      	ldr	r2, [pc, #36]	; (8000854 <disk_initialize+0x48>)
 8000830:	009b      	lsls	r3, r3, #2
 8000832:	4413      	add	r3, r2
 8000834:	685b      	ldr	r3, [r3, #4]
 8000836:	681b      	ldr	r3, [r3, #0]
 8000838:	79fa      	ldrb	r2, [r7, #7]
 800083a:	4906      	ldr	r1, [pc, #24]	; (8000854 <disk_initialize+0x48>)
 800083c:	440a      	add	r2, r1
 800083e:	7a12      	ldrb	r2, [r2, #8]
 8000840:	4610      	mov	r0, r2
 8000842:	4798      	blx	r3
 8000844:	4603      	mov	r3, r0
 8000846:	73fb      	strb	r3, [r7, #15]
  }
  return stat;
 8000848:	7bfb      	ldrb	r3, [r7, #15]
}
 800084a:	4618      	mov	r0, r3
 800084c:	3710      	adds	r7, #16
 800084e:	46bd      	mov	sp, r7
 8000850:	bd80      	pop	{r7, pc}
 8000852:	bf00      	nop
 8000854:	20000520 	.word	0x20000520

08000858 <disk_read>:
	BYTE pdrv,		/* Physical drive nmuber to identify the drive */
	BYTE *buff,		/* Data buffer to store read data */
	DWORD sector,	        /* Sector address in LBA */
	UINT count		/* Number of sectors to read */
)
{
 8000858:	b590      	push	{r4, r7, lr}
 800085a:	b087      	sub	sp, #28
 800085c:	af00      	add	r7, sp, #0
 800085e:	60b9      	str	r1, [r7, #8]
 8000860:	607a      	str	r2, [r7, #4]
 8000862:	603b      	str	r3, [r7, #0]
 8000864:	4603      	mov	r3, r0
 8000866:	73fb      	strb	r3, [r7, #15]
  DRESULT res;
 
  res = disk.drv[pdrv]->disk_read(disk.lun[pdrv], buff, sector, count);
 8000868:	7bfb      	ldrb	r3, [r7, #15]
 800086a:	4a0a      	ldr	r2, [pc, #40]	; (8000894 <disk_read+0x3c>)
 800086c:	009b      	lsls	r3, r3, #2
 800086e:	4413      	add	r3, r2
 8000870:	685b      	ldr	r3, [r3, #4]
 8000872:	689c      	ldr	r4, [r3, #8]
 8000874:	7bfb      	ldrb	r3, [r7, #15]
 8000876:	4a07      	ldr	r2, [pc, #28]	; (8000894 <disk_read+0x3c>)
 8000878:	4413      	add	r3, r2
 800087a:	7a18      	ldrb	r0, [r3, #8]
 800087c:	683b      	ldr	r3, [r7, #0]
 800087e:	687a      	ldr	r2, [r7, #4]
 8000880:	68b9      	ldr	r1, [r7, #8]
 8000882:	47a0      	blx	r4
 8000884:	4603      	mov	r3, r0
 8000886:	75fb      	strb	r3, [r7, #23]
  return res;
 8000888:	7dfb      	ldrb	r3, [r7, #23]
}
 800088a:	4618      	mov	r0, r3
 800088c:	371c      	adds	r7, #28
 800088e:	46bd      	mov	sp, r7
 8000890:	bd90      	pop	{r4, r7, pc}
 8000892:	bf00      	nop
 8000894:	20000520 	.word	0x20000520

08000898 <disk_write>:
	BYTE pdrv,		/* Physical drive nmuber to identify the drive */
	const BYTE *buff,	/* Data to be written */
	DWORD sector,		/* Sector address in LBA */
	UINT count        	/* Number of sectors to write */
)
{
 8000898:	b590      	push	{r4, r7, lr}
 800089a:	b087      	sub	sp, #28
 800089c:	af00      	add	r7, sp, #0
 800089e:	60b9      	str	r1, [r7, #8]
 80008a0:	607a      	str	r2, [r7, #4]
 80008a2:	603b      	str	r3, [r7, #0]
 80008a4:	4603      	mov	r3, r0
 80008a6:	73fb      	strb	r3, [r7, #15]
  DRESULT res;
  
  res = disk.drv[pdrv]->disk_write(disk.lun[pdrv], buff, sector, count);
 80008a8:	7bfb      	ldrb	r3, [r7, #15]
 80008aa:	4a0a      	ldr	r2, [pc, #40]	; (80008d4 <disk_write+0x3c>)
 80008ac:	009b      	lsls	r3, r3, #2
 80008ae:	4413      	add	r3, r2
 80008b0:	685b      	ldr	r3, [r3, #4]
 80008b2:	68dc      	ldr	r4, [r3, #12]
 80008b4:	7bfb      	ldrb	r3, [r7, #15]
 80008b6:	4a07      	ldr	r2, [pc, #28]	; (80008d4 <disk_write+0x3c>)
 80008b8:	4413      	add	r3, r2
 80008ba:	7a18      	ldrb	r0, [r3, #8]
 80008bc:	683b      	ldr	r3, [r7, #0]
 80008be:	687a      	ldr	r2, [r7, #4]
 80008c0:	68b9      	ldr	r1, [r7, #8]
 80008c2:	47a0      	blx	r4
 80008c4:	4603      	mov	r3, r0
 80008c6:	75fb      	strb	r3, [r7, #23]
  return res;
 80008c8:	7dfb      	ldrb	r3, [r7, #23]
}
 80008ca:	4618      	mov	r0, r3
 80008cc:	371c      	adds	r7, #28
 80008ce:	46bd      	mov	sp, r7
 80008d0:	bd90      	pop	{r4, r7, pc}
 80008d2:	bf00      	nop
 80008d4:	20000520 	.word	0x20000520

080008d8 <MX_FATFS_Init>:
/* USER CODE BEGIN Variables */

/* USER CODE END Variables */

void MX_FATFS_Init(void)
{
 80008d8:	b580      	push	{r7, lr}
 80008da:	b0c0      	sub	sp, #256	; 0x100
 80008dc:	af00      	add	r7, sp, #0
    /*## FatFS: Link the USER driver ###########################*/
    retUSER = FATFS_LinkDriver(&USER_Driver, USERPath);
 80008de:	4912      	ldr	r1, [pc, #72]	; (8000928 <MX_FATFS_Init+0x50>)
 80008e0:	4812      	ldr	r0, [pc, #72]	; (800092c <MX_FATFS_Init+0x54>)
 80008e2:	f000 fdd7 	bl	8001494 <FATFS_LinkDriver>
 80008e6:	4603      	mov	r3, r0
 80008e8:	461a      	mov	r2, r3
 80008ea:	4b11      	ldr	r3, [pc, #68]	; (8000930 <MX_FATFS_Init+0x58>)
 80008ec:	701a      	strb	r2, [r3, #0]

    /* USER CODE BEGIN Init */
    char buf[256];
    sprintf(buf, "# FatFs Init %s!\r\n", retUSER == 0 ? "Successfully" : "Failed");
 80008ee:	4b10      	ldr	r3, [pc, #64]	; (8000930 <MX_FATFS_Init+0x58>)
 80008f0:	781b      	ldrb	r3, [r3, #0]
 80008f2:	2b00      	cmp	r3, #0
 80008f4:	d101      	bne.n	80008fa <MX_FATFS_Init+0x22>
 80008f6:	4a0f      	ldr	r2, [pc, #60]	; (8000934 <MX_FATFS_Init+0x5c>)
 80008f8:	e000      	b.n	80008fc <MX_FATFS_Init+0x24>
 80008fa:	4a0f      	ldr	r2, [pc, #60]	; (8000938 <MX_FATFS_Init+0x60>)
 80008fc:	463b      	mov	r3, r7
 80008fe:	490f      	ldr	r1, [pc, #60]	; (800093c <MX_FATFS_Init+0x64>)
 8000900:	4618      	mov	r0, r3
 8000902:	f007 fb0b 	bl	8007f1c <siprintf>
    HAL_UART_Transmit(&huart2, (uint8_t*) buf, strlen(buf), 0xffff);
 8000906:	463b      	mov	r3, r7
 8000908:	4618      	mov	r0, r3
 800090a:	f7ff fc61 	bl	80001d0 <strlen>
 800090e:	4603      	mov	r3, r0
 8000910:	b29a      	uxth	r2, r3
 8000912:	4639      	mov	r1, r7
 8000914:	f64f 73ff 	movw	r3, #65535	; 0xffff
 8000918:	4809      	ldr	r0, [pc, #36]	; (8000940 <MX_FATFS_Init+0x68>)
 800091a:	f004 fc2c 	bl	8005176 <HAL_UART_Transmit>
    /* USER CODE END Init */
}
 800091e:	bf00      	nop
 8000920:	f507 7780 	add.w	r7, r7, #256	; 0x100
 8000924:	46bd      	mov	sp, r7
 8000926:	bd80      	pop	{r7, pc}
 8000928:	200002d4 	.word	0x200002d4
 800092c:	2000002c 	.word	0x2000002c
 8000930:	200002d2 	.word	0x200002d2
 8000934:	080087f4 	.word	0x080087f4
 8000938:	08008804 	.word	0x08008804
 800093c:	0800880c 	.word	0x0800880c
 8000940:	200005d8 	.word	0x200005d8

08000944 <ld_word>:
/* Load/Store multi-byte word in the FAT structure                       */
/*-----------------------------------------------------------------------*/

static
WORD ld_word (const BYTE* ptr)	/*	 Load a 2-byte little-endian word */
{
 8000944:	b480      	push	{r7}
 8000946:	b085      	sub	sp, #20
 8000948:	af00      	add	r7, sp, #0
 800094a:	6078      	str	r0, [r7, #4]
	WORD rv;

	rv = ptr[1];
 800094c:	687b      	ldr	r3, [r7, #4]
 800094e:	3301      	adds	r3, #1
 8000950:	781b      	ldrb	r3, [r3, #0]
 8000952:	81fb      	strh	r3, [r7, #14]
	rv = rv << 8 | ptr[0];
 8000954:	89fb      	ldrh	r3, [r7, #14]
 8000956:	021b      	lsls	r3, r3, #8
 8000958:	b21a      	sxth	r2, r3
 800095a:	687b      	ldr	r3, [r7, #4]
 800095c:	781b      	ldrb	r3, [r3, #0]
 800095e:	b21b      	sxth	r3, r3
 8000960:	4313      	orrs	r3, r2
 8000962:	b21b      	sxth	r3, r3
 8000964:	81fb      	strh	r3, [r7, #14]
	return rv;
 8000966:	89fb      	ldrh	r3, [r7, #14]
}
 8000968:	4618      	mov	r0, r3
 800096a:	3714      	adds	r7, #20
 800096c:	46bd      	mov	sp, r7
 800096e:	f85d 7b04 	ldr.w	r7, [sp], #4
 8000972:	4770      	bx	lr

08000974 <ld_dword>:

static
DWORD ld_dword (const BYTE* ptr)	/* Load a 4-byte little-endian word */
{
 8000974:	b480      	push	{r7}
 8000976:	b085      	sub	sp, #20
 8000978:	af00      	add	r7, sp, #0
 800097a:	6078      	str	r0, [r7, #4]
	DWORD rv;

	rv = ptr[3];
 800097c:	687b      	ldr	r3, [r7, #4]
 800097e:	3303      	adds	r3, #3
 8000980:	781b      	ldrb	r3, [r3, #0]
 8000982:	60fb      	str	r3, [r7, #12]
	rv = rv << 8 | ptr[2];
 8000984:	68fb      	ldr	r3, [r7, #12]
 8000986:	021b      	lsls	r3, r3, #8
 8000988:	687a      	ldr	r2, [r7, #4]
 800098a:	3202      	adds	r2, #2
 800098c:	7812      	ldrb	r2, [r2, #0]
 800098e:	4313      	orrs	r3, r2
 8000990:	60fb      	str	r3, [r7, #12]
	rv = rv << 8 | ptr[1];
 8000992:	68fb      	ldr	r3, [r7, #12]
 8000994:	021b      	lsls	r3, r3, #8
 8000996:	687a      	ldr	r2, [r7, #4]
 8000998:	3201      	adds	r2, #1
 800099a:	7812      	ldrb	r2, [r2, #0]
 800099c:	4313      	orrs	r3, r2
 800099e:	60fb      	str	r3, [r7, #12]
	rv = rv << 8 | ptr[0];
 80009a0:	68fb      	ldr	r3, [r7, #12]
 80009a2:	021b      	lsls	r3, r3, #8
 80009a4:	687a      	ldr	r2, [r7, #4]
 80009a6:	7812      	ldrb	r2, [r2, #0]
 80009a8:	4313      	orrs	r3, r2
 80009aa:	60fb      	str	r3, [r7, #12]
	return rv;
 80009ac:	68fb      	ldr	r3, [r7, #12]
}
 80009ae:	4618      	mov	r0, r3
 80009b0:	3714      	adds	r7, #20
 80009b2:	46bd      	mov	sp, r7
 80009b4:	f85d 7b04 	ldr.w	r7, [sp], #4
 80009b8:	4770      	bx	lr
	...

080009bc <clear_lock>:

static
void clear_lock (	/* Clear lock entries of the volume */
	FATFS *fs
)
{
 80009bc:	b480      	push	{r7}
 80009be:	b085      	sub	sp, #20
 80009c0:	af00      	add	r7, sp, #0
 80009c2:	6078      	str	r0, [r7, #4]
	UINT i;

	for (i = 0; i < _FS_LOCK; i++) {
 80009c4:	2300      	movs	r3, #0
 80009c6:	60fb      	str	r3, [r7, #12]
 80009c8:	e010      	b.n	80009ec <clear_lock+0x30>
		if (Files[i].fs == fs) Files[i].fs = 0;
 80009ca:	4a0d      	ldr	r2, [pc, #52]	; (8000a00 <clear_lock+0x44>)
 80009cc:	68fb      	ldr	r3, [r7, #12]
 80009ce:	011b      	lsls	r3, r3, #4
 80009d0:	4413      	add	r3, r2
 80009d2:	681b      	ldr	r3, [r3, #0]
 80009d4:	687a      	ldr	r2, [r7, #4]
 80009d6:	429a      	cmp	r2, r3
 80009d8:	d105      	bne.n	80009e6 <clear_lock+0x2a>
 80009da:	4a09      	ldr	r2, [pc, #36]	; (8000a00 <clear_lock+0x44>)
 80009dc:	68fb      	ldr	r3, [r7, #12]
 80009de:	011b      	lsls	r3, r3, #4
 80009e0:	4413      	add	r3, r2
 80009e2:	2200      	movs	r2, #0
 80009e4:	601a      	str	r2, [r3, #0]
	for (i = 0; i < _FS_LOCK; i++) {
 80009e6:	68fb      	ldr	r3, [r7, #12]
 80009e8:	3301      	adds	r3, #1
 80009ea:	60fb      	str	r3, [r7, #12]
 80009ec:	68fb      	ldr	r3, [r7, #12]
 80009ee:	2b00      	cmp	r3, #0
 80009f0:	d0eb      	beq.n	80009ca <clear_lock+0xe>
	}
}
 80009f2:	bf00      	nop
 80009f4:	bf00      	nop
 80009f6:	3714      	adds	r7, #20
 80009f8:	46bd      	mov	sp, r7
 80009fa:	f85d 7b04 	ldr.w	r7, [sp], #4
 80009fe:	4770      	bx	lr
 8000a00:	20000510 	.word	0x20000510

08000a04 <sync_window>:
#if !_FS_READONLY
static
FRESULT sync_window (	/* Returns FR_OK or FR_DISK_ERROR */
	FATFS* fs			/* File system object */
)
{
 8000a04:	b580      	push	{r7, lr}
 8000a06:	b086      	sub	sp, #24
 8000a08:	af00      	add	r7, sp, #0
 8000a0a:	6078      	str	r0, [r7, #4]
	DWORD wsect;
	UINT nf;
	FRESULT res = FR_OK;
 8000a0c:	2300      	movs	r3, #0
 8000a0e:	73fb      	strb	r3, [r7, #15]


	if (fs->wflag) {	/* Write back the sector if it is dirty */
 8000a10:	687b      	ldr	r3, [r7, #4]
 8000a12:	78db      	ldrb	r3, [r3, #3]
 8000a14:	2b00      	cmp	r3, #0
 8000a16:	d034      	beq.n	8000a82 <sync_window+0x7e>
		wsect = fs->winsect;	/* Current sector number */
 8000a18:	687b      	ldr	r3, [r7, #4]
 8000a1a:	6adb      	ldr	r3, [r3, #44]	; 0x2c
 8000a1c:	617b      	str	r3, [r7, #20]
		if (disk_write(fs->drv, fs->win, wsect, 1) != RES_OK) {
 8000a1e:	687b      	ldr	r3, [r7, #4]
 8000a20:	7858      	ldrb	r0, [r3, #1]
 8000a22:	687b      	ldr	r3, [r7, #4]
 8000a24:	f103 0130 	add.w	r1, r3, #48	; 0x30
 8000a28:	2301      	movs	r3, #1
 8000a2a:	697a      	ldr	r2, [r7, #20]
 8000a2c:	f7ff ff34 	bl	8000898 <disk_write>
 8000a30:	4603      	mov	r3, r0
 8000a32:	2b00      	cmp	r3, #0
 8000a34:	d002      	beq.n	8000a3c <sync_window+0x38>
			res = FR_DISK_ERR;
 8000a36:	2301      	movs	r3, #1
 8000a38:	73fb      	strb	r3, [r7, #15]
 8000a3a:	e022      	b.n	8000a82 <sync_window+0x7e>
		} else {
			fs->wflag = 0;
 8000a3c:	687b      	ldr	r3, [r7, #4]
 8000a3e:	2200      	movs	r2, #0
 8000a40:	70da      	strb	r2, [r3, #3]
			if (wsect - fs->fatbase < fs->fsize) {		/* Is it in the FAT area? */
 8000a42:	687b      	ldr	r3, [r7, #4]
 8000a44:	6a1b      	ldr	r3, [r3, #32]
 8000a46:	697a      	ldr	r2, [r7, #20]
 8000a48:	1ad2      	subs	r2, r2, r3
 8000a4a:	687b      	ldr	r3, [r7, #4]
 8000a4c:	699b      	ldr	r3, [r3, #24]
 8000a4e:	429a      	cmp	r2, r3
 8000a50:	d217      	bcs.n	8000a82 <sync_window+0x7e>
				for (nf = fs->n_fats; nf >= 2; nf--) {	/* Reflect the change to all FAT copies */
 8000a52:	687b      	ldr	r3, [r7, #4]
 8000a54:	789b      	ldrb	r3, [r3, #2]
 8000a56:	613b      	str	r3, [r7, #16]
 8000a58:	e010      	b.n	8000a7c <sync_window+0x78>
					wsect += fs->fsize;
 8000a5a:	687b      	ldr	r3, [r7, #4]
 8000a5c:	699b      	ldr	r3, [r3, #24]
 8000a5e:	697a      	ldr	r2, [r7, #20]
 8000a60:	4413      	add	r3, r2
 8000a62:	617b      	str	r3, [r7, #20]
					disk_write(fs->drv, fs->win, wsect, 1);
 8000a64:	687b      	ldr	r3, [r7, #4]
 8000a66:	7858      	ldrb	r0, [r3, #1]
 8000a68:	687b      	ldr	r3, [r7, #4]
 8000a6a:	f103 0130 	add.w	r1, r3, #48	; 0x30
 8000a6e:	2301      	movs	r3, #1
 8000a70:	697a      	ldr	r2, [r7, #20]
 8000a72:	f7ff ff11 	bl	8000898 <disk_write>
				for (nf = fs->n_fats; nf >= 2; nf--) {	/* Reflect the change to all FAT copies */
 8000a76:	693b      	ldr	r3, [r7, #16]
 8000a78:	3b01      	subs	r3, #1
 8000a7a:	613b      	str	r3, [r7, #16]
 8000a7c:	693b      	ldr	r3, [r7, #16]
 8000a7e:	2b01      	cmp	r3, #1
 8000a80:	d8eb      	bhi.n	8000a5a <sync_window+0x56>
				}
			}
		}
	}
	return res;
 8000a82:	7bfb      	ldrb	r3, [r7, #15]
}
 8000a84:	4618      	mov	r0, r3
 8000a86:	3718      	adds	r7, #24
 8000a88:	46bd      	mov	sp, r7
 8000a8a:	bd80      	pop	{r7, pc}

08000a8c <move_window>:
static
FRESULT move_window (	/* Returns FR_OK or FR_DISK_ERROR */
	FATFS* fs,			/* File system object */
	DWORD sector		/* Sector number to make appearance in the fs->win[] */
)
{
 8000a8c:	b580      	push	{r7, lr}
 8000a8e:	b084      	sub	sp, #16
 8000a90:	af00      	add	r7, sp, #0
 8000a92:	6078      	str	r0, [r7, #4]
 8000a94:	6039      	str	r1, [r7, #0]
	FRESULT res = FR_OK;
 8000a96:	2300      	movs	r3, #0
 8000a98:	73fb      	strb	r3, [r7, #15]


	if (sector != fs->winsect) {	/* Window offset changed? */
 8000a9a:	687b      	ldr	r3, [r7, #4]
 8000a9c:	6adb      	ldr	r3, [r3, #44]	; 0x2c
 8000a9e:	683a      	ldr	r2, [r7, #0]
 8000aa0:	429a      	cmp	r2, r3
 8000aa2:	d01b      	beq.n	8000adc <move_window+0x50>
#if !_FS_READONLY
		res = sync_window(fs);		/* Write-back changes */
 8000aa4:	6878      	ldr	r0, [r7, #4]
 8000aa6:	f7ff ffad 	bl	8000a04 <sync_window>
 8000aaa:	4603      	mov	r3, r0
 8000aac:	73fb      	strb	r3, [r7, #15]
#endif
		if (res == FR_OK) {			/* Fill sector window with new data */
 8000aae:	7bfb      	ldrb	r3, [r7, #15]
 8000ab0:	2b00      	cmp	r3, #0
 8000ab2:	d113      	bne.n	8000adc <move_window+0x50>
			if (disk_read(fs->drv, fs->win, sector, 1) != RES_OK) {
 8000ab4:	687b      	ldr	r3, [r7, #4]
 8000ab6:	7858      	ldrb	r0, [r3, #1]
 8000ab8:	687b      	ldr	r3, [r7, #4]
 8000aba:	f103 0130 	add.w	r1, r3, #48	; 0x30
 8000abe:	2301      	movs	r3, #1
 8000ac0:	683a      	ldr	r2, [r7, #0]
 8000ac2:	f7ff fec9 	bl	8000858 <disk_read>
 8000ac6:	4603      	mov	r3, r0
 8000ac8:	2b00      	cmp	r3, #0
 8000aca:	d004      	beq.n	8000ad6 <move_window+0x4a>
				sector = 0xFFFFFFFF;	/* Invalidate window if data is not reliable */
 8000acc:	f04f 33ff 	mov.w	r3, #4294967295	; 0xffffffff
 8000ad0:	603b      	str	r3, [r7, #0]
				res = FR_DISK_ERR;
 8000ad2:	2301      	movs	r3, #1
 8000ad4:	73fb      	strb	r3, [r7, #15]
			}
			fs->winsect = sector;
 8000ad6:	687b      	ldr	r3, [r7, #4]
 8000ad8:	683a      	ldr	r2, [r7, #0]
 8000ada:	62da      	str	r2, [r3, #44]	; 0x2c
		}
	}
	return res;
 8000adc:	7bfb      	ldrb	r3, [r7, #15]
}
 8000ade:	4618      	mov	r0, r3
 8000ae0:	3710      	adds	r7, #16
 8000ae2:	46bd      	mov	sp, r7
 8000ae4:	bd80      	pop	{r7, pc}

08000ae6 <get_fat>:
static
DWORD get_fat (	/* 0xFFFFFFFF:Disk error, 1:Internal error, 2..0x7FFFFFFF:Cluster status */
	_FDID* obj,	/* Corresponding object */
	DWORD clst	/* Cluster number to get the value */
)
{
 8000ae6:	b580      	push	{r7, lr}
 8000ae8:	b086      	sub	sp, #24
 8000aea:	af00      	add	r7, sp, #0
 8000aec:	6078      	str	r0, [r7, #4]
 8000aee:	6039      	str	r1, [r7, #0]
	UINT wc, bc;
	DWORD val;
	FATFS *fs = obj->fs;
 8000af0:	687b      	ldr	r3, [r7, #4]
 8000af2:	681b      	ldr	r3, [r3, #0]
 8000af4:	613b      	str	r3, [r7, #16]


	if (clst < 2 || clst >= fs->n_fatent) {	/* Check if in valid range */
 8000af6:	683b      	ldr	r3, [r7, #0]
 8000af8:	2b01      	cmp	r3, #1
 8000afa:	d904      	bls.n	8000b06 <get_fat+0x20>
 8000afc:	693b      	ldr	r3, [r7, #16]
 8000afe:	695b      	ldr	r3, [r3, #20]
 8000b00:	683a      	ldr	r2, [r7, #0]
 8000b02:	429a      	cmp	r2, r3
 8000b04:	d302      	bcc.n	8000b0c <get_fat+0x26>
		val = 1;	/* Internal error */
 8000b06:	2301      	movs	r3, #1
 8000b08:	617b      	str	r3, [r7, #20]
 8000b0a:	e08f      	b.n	8000c2c <get_fat+0x146>

	} else {
		val = 0xFFFFFFFF;	/* Default value falls on disk error */
 8000b0c:	f04f 33ff 	mov.w	r3, #4294967295	; 0xffffffff
 8000b10:	617b      	str	r3, [r7, #20]

		switch (fs->fs_type) {
 8000b12:	693b      	ldr	r3, [r7, #16]
 8000b14:	781b      	ldrb	r3, [r3, #0]
 8000b16:	2b03      	cmp	r3, #3
 8000b18:	d062      	beq.n	8000be0 <get_fat+0xfa>
 8000b1a:	2b03      	cmp	r3, #3
 8000b1c:	dc7c      	bgt.n	8000c18 <get_fat+0x132>
 8000b1e:	2b01      	cmp	r3, #1
 8000b20:	d002      	beq.n	8000b28 <get_fat+0x42>
 8000b22:	2b02      	cmp	r3, #2
 8000b24:	d042      	beq.n	8000bac <get_fat+0xc6>
 8000b26:	e077      	b.n	8000c18 <get_fat+0x132>
		case FS_FAT12 :
			bc = (UINT)clst; bc += bc / 2;
 8000b28:	683b      	ldr	r3, [r7, #0]
 8000b2a:	60fb      	str	r3, [r7, #12]
 8000b2c:	68fb      	ldr	r3, [r7, #12]
 8000b2e:	085b      	lsrs	r3, r3, #1
 8000b30:	68fa      	ldr	r2, [r7, #12]
 8000b32:	4413      	add	r3, r2
 8000b34:	60fb      	str	r3, [r7, #12]
			if (move_window(fs, fs->fatbase + (bc / SS(fs))) != FR_OK) break;
 8000b36:	693b      	ldr	r3, [r7, #16]
 8000b38:	6a1a      	ldr	r2, [r3, #32]
 8000b3a:	68fb      	ldr	r3, [r7, #12]
 8000b3c:	0a5b      	lsrs	r3, r3, #9
 8000b3e:	4413      	add	r3, r2
 8000b40:	4619      	mov	r1, r3
 8000b42:	6938      	ldr	r0, [r7, #16]
 8000b44:	f7ff ffa2 	bl	8000a8c <move_window>
 8000b48:	4603      	mov	r3, r0
 8000b4a:	2b00      	cmp	r3, #0
 8000b4c:	d167      	bne.n	8000c1e <get_fat+0x138>
			wc = fs->win[bc++ % SS(fs)];
 8000b4e:	68fb      	ldr	r3, [r7, #12]
 8000b50:	1c5a      	adds	r2, r3, #1
 8000b52:	60fa      	str	r2, [r7, #12]
 8000b54:	f3c3 0308 	ubfx	r3, r3, #0, #9
 8000b58:	693a      	ldr	r2, [r7, #16]
 8000b5a:	4413      	add	r3, r2
 8000b5c:	f893 3030 	ldrb.w	r3, [r3, #48]	; 0x30
 8000b60:	60bb      	str	r3, [r7, #8]
			if (move_window(fs, fs->fatbase + (bc / SS(fs))) != FR_OK) break;
 8000b62:	693b      	ldr	r3, [r7, #16]
 8000b64:	6a1a      	ldr	r2, [r3, #32]
 8000b66:	68fb      	ldr	r3, [r7, #12]
 8000b68:	0a5b      	lsrs	r3, r3, #9
 8000b6a:	4413      	add	r3, r2
 8000b6c:	4619      	mov	r1, r3
 8000b6e:	6938      	ldr	r0, [r7, #16]
 8000b70:	f7ff ff8c 	bl	8000a8c <move_window>
 8000b74:	4603      	mov	r3, r0
 8000b76:	2b00      	cmp	r3, #0
 8000b78:	d153      	bne.n	8000c22 <get_fat+0x13c>
			wc |= fs->win[bc % SS(fs)] << 8;
 8000b7a:	68fb      	ldr	r3, [r7, #12]
 8000b7c:	f3c3 0308 	ubfx	r3, r3, #0, #9
 8000b80:	693a      	ldr	r2, [r7, #16]
 8000b82:	4413      	add	r3, r2
 8000b84:	f893 3030 	ldrb.w	r3, [r3, #48]	; 0x30
 8000b88:	021b      	lsls	r3, r3, #8
 8000b8a:	461a      	mov	r2, r3
 8000b8c:	68bb      	ldr	r3, [r7, #8]
 8000b8e:	4313      	orrs	r3, r2
 8000b90:	60bb      	str	r3, [r7, #8]
			val = (clst & 1) ? (wc >> 4) : (wc & 0xFFF);
 8000b92:	683b      	ldr	r3, [r7, #0]
 8000b94:	f003 0301 	and.w	r3, r3, #1
 8000b98:	2b00      	cmp	r3, #0
 8000b9a:	d002      	beq.n	8000ba2 <get_fat+0xbc>
 8000b9c:	68bb      	ldr	r3, [r7, #8]
 8000b9e:	091b      	lsrs	r3, r3, #4
 8000ba0:	e002      	b.n	8000ba8 <get_fat+0xc2>
 8000ba2:	68bb      	ldr	r3, [r7, #8]
 8000ba4:	f3c3 030b 	ubfx	r3, r3, #0, #12
 8000ba8:	617b      	str	r3, [r7, #20]
			break;
 8000baa:	e03f      	b.n	8000c2c <get_fat+0x146>

		case FS_FAT16 :
			if (move_window(fs, fs->fatbase + (clst / (SS(fs) / 2))) != FR_OK) break;
 8000bac:	693b      	ldr	r3, [r7, #16]
 8000bae:	6a1a      	ldr	r2, [r3, #32]
 8000bb0:	683b      	ldr	r3, [r7, #0]
 8000bb2:	0a1b      	lsrs	r3, r3, #8
 8000bb4:	4413      	add	r3, r2
 8000bb6:	4619      	mov	r1, r3
 8000bb8:	6938      	ldr	r0, [r7, #16]
 8000bba:	f7ff ff67 	bl	8000a8c <move_window>
 8000bbe:	4603      	mov	r3, r0
 8000bc0:	2b00      	cmp	r3, #0
 8000bc2:	d130      	bne.n	8000c26 <get_fat+0x140>
			val = ld_word(fs->win + clst * 2 % SS(fs));
 8000bc4:	693b      	ldr	r3, [r7, #16]
 8000bc6:	f103 0230 	add.w	r2, r3, #48	; 0x30
 8000bca:	683b      	ldr	r3, [r7, #0]
 8000bcc:	005b      	lsls	r3, r3, #1
 8000bce:	f403 73ff 	and.w	r3, r3, #510	; 0x1fe
 8000bd2:	4413      	add	r3, r2
 8000bd4:	4618      	mov	r0, r3
 8000bd6:	f7ff feb5 	bl	8000944 <ld_word>
 8000bda:	4603      	mov	r3, r0
 8000bdc:	617b      	str	r3, [r7, #20]
			break;
 8000bde:	e025      	b.n	8000c2c <get_fat+0x146>

		case FS_FAT32 :
			if (move_window(fs, fs->fatbase + (clst / (SS(fs) / 4))) != FR_OK) break;
 8000be0:	693b      	ldr	r3, [r7, #16]
 8000be2:	6a1a      	ldr	r2, [r3, #32]
 8000be4:	683b      	ldr	r3, [r7, #0]
 8000be6:	09db      	lsrs	r3, r3, #7
 8000be8:	4413      	add	r3, r2
 8000bea:	4619      	mov	r1, r3
 8000bec:	6938      	ldr	r0, [r7, #16]
 8000bee:	f7ff ff4d 	bl	8000a8c <move_window>
 8000bf2:	4603      	mov	r3, r0
 8000bf4:	2b00      	cmp	r3, #0
 8000bf6:	d118      	bne.n	8000c2a <get_fat+0x144>
			val = ld_dword(fs->win + clst * 4 % SS(fs)) & 0x0FFFFFFF;
 8000bf8:	693b      	ldr	r3, [r7, #16]
 8000bfa:	f103 0230 	add.w	r2, r3, #48	; 0x30
 8000bfe:	683b      	ldr	r3, [r7, #0]
 8000c00:	009b      	lsls	r3, r3, #2
 8000c02:	f403 73fe 	and.w	r3, r3, #508	; 0x1fc
 8000c06:	4413      	add	r3, r2
 8000c08:	4618      	mov	r0, r3
 8000c0a:	f7ff feb3 	bl	8000974 <ld_dword>
 8000c0e:	4603      	mov	r3, r0
 8000c10:	f023 4370 	bic.w	r3, r3, #4026531840	; 0xf0000000
 8000c14:	617b      	str	r3, [r7, #20]
			break;
 8000c16:	e009      	b.n	8000c2c <get_fat+0x146>
				}
			}
			/* go to default */
#endif
		default:
			val = 1;	/* Internal error */
 8000c18:	2301      	movs	r3, #1
 8000c1a:	617b      	str	r3, [r7, #20]
 8000c1c:	e006      	b.n	8000c2c <get_fat+0x146>
			if (move_window(fs, fs->fatbase + (bc / SS(fs))) != FR_OK) break;
 8000c1e:	bf00      	nop
 8000c20:	e004      	b.n	8000c2c <get_fat+0x146>
			if (move_window(fs, fs->fatbase + (bc / SS(fs))) != FR_OK) break;
 8000c22:	bf00      	nop
 8000c24:	e002      	b.n	8000c2c <get_fat+0x146>
			if (move_window(fs, fs->fatbase + (clst / (SS(fs) / 2))) != FR_OK) break;
 8000c26:	bf00      	nop
 8000c28:	e000      	b.n	8000c2c <get_fat+0x146>
			if (move_window(fs, fs->fatbase + (clst / (SS(fs) / 4))) != FR_OK) break;
 8000c2a:	bf00      	nop
		}
	}

	return val;
 8000c2c:	697b      	ldr	r3, [r7, #20]
}
 8000c2e:	4618      	mov	r0, r3
 8000c30:	3718      	adds	r7, #24
 8000c32:	46bd      	mov	sp, r7
 8000c34:	bd80      	pop	{r7, pc}

08000c36 <get_ldnumber>:

static
int get_ldnumber (		/* Returns logical drive number (-1:invalid drive) */
	const TCHAR** path	/* Pointer to pointer to the path name */
)
{
 8000c36:	b480      	push	{r7}
 8000c38:	b087      	sub	sp, #28
 8000c3a:	af00      	add	r7, sp, #0
 8000c3c:	6078      	str	r0, [r7, #4]
	const TCHAR *tp, *tt;
	UINT i;
	int vol = -1;
 8000c3e:	f04f 33ff 	mov.w	r3, #4294967295	; 0xffffffff
 8000c42:	613b      	str	r3, [r7, #16]
	char c;
	TCHAR tc;
#endif


	if (*path) {	/* If the pointer is not a null */
 8000c44:	687b      	ldr	r3, [r7, #4]
 8000c46:	681b      	ldr	r3, [r3, #0]
 8000c48:	2b00      	cmp	r3, #0
 8000c4a:	d031      	beq.n	8000cb0 <get_ldnumber+0x7a>
		for (tt = *path; (UINT)*tt >= (_USE_LFN ? ' ' : '!') && *tt != ':'; tt++) ;	/* Find ':' in the path */
 8000c4c:	687b      	ldr	r3, [r7, #4]
 8000c4e:	681b      	ldr	r3, [r3, #0]
 8000c50:	617b      	str	r3, [r7, #20]
 8000c52:	e002      	b.n	8000c5a <get_ldnumber+0x24>
 8000c54:	697b      	ldr	r3, [r7, #20]
 8000c56:	3301      	adds	r3, #1
 8000c58:	617b      	str	r3, [r7, #20]
 8000c5a:	697b      	ldr	r3, [r7, #20]
 8000c5c:	781b      	ldrb	r3, [r3, #0]
 8000c5e:	2b20      	cmp	r3, #32
 8000c60:	d903      	bls.n	8000c6a <get_ldnumber+0x34>
 8000c62:	697b      	ldr	r3, [r7, #20]
 8000c64:	781b      	ldrb	r3, [r3, #0]
 8000c66:	2b3a      	cmp	r3, #58	; 0x3a
 8000c68:	d1f4      	bne.n	8000c54 <get_ldnumber+0x1e>
		if (*tt == ':') {	/* If a ':' is exist in the path name */
 8000c6a:	697b      	ldr	r3, [r7, #20]
 8000c6c:	781b      	ldrb	r3, [r3, #0]
 8000c6e:	2b3a      	cmp	r3, #58	; 0x3a
 8000c70:	d11c      	bne.n	8000cac <get_ldnumber+0x76>
			tp = *path;
 8000c72:	687b      	ldr	r3, [r7, #4]
 8000c74:	681b      	ldr	r3, [r3, #0]
 8000c76:	60fb      	str	r3, [r7, #12]
			i = *tp++ - '0';
 8000c78:	68fb      	ldr	r3, [r7, #12]
 8000c7a:	1c5a      	adds	r2, r3, #1
 8000c7c:	60fa      	str	r2, [r7, #12]
 8000c7e:	781b      	ldrb	r3, [r3, #0]
 8000c80:	3b30      	subs	r3, #48	; 0x30
 8000c82:	60bb      	str	r3, [r7, #8]
			if (i < 10 && tp == tt) {	/* Is there a numeric drive id? */
 8000c84:	68bb      	ldr	r3, [r7, #8]
 8000c86:	2b09      	cmp	r3, #9
 8000c88:	d80e      	bhi.n	8000ca8 <get_ldnumber+0x72>
 8000c8a:	68fa      	ldr	r2, [r7, #12]
 8000c8c:	697b      	ldr	r3, [r7, #20]
 8000c8e:	429a      	cmp	r2, r3
 8000c90:	d10a      	bne.n	8000ca8 <get_ldnumber+0x72>
				if (i < _VOLUMES) {	/* If a drive id is found, get the value and strip it */
 8000c92:	68bb      	ldr	r3, [r7, #8]
 8000c94:	2b00      	cmp	r3, #0
 8000c96:	d107      	bne.n	8000ca8 <get_ldnumber+0x72>
					vol = (int)i;
 8000c98:	68bb      	ldr	r3, [r7, #8]
 8000c9a:	613b      	str	r3, [r7, #16]
					*path = ++tt;
 8000c9c:	697b      	ldr	r3, [r7, #20]
 8000c9e:	3301      	adds	r3, #1
 8000ca0:	617b      	str	r3, [r7, #20]
 8000ca2:	687b      	ldr	r3, [r7, #4]
 8000ca4:	697a      	ldr	r2, [r7, #20]
 8000ca6:	601a      	str	r2, [r3, #0]
					vol = (int)i;
					*path = tt;
				}
			}
#endif
			return vol;
 8000ca8:	693b      	ldr	r3, [r7, #16]
 8000caa:	e002      	b.n	8000cb2 <get_ldnumber+0x7c>
		}
#if _FS_RPATH != 0 && _VOLUMES >= 2
		vol = CurrVol;	/* Current drive */
#else
		vol = 0;		/* Drive 0 */
 8000cac:	2300      	movs	r3, #0
 8000cae:	613b      	str	r3, [r7, #16]
#endif
	}
	return vol;
 8000cb0:	693b      	ldr	r3, [r7, #16]
}
 8000cb2:	4618      	mov	r0, r3
 8000cb4:	371c      	adds	r7, #28
 8000cb6:	46bd      	mov	sp, r7
 8000cb8:	f85d 7b04 	ldr.w	r7, [sp], #4
 8000cbc:	4770      	bx	lr
	...

08000cc0 <check_fs>:
static
BYTE check_fs (	/* 0:FAT, 1:exFAT, 2:Valid BS but not FAT, 3:Not a BS, 4:Disk error */
	FATFS* fs,	/* File system object */
	DWORD sect	/* Sector# (lba) to load and check if it is an FAT-VBR or not */
)
{
 8000cc0:	b580      	push	{r7, lr}
 8000cc2:	b082      	sub	sp, #8
 8000cc4:	af00      	add	r7, sp, #0
 8000cc6:	6078      	str	r0, [r7, #4]
 8000cc8:	6039      	str	r1, [r7, #0]
	fs->wflag = 0; fs->winsect = 0xFFFFFFFF;		/* Invaidate window */
 8000cca:	687b      	ldr	r3, [r7, #4]
 8000ccc:	2200      	movs	r2, #0
 8000cce:	70da      	strb	r2, [r3, #3]
 8000cd0:	687b      	ldr	r3, [r7, #4]
 8000cd2:	f04f 32ff 	mov.w	r2, #4294967295	; 0xffffffff
 8000cd6:	62da      	str	r2, [r3, #44]	; 0x2c
	if (move_window(fs, sect) != FR_OK) return 4;	/* Load boot record */
 8000cd8:	6839      	ldr	r1, [r7, #0]
 8000cda:	6878      	ldr	r0, [r7, #4]
 8000cdc:	f7ff fed6 	bl	8000a8c <move_window>
 8000ce0:	4603      	mov	r3, r0
 8000ce2:	2b00      	cmp	r3, #0
 8000ce4:	d001      	beq.n	8000cea <check_fs+0x2a>
 8000ce6:	2304      	movs	r3, #4
 8000ce8:	e038      	b.n	8000d5c <check_fs+0x9c>

	if (ld_word(fs->win + BS_55AA) != 0xAA55) return 3;	/* Check boot record signature (always placed here even if the sector size is >512) */
 8000cea:	687b      	ldr	r3, [r7, #4]
 8000cec:	3330      	adds	r3, #48	; 0x30
 8000cee:	f503 73ff 	add.w	r3, r3, #510	; 0x1fe
 8000cf2:	4618      	mov	r0, r3
 8000cf4:	f7ff fe26 	bl	8000944 <ld_word>
 8000cf8:	4603      	mov	r3, r0
 8000cfa:	461a      	mov	r2, r3
 8000cfc:	f64a 2355 	movw	r3, #43605	; 0xaa55
 8000d00:	429a      	cmp	r2, r3
 8000d02:	d001      	beq.n	8000d08 <check_fs+0x48>
 8000d04:	2303      	movs	r3, #3
 8000d06:	e029      	b.n	8000d5c <check_fs+0x9c>

	if (fs->win[BS_JmpBoot] == 0xE9 || (fs->win[BS_JmpBoot] == 0xEB && fs->win[BS_JmpBoot + 2] == 0x90)) {
 8000d08:	687b      	ldr	r3, [r7, #4]
 8000d0a:	f893 3030 	ldrb.w	r3, [r3, #48]	; 0x30
 8000d0e:	2be9      	cmp	r3, #233	; 0xe9
 8000d10:	d009      	beq.n	8000d26 <check_fs+0x66>
 8000d12:	687b      	ldr	r3, [r7, #4]
 8000d14:	f893 3030 	ldrb.w	r3, [r3, #48]	; 0x30
 8000d18:	2beb      	cmp	r3, #235	; 0xeb
 8000d1a:	d11e      	bne.n	8000d5a <check_fs+0x9a>
 8000d1c:	687b      	ldr	r3, [r7, #4]
 8000d1e:	f893 3032 	ldrb.w	r3, [r3, #50]	; 0x32
 8000d22:	2b90      	cmp	r3, #144	; 0x90
 8000d24:	d119      	bne.n	8000d5a <check_fs+0x9a>
		if ((ld_dword(fs->win + BS_FilSysType) & 0xFFFFFF) == 0x544146) return 0;	/* Check "FAT" string */
 8000d26:	687b      	ldr	r3, [r7, #4]
 8000d28:	3330      	adds	r3, #48	; 0x30
 8000d2a:	3336      	adds	r3, #54	; 0x36
 8000d2c:	4618      	mov	r0, r3
 8000d2e:	f7ff fe21 	bl	8000974 <ld_dword>
 8000d32:	4603      	mov	r3, r0
 8000d34:	f023 437f 	bic.w	r3, r3, #4278190080	; 0xff000000
 8000d38:	4a0a      	ldr	r2, [pc, #40]	; (8000d64 <check_fs+0xa4>)
 8000d3a:	4293      	cmp	r3, r2
 8000d3c:	d101      	bne.n	8000d42 <check_fs+0x82>
 8000d3e:	2300      	movs	r3, #0
 8000d40:	e00c      	b.n	8000d5c <check_fs+0x9c>
		if (ld_dword(fs->win + BS_FilSysType32) == 0x33544146) return 0;			/* Check "FAT3" string */
 8000d42:	687b      	ldr	r3, [r7, #4]
 8000d44:	3330      	adds	r3, #48	; 0x30
 8000d46:	3352      	adds	r3, #82	; 0x52
 8000d48:	4618      	mov	r0, r3
 8000d4a:	f7ff fe13 	bl	8000974 <ld_dword>
 8000d4e:	4603      	mov	r3, r0
 8000d50:	4a05      	ldr	r2, [pc, #20]	; (8000d68 <check_fs+0xa8>)
 8000d52:	4293      	cmp	r3, r2
 8000d54:	d101      	bne.n	8000d5a <check_fs+0x9a>
 8000d56:	2300      	movs	r3, #0
 8000d58:	e000      	b.n	8000d5c <check_fs+0x9c>
	}
#if _FS_EXFAT
	if (!mem_cmp(fs->win + BS_JmpBoot, "\xEB\x76\x90" "EXFAT   ", 11)) return 1;
#endif
	return 2;
 8000d5a:	2302      	movs	r3, #2
}
 8000d5c:	4618      	mov	r0, r3
 8000d5e:	3708      	adds	r7, #8
 8000d60:	46bd      	mov	sp, r7
 8000d62:	bd80      	pop	{r7, pc}
 8000d64:	00544146 	.word	0x00544146
 8000d68:	33544146 	.word	0x33544146

08000d6c <find_volume>:
FRESULT find_volume (	/* FR_OK(0): successful, !=0: any error occurred */
	const TCHAR** path,	/* Pointer to pointer to the path name (drive number) */
	FATFS** rfs,		/* Pointer to pointer to the found file system object */
	BYTE mode			/* !=0: Check write protection for write access */
)
{
 8000d6c:	b580      	push	{r7, lr}
 8000d6e:	b096      	sub	sp, #88	; 0x58
 8000d70:	af00      	add	r7, sp, #0
 8000d72:	60f8      	str	r0, [r7, #12]
 8000d74:	60b9      	str	r1, [r7, #8]
 8000d76:	4613      	mov	r3, r2
 8000d78:	71fb      	strb	r3, [r7, #7]
	FATFS *fs;
	UINT i;


	/* Get logical drive number */
	*rfs = 0;
 8000d7a:	68bb      	ldr	r3, [r7, #8]
 8000d7c:	2200      	movs	r2, #0
 8000d7e:	601a      	str	r2, [r3, #0]
	vol = get_ldnumber(path);
 8000d80:	68f8      	ldr	r0, [r7, #12]
 8000d82:	f7ff ff58 	bl	8000c36 <get_ldnumber>
 8000d86:	63f8      	str	r0, [r7, #60]	; 0x3c
	if (vol < 0) return FR_INVALID_DRIVE;
 8000d88:	6bfb      	ldr	r3, [r7, #60]	; 0x3c
 8000d8a:	2b00      	cmp	r3, #0
 8000d8c:	da01      	bge.n	8000d92 <find_volume+0x26>
 8000d8e:	230b      	movs	r3, #11
 8000d90:	e22d      	b.n	80011ee <find_volume+0x482>

	/* Check if the file system object is valid or not */
	fs = FatFs[vol];					/* Get pointer to the file system object */
 8000d92:	4aa1      	ldr	r2, [pc, #644]	; (8001018 <find_volume+0x2ac>)
 8000d94:	6bfb      	ldr	r3, [r7, #60]	; 0x3c
 8000d96:	f852 3023 	ldr.w	r3, [r2, r3, lsl #2]
 8000d9a:	63bb      	str	r3, [r7, #56]	; 0x38
	if (!fs) return FR_NOT_ENABLED;		/* Is the file system object available? */
 8000d9c:	6bbb      	ldr	r3, [r7, #56]	; 0x38
 8000d9e:	2b00      	cmp	r3, #0
 8000da0:	d101      	bne.n	8000da6 <find_volume+0x3a>
 8000da2:	230c      	movs	r3, #12
 8000da4:	e223      	b.n	80011ee <find_volume+0x482>

	ENTER_FF(fs);						/* Lock the volume */
	*rfs = fs;							/* Return pointer to the file system object */
 8000da6:	68bb      	ldr	r3, [r7, #8]
 8000da8:	6bba      	ldr	r2, [r7, #56]	; 0x38
 8000daa:	601a      	str	r2, [r3, #0]

	mode &= (BYTE)~FA_READ;				/* Desired access mode, write access or not */
 8000dac:	79fb      	ldrb	r3, [r7, #7]
 8000dae:	f023 0301 	bic.w	r3, r3, #1
 8000db2:	71fb      	strb	r3, [r7, #7]
	if (fs->fs_type) {					/* If the volume has been mounted */
 8000db4:	6bbb      	ldr	r3, [r7, #56]	; 0x38
 8000db6:	781b      	ldrb	r3, [r3, #0]
 8000db8:	2b00      	cmp	r3, #0
 8000dba:	d01a      	beq.n	8000df2 <find_volume+0x86>
		stat = disk_status(fs->drv);
 8000dbc:	6bbb      	ldr	r3, [r7, #56]	; 0x38
 8000dbe:	785b      	ldrb	r3, [r3, #1]
 8000dc0:	4618      	mov	r0, r3
 8000dc2:	f7ff fd09 	bl	80007d8 <disk_status>
 8000dc6:	4603      	mov	r3, r0
 8000dc8:	f887 3037 	strb.w	r3, [r7, #55]	; 0x37
		if (!(stat & STA_NOINIT)) {		/* and the physical drive is kept initialized */
 8000dcc:	f897 3037 	ldrb.w	r3, [r7, #55]	; 0x37
 8000dd0:	f003 0301 	and.w	r3, r3, #1
 8000dd4:	2b00      	cmp	r3, #0
 8000dd6:	d10c      	bne.n	8000df2 <find_volume+0x86>
			if (!_FS_READONLY && mode && (stat & STA_PROTECT)) {	/* Check write protection if needed */
 8000dd8:	79fb      	ldrb	r3, [r7, #7]
 8000dda:	2b00      	cmp	r3, #0
 8000ddc:	d007      	beq.n	8000dee <find_volume+0x82>
 8000dde:	f897 3037 	ldrb.w	r3, [r7, #55]	; 0x37
 8000de2:	f003 0304 	and.w	r3, r3, #4
 8000de6:	2b00      	cmp	r3, #0
 8000de8:	d001      	beq.n	8000dee <find_volume+0x82>
				return FR_WRITE_PROTECTED;
 8000dea:	230a      	movs	r3, #10
 8000dec:	e1ff      	b.n	80011ee <find_volume+0x482>
			}
			return FR_OK;				/* The file system object is valid */
 8000dee:	2300      	movs	r3, #0
 8000df0:	e1fd      	b.n	80011ee <find_volume+0x482>
	}

	/* The file system object is not valid. */
	/* Following code attempts to mount the volume. (analyze BPB and initialize the fs object) */

	fs->fs_type = 0;					/* Clear the file system object */
 8000df2:	6bbb      	ldr	r3, [r7, #56]	; 0x38
 8000df4:	2200      	movs	r2, #0
 8000df6:	701a      	strb	r2, [r3, #0]
	fs->drv = LD2PD(vol);				/* Bind the logical drive and a physical drive */
 8000df8:	6bfb      	ldr	r3, [r7, #60]	; 0x3c
 8000dfa:	b2da      	uxtb	r2, r3
 8000dfc:	6bbb      	ldr	r3, [r7, #56]	; 0x38
 8000dfe:	705a      	strb	r2, [r3, #1]
	stat = disk_initialize(fs->drv);	/* Initialize the physical drive */
 8000e00:	6bbb      	ldr	r3, [r7, #56]	; 0x38
 8000e02:	785b      	ldrb	r3, [r3, #1]
 8000e04:	4618      	mov	r0, r3
 8000e06:	f7ff fd01 	bl	800080c <disk_initialize>
 8000e0a:	4603      	mov	r3, r0
 8000e0c:	f887 3037 	strb.w	r3, [r7, #55]	; 0x37
	if (stat & STA_NOINIT) { 			/* Check if the initialization succeeded */
 8000e10:	f897 3037 	ldrb.w	r3, [r7, #55]	; 0x37
 8000e14:	f003 0301 	and.w	r3, r3, #1
 8000e18:	2b00      	cmp	r3, #0
 8000e1a:	d001      	beq.n	8000e20 <find_volume+0xb4>
		return FR_NOT_READY;			/* Failed to initialize due to no medium or hard error */
 8000e1c:	2303      	movs	r3, #3
 8000e1e:	e1e6      	b.n	80011ee <find_volume+0x482>
	}
	if (!_FS_READONLY && mode && (stat & STA_PROTECT)) { /* Check disk write protection if needed */
 8000e20:	79fb      	ldrb	r3, [r7, #7]
 8000e22:	2b00      	cmp	r3, #0
 8000e24:	d007      	beq.n	8000e36 <find_volume+0xca>
 8000e26:	f897 3037 	ldrb.w	r3, [r7, #55]	; 0x37
 8000e2a:	f003 0304 	and.w	r3, r3, #4
 8000e2e:	2b00      	cmp	r3, #0
 8000e30:	d001      	beq.n	8000e36 <find_volume+0xca>
		return FR_WRITE_PROTECTED;
 8000e32:	230a      	movs	r3, #10
 8000e34:	e1db      	b.n	80011ee <find_volume+0x482>
	if (disk_ioctl(fs->drv, GET_SECTOR_SIZE, &SS(fs)) != RES_OK) return FR_DISK_ERR;
	if (SS(fs) > _MAX_SS || SS(fs) < _MIN_SS || (SS(fs) & (SS(fs) - 1))) return FR_DISK_ERR;
#endif

	/* Find an FAT partition on the drive. Supports only generic partitioning rules, FDISK and SFD. */
	bsect = 0;
 8000e36:	2300      	movs	r3, #0
 8000e38:	653b      	str	r3, [r7, #80]	; 0x50
	fmt = check_fs(fs, bsect);			/* Load sector 0 and check if it is an FAT-VBR as SFD */
 8000e3a:	6d39      	ldr	r1, [r7, #80]	; 0x50
 8000e3c:	6bb8      	ldr	r0, [r7, #56]	; 0x38
 8000e3e:	f7ff ff3f 	bl	8000cc0 <check_fs>
 8000e42:	4603      	mov	r3, r0
 8000e44:	f887 3057 	strb.w	r3, [r7, #87]	; 0x57
	if (fmt == 2 || (fmt < 2 && LD2PT(vol) != 0)) {	/* Not an FAT-VBR or forced partition number */
 8000e48:	f897 3057 	ldrb.w	r3, [r7, #87]	; 0x57
 8000e4c:	2b02      	cmp	r3, #2
 8000e4e:	d149      	bne.n	8000ee4 <find_volume+0x178>
		for (i = 0; i < 4; i++) {		/* Get partition offset */
 8000e50:	2300      	movs	r3, #0
 8000e52:	643b      	str	r3, [r7, #64]	; 0x40
 8000e54:	e01e      	b.n	8000e94 <find_volume+0x128>
			pt = fs->win + (MBR_Table + i * SZ_PTE);
 8000e56:	6bbb      	ldr	r3, [r7, #56]	; 0x38
 8000e58:	f103 0230 	add.w	r2, r3, #48	; 0x30
 8000e5c:	6c3b      	ldr	r3, [r7, #64]	; 0x40
 8000e5e:	011b      	lsls	r3, r3, #4
 8000e60:	f503 73df 	add.w	r3, r3, #446	; 0x1be
 8000e64:	4413      	add	r3, r2
 8000e66:	633b      	str	r3, [r7, #48]	; 0x30
			br[i] = pt[PTE_System] ? ld_dword(pt + PTE_StLba) : 0;
 8000e68:	6b3b      	ldr	r3, [r7, #48]	; 0x30
 8000e6a:	3304      	adds	r3, #4
 8000e6c:	781b      	ldrb	r3, [r3, #0]
 8000e6e:	2b00      	cmp	r3, #0
 8000e70:	d006      	beq.n	8000e80 <find_volume+0x114>
 8000e72:	6b3b      	ldr	r3, [r7, #48]	; 0x30
 8000e74:	3308      	adds	r3, #8
 8000e76:	4618      	mov	r0, r3
 8000e78:	f7ff fd7c 	bl	8000974 <ld_dword>
 8000e7c:	4602      	mov	r2, r0
 8000e7e:	e000      	b.n	8000e82 <find_volume+0x116>
 8000e80:	2200      	movs	r2, #0
 8000e82:	6c3b      	ldr	r3, [r7, #64]	; 0x40
 8000e84:	009b      	lsls	r3, r3, #2
 8000e86:	3358      	adds	r3, #88	; 0x58
 8000e88:	443b      	add	r3, r7
 8000e8a:	f843 2c44 	str.w	r2, [r3, #-68]
		for (i = 0; i < 4; i++) {		/* Get partition offset */
 8000e8e:	6c3b      	ldr	r3, [r7, #64]	; 0x40
 8000e90:	3301      	adds	r3, #1
 8000e92:	643b      	str	r3, [r7, #64]	; 0x40
 8000e94:	6c3b      	ldr	r3, [r7, #64]	; 0x40
 8000e96:	2b03      	cmp	r3, #3
 8000e98:	d9dd      	bls.n	8000e56 <find_volume+0xea>
		}
		i = LD2PT(vol);					/* Partition number: 0:auto, 1-4:forced */
 8000e9a:	2300      	movs	r3, #0
 8000e9c:	643b      	str	r3, [r7, #64]	; 0x40
		if (i) i--;
 8000e9e:	6c3b      	ldr	r3, [r7, #64]	; 0x40
 8000ea0:	2b00      	cmp	r3, #0
 8000ea2:	d002      	beq.n	8000eaa <find_volume+0x13e>
 8000ea4:	6c3b      	ldr	r3, [r7, #64]	; 0x40
 8000ea6:	3b01      	subs	r3, #1
 8000ea8:	643b      	str	r3, [r7, #64]	; 0x40
		do {							/* Find an FAT volume */
			bsect = br[i];
 8000eaa:	6c3b      	ldr	r3, [r7, #64]	; 0x40
 8000eac:	009b      	lsls	r3, r3, #2
 8000eae:	3358      	adds	r3, #88	; 0x58
 8000eb0:	443b      	add	r3, r7
 8000eb2:	f853 3c44 	ldr.w	r3, [r3, #-68]
 8000eb6:	653b      	str	r3, [r7, #80]	; 0x50
			fmt = bsect ? check_fs(fs, bsect) : 3;	/* Check the partition */
 8000eb8:	6d3b      	ldr	r3, [r7, #80]	; 0x50
 8000eba:	2b00      	cmp	r3, #0
 8000ebc:	d005      	beq.n	8000eca <find_volume+0x15e>
 8000ebe:	6d39      	ldr	r1, [r7, #80]	; 0x50
 8000ec0:	6bb8      	ldr	r0, [r7, #56]	; 0x38
 8000ec2:	f7ff fefd 	bl	8000cc0 <check_fs>
 8000ec6:	4603      	mov	r3, r0
 8000ec8:	e000      	b.n	8000ecc <find_volume+0x160>
 8000eca:	2303      	movs	r3, #3
 8000ecc:	f887 3057 	strb.w	r3, [r7, #87]	; 0x57
		} while (LD2PT(vol) == 0 && fmt >= 2 && ++i < 4);
 8000ed0:	f897 3057 	ldrb.w	r3, [r7, #87]	; 0x57
 8000ed4:	2b01      	cmp	r3, #1
 8000ed6:	d905      	bls.n	8000ee4 <find_volume+0x178>
 8000ed8:	6c3b      	ldr	r3, [r7, #64]	; 0x40
 8000eda:	3301      	adds	r3, #1
 8000edc:	643b      	str	r3, [r7, #64]	; 0x40
 8000ede:	6c3b      	ldr	r3, [r7, #64]	; 0x40
 8000ee0:	2b03      	cmp	r3, #3
 8000ee2:	d9e2      	bls.n	8000eaa <find_volume+0x13e>
	}
	if (fmt == 4) return FR_DISK_ERR;		/* An error occured in the disk I/O layer */
 8000ee4:	f897 3057 	ldrb.w	r3, [r7, #87]	; 0x57
 8000ee8:	2b04      	cmp	r3, #4
 8000eea:	d101      	bne.n	8000ef0 <find_volume+0x184>
 8000eec:	2301      	movs	r3, #1
 8000eee:	e17e      	b.n	80011ee <find_volume+0x482>
	if (fmt >= 2) return FR_NO_FILESYSTEM;	/* No FAT volume is found */
 8000ef0:	f897 3057 	ldrb.w	r3, [r7, #87]	; 0x57
 8000ef4:	2b01      	cmp	r3, #1
 8000ef6:	d901      	bls.n	8000efc <find_volume+0x190>
 8000ef8:	230d      	movs	r3, #13
 8000efa:	e178      	b.n	80011ee <find_volume+0x482>
#endif
		fmt = FS_EXFAT;			/* FAT sub-type */
	} else
#endif	/* _FS_EXFAT */
	{
		if (ld_word(fs->win + BPB_BytsPerSec) != SS(fs)) return FR_NO_FILESYSTEM;	/* (BPB_BytsPerSec must be equal to the physical sector size) */
 8000efc:	6bbb      	ldr	r3, [r7, #56]	; 0x38
 8000efe:	3330      	adds	r3, #48	; 0x30
 8000f00:	330b      	adds	r3, #11
 8000f02:	4618      	mov	r0, r3
 8000f04:	f7ff fd1e 	bl	8000944 <ld_word>
 8000f08:	4603      	mov	r3, r0
 8000f0a:	f5b3 7f00 	cmp.w	r3, #512	; 0x200
 8000f0e:	d001      	beq.n	8000f14 <find_volume+0x1a8>
 8000f10:	230d      	movs	r3, #13
 8000f12:	e16c      	b.n	80011ee <find_volume+0x482>

		fasize = ld_word(fs->win + BPB_FATSz16);		/* Number of sectors per FAT */
 8000f14:	6bbb      	ldr	r3, [r7, #56]	; 0x38
 8000f16:	3330      	adds	r3, #48	; 0x30
 8000f18:	3316      	adds	r3, #22
 8000f1a:	4618      	mov	r0, r3
 8000f1c:	f7ff fd12 	bl	8000944 <ld_word>
 8000f20:	4603      	mov	r3, r0
 8000f22:	64fb      	str	r3, [r7, #76]	; 0x4c
		if (fasize == 0) fasize = ld_dword(fs->win + BPB_FATSz32);
 8000f24:	6cfb      	ldr	r3, [r7, #76]	; 0x4c
 8000f26:	2b00      	cmp	r3, #0
 8000f28:	d106      	bne.n	8000f38 <find_volume+0x1cc>
 8000f2a:	6bbb      	ldr	r3, [r7, #56]	; 0x38
 8000f2c:	3330      	adds	r3, #48	; 0x30
 8000f2e:	3324      	adds	r3, #36	; 0x24
 8000f30:	4618      	mov	r0, r3
 8000f32:	f7ff fd1f 	bl	8000974 <ld_dword>
 8000f36:	64f8      	str	r0, [r7, #76]	; 0x4c
		fs->fsize = fasize;
 8000f38:	6bbb      	ldr	r3, [r7, #56]	; 0x38
 8000f3a:	6cfa      	ldr	r2, [r7, #76]	; 0x4c
 8000f3c:	619a      	str	r2, [r3, #24]

		fs->n_fats = fs->win[BPB_NumFATs];				/* Number of FATs */
 8000f3e:	6bbb      	ldr	r3, [r7, #56]	; 0x38
 8000f40:	f893 2040 	ldrb.w	r2, [r3, #64]	; 0x40
 8000f44:	6bbb      	ldr	r3, [r7, #56]	; 0x38
 8000f46:	709a      	strb	r2, [r3, #2]
		if (fs->n_fats != 1 && fs->n_fats != 2) return FR_NO_FILESYSTEM;	/* (Must be 1 or 2) */
 8000f48:	6bbb      	ldr	r3, [r7, #56]	; 0x38
 8000f4a:	789b      	ldrb	r3, [r3, #2]
 8000f4c:	2b01      	cmp	r3, #1
 8000f4e:	d005      	beq.n	8000f5c <find_volume+0x1f0>
 8000f50:	6bbb      	ldr	r3, [r7, #56]	; 0x38
 8000f52:	789b      	ldrb	r3, [r3, #2]
 8000f54:	2b02      	cmp	r3, #2
 8000f56:	d001      	beq.n	8000f5c <find_volume+0x1f0>
 8000f58:	230d      	movs	r3, #13
 8000f5a:	e148      	b.n	80011ee <find_volume+0x482>
		fasize *= fs->n_fats;							/* Number of sectors for FAT area */
 8000f5c:	6bbb      	ldr	r3, [r7, #56]	; 0x38
 8000f5e:	789b      	ldrb	r3, [r3, #2]
 8000f60:	461a      	mov	r2, r3
 8000f62:	6cfb      	ldr	r3, [r7, #76]	; 0x4c
 8000f64:	fb02 f303 	mul.w	r3, r2, r3
 8000f68:	64fb      	str	r3, [r7, #76]	; 0x4c

		fs->csize = fs->win[BPB_SecPerClus];			/* Cluster size */
 8000f6a:	6bbb      	ldr	r3, [r7, #56]	; 0x38
 8000f6c:	f893 303d 	ldrb.w	r3, [r3, #61]	; 0x3d
 8000f70:	b29a      	uxth	r2, r3
 8000f72:	6bbb      	ldr	r3, [r7, #56]	; 0x38
 8000f74:	815a      	strh	r2, [r3, #10]
		if (fs->csize == 0 || (fs->csize & (fs->csize - 1))) return FR_NO_FILESYSTEM;	/* (Must be power of 2) */
 8000f76:	6bbb      	ldr	r3, [r7, #56]	; 0x38
 8000f78:	895b      	ldrh	r3, [r3, #10]
 8000f7a:	2b00      	cmp	r3, #0
 8000f7c:	d008      	beq.n	8000f90 <find_volume+0x224>
 8000f7e:	6bbb      	ldr	r3, [r7, #56]	; 0x38
 8000f80:	895b      	ldrh	r3, [r3, #10]
 8000f82:	461a      	mov	r2, r3
 8000f84:	6bbb      	ldr	r3, [r7, #56]	; 0x38
 8000f86:	895b      	ldrh	r3, [r3, #10]
 8000f88:	3b01      	subs	r3, #1
 8000f8a:	4013      	ands	r3, r2
 8000f8c:	2b00      	cmp	r3, #0
 8000f8e:	d001      	beq.n	8000f94 <find_volume+0x228>
 8000f90:	230d      	movs	r3, #13
 8000f92:	e12c      	b.n	80011ee <find_volume+0x482>

		fs->n_rootdir = ld_word(fs->win + BPB_RootEntCnt);	/* Number of root directory entries */
 8000f94:	6bbb      	ldr	r3, [r7, #56]	; 0x38
 8000f96:	3330      	adds	r3, #48	; 0x30
 8000f98:	3311      	adds	r3, #17
 8000f9a:	4618      	mov	r0, r3
 8000f9c:	f7ff fcd2 	bl	8000944 <ld_word>
 8000fa0:	4603      	mov	r3, r0
 8000fa2:	461a      	mov	r2, r3
 8000fa4:	6bbb      	ldr	r3, [r7, #56]	; 0x38
 8000fa6:	811a      	strh	r2, [r3, #8]
		if (fs->n_rootdir % (SS(fs) / SZDIRE)) return FR_NO_FILESYSTEM;	/* (Must be sector aligned) */
 8000fa8:	6bbb      	ldr	r3, [r7, #56]	; 0x38
 8000faa:	891b      	ldrh	r3, [r3, #8]
 8000fac:	f003 030f 	and.w	r3, r3, #15
 8000fb0:	b29b      	uxth	r3, r3
 8000fb2:	2b00      	cmp	r3, #0
 8000fb4:	d001      	beq.n	8000fba <find_volume+0x24e>
 8000fb6:	230d      	movs	r3, #13
 8000fb8:	e119      	b.n	80011ee <find_volume+0x482>

		tsect = ld_word(fs->win + BPB_TotSec16);		/* Number of sectors on the volume */
 8000fba:	6bbb      	ldr	r3, [r7, #56]	; 0x38
 8000fbc:	3330      	adds	r3, #48	; 0x30
 8000fbe:	3313      	adds	r3, #19
 8000fc0:	4618      	mov	r0, r3
 8000fc2:	f7ff fcbf 	bl	8000944 <ld_word>
 8000fc6:	4603      	mov	r3, r0
 8000fc8:	64bb      	str	r3, [r7, #72]	; 0x48
		if (tsect == 0) tsect = ld_dword(fs->win + BPB_TotSec32);
 8000fca:	6cbb      	ldr	r3, [r7, #72]	; 0x48
 8000fcc:	2b00      	cmp	r3, #0
 8000fce:	d106      	bne.n	8000fde <find_volume+0x272>
 8000fd0:	6bbb      	ldr	r3, [r7, #56]	; 0x38
 8000fd2:	3330      	adds	r3, #48	; 0x30
 8000fd4:	3320      	adds	r3, #32
 8000fd6:	4618      	mov	r0, r3
 8000fd8:	f7ff fccc 	bl	8000974 <ld_dword>
 8000fdc:	64b8      	str	r0, [r7, #72]	; 0x48

		nrsv = ld_word(fs->win + BPB_RsvdSecCnt);		/* Number of reserved sectors */
 8000fde:	6bbb      	ldr	r3, [r7, #56]	; 0x38
 8000fe0:	3330      	adds	r3, #48	; 0x30
 8000fe2:	330e      	adds	r3, #14
 8000fe4:	4618      	mov	r0, r3
 8000fe6:	f7ff fcad 	bl	8000944 <ld_word>
 8000fea:	4603      	mov	r3, r0
 8000fec:	85fb      	strh	r3, [r7, #46]	; 0x2e
		if (nrsv == 0) return FR_NO_FILESYSTEM;			/* (Must not be 0) */
 8000fee:	8dfb      	ldrh	r3, [r7, #46]	; 0x2e
 8000ff0:	2b00      	cmp	r3, #0
 8000ff2:	d101      	bne.n	8000ff8 <find_volume+0x28c>
 8000ff4:	230d      	movs	r3, #13
 8000ff6:	e0fa      	b.n	80011ee <find_volume+0x482>

		/* Determine the FAT sub type */
		sysect = nrsv + fasize + fs->n_rootdir / (SS(fs) / SZDIRE);	/* RSV + FAT + DIR */
 8000ff8:	8dfa      	ldrh	r2, [r7, #46]	; 0x2e
 8000ffa:	6cfb      	ldr	r3, [r7, #76]	; 0x4c
 8000ffc:	4413      	add	r3, r2
 8000ffe:	6bba      	ldr	r2, [r7, #56]	; 0x38
 8001000:	8912      	ldrh	r2, [r2, #8]
 8001002:	0912      	lsrs	r2, r2, #4
 8001004:	b292      	uxth	r2, r2
 8001006:	4413      	add	r3, r2
 8001008:	62bb      	str	r3, [r7, #40]	; 0x28
		if (tsect < sysect) return FR_NO_FILESYSTEM;	/* (Invalid volume size) */
 800100a:	6cba      	ldr	r2, [r7, #72]	; 0x48
 800100c:	6abb      	ldr	r3, [r7, #40]	; 0x28
 800100e:	429a      	cmp	r2, r3
 8001010:	d204      	bcs.n	800101c <find_volume+0x2b0>
 8001012:	230d      	movs	r3, #13
 8001014:	e0eb      	b.n	80011ee <find_volume+0x482>
 8001016:	bf00      	nop
 8001018:	20000508 	.word	0x20000508
		nclst = (tsect - sysect) / fs->csize;			/* Number of clusters */
 800101c:	6cba      	ldr	r2, [r7, #72]	; 0x48
 800101e:	6abb      	ldr	r3, [r7, #40]	; 0x28
 8001020:	1ad3      	subs	r3, r2, r3
 8001022:	6bba      	ldr	r2, [r7, #56]	; 0x38
 8001024:	8952      	ldrh	r2, [r2, #10]
 8001026:	fbb3 f3f2 	udiv	r3, r3, r2
 800102a:	627b      	str	r3, [r7, #36]	; 0x24
		if (nclst == 0) return FR_NO_FILESYSTEM;		/* (Invalid volume size) */
 800102c:	6a7b      	ldr	r3, [r7, #36]	; 0x24
 800102e:	2b00      	cmp	r3, #0
 8001030:	d101      	bne.n	8001036 <find_volume+0x2ca>
 8001032:	230d      	movs	r3, #13
 8001034:	e0db      	b.n	80011ee <find_volume+0x482>
		fmt = FS_FAT32;
 8001036:	2303      	movs	r3, #3
 8001038:	f887 3057 	strb.w	r3, [r7, #87]	; 0x57
		if (nclst <= MAX_FAT16) fmt = FS_FAT16;
 800103c:	6a7b      	ldr	r3, [r7, #36]	; 0x24
 800103e:	f64f 72f5 	movw	r2, #65525	; 0xfff5
 8001042:	4293      	cmp	r3, r2
 8001044:	d802      	bhi.n	800104c <find_volume+0x2e0>
 8001046:	2302      	movs	r3, #2
 8001048:	f887 3057 	strb.w	r3, [r7, #87]	; 0x57
		if (nclst <= MAX_FAT12) fmt = FS_FAT12;
 800104c:	6a7b      	ldr	r3, [r7, #36]	; 0x24
 800104e:	f640 72f5 	movw	r2, #4085	; 0xff5
 8001052:	4293      	cmp	r3, r2
 8001054:	d802      	bhi.n	800105c <find_volume+0x2f0>
 8001056:	2301      	movs	r3, #1
 8001058:	f887 3057 	strb.w	r3, [r7, #87]	; 0x57

		/* Boundaries and Limits */
		fs->n_fatent = nclst + 2;						/* Number of FAT entries */
 800105c:	6a7b      	ldr	r3, [r7, #36]	; 0x24
 800105e:	1c9a      	adds	r2, r3, #2
 8001060:	6bbb      	ldr	r3, [r7, #56]	; 0x38
 8001062:	615a      	str	r2, [r3, #20]
		fs->volbase = bsect;							/* Volume start sector */
 8001064:	6bbb      	ldr	r3, [r7, #56]	; 0x38
 8001066:	6d3a      	ldr	r2, [r7, #80]	; 0x50
 8001068:	61da      	str	r2, [r3, #28]
		fs->fatbase = bsect + nrsv; 					/* FAT start sector */
 800106a:	8dfa      	ldrh	r2, [r7, #46]	; 0x2e
 800106c:	6d3b      	ldr	r3, [r7, #80]	; 0x50
 800106e:	441a      	add	r2, r3
 8001070:	6bbb      	ldr	r3, [r7, #56]	; 0x38
 8001072:	621a      	str	r2, [r3, #32]
		fs->database = bsect + sysect;					/* Data start sector */
 8001074:	6d3a      	ldr	r2, [r7, #80]	; 0x50
 8001076:	6abb      	ldr	r3, [r7, #40]	; 0x28
 8001078:	441a      	add	r2, r3
 800107a:	6bbb      	ldr	r3, [r7, #56]	; 0x38
 800107c:	629a      	str	r2, [r3, #40]	; 0x28
		if (fmt == FS_FAT32) {
 800107e:	f897 3057 	ldrb.w	r3, [r7, #87]	; 0x57
 8001082:	2b03      	cmp	r3, #3
 8001084:	d11e      	bne.n	80010c4 <find_volume+0x358>
			if (ld_word(fs->win + BPB_FSVer32) != 0) return FR_NO_FILESYSTEM;	/* (Must be FAT32 revision 0.0) */
 8001086:	6bbb      	ldr	r3, [r7, #56]	; 0x38
 8001088:	3330      	adds	r3, #48	; 0x30
 800108a:	332a      	adds	r3, #42	; 0x2a
 800108c:	4618      	mov	r0, r3
 800108e:	f7ff fc59 	bl	8000944 <ld_word>
 8001092:	4603      	mov	r3, r0
 8001094:	2b00      	cmp	r3, #0
 8001096:	d001      	beq.n	800109c <find_volume+0x330>
 8001098:	230d      	movs	r3, #13
 800109a:	e0a8      	b.n	80011ee <find_volume+0x482>
			if (fs->n_rootdir) return FR_NO_FILESYSTEM;	/* (BPB_RootEntCnt must be 0) */
 800109c:	6bbb      	ldr	r3, [r7, #56]	; 0x38
 800109e:	891b      	ldrh	r3, [r3, #8]
 80010a0:	2b00      	cmp	r3, #0
 80010a2:	d001      	beq.n	80010a8 <find_volume+0x33c>
 80010a4:	230d      	movs	r3, #13
 80010a6:	e0a2      	b.n	80011ee <find_volume+0x482>
			fs->dirbase = ld_dword(fs->win + BPB_RootClus32);	/* Root directory start cluster */
 80010a8:	6bbb      	ldr	r3, [r7, #56]	; 0x38
 80010aa:	3330      	adds	r3, #48	; 0x30
 80010ac:	332c      	adds	r3, #44	; 0x2c
 80010ae:	4618      	mov	r0, r3
 80010b0:	f7ff fc60 	bl	8000974 <ld_dword>
 80010b4:	4602      	mov	r2, r0
 80010b6:	6bbb      	ldr	r3, [r7, #56]	; 0x38
 80010b8:	625a      	str	r2, [r3, #36]	; 0x24
			szbfat = fs->n_fatent * 4;					/* (Needed FAT size) */
 80010ba:	6bbb      	ldr	r3, [r7, #56]	; 0x38
 80010bc:	695b      	ldr	r3, [r3, #20]
 80010be:	009b      	lsls	r3, r3, #2
 80010c0:	647b      	str	r3, [r7, #68]	; 0x44
 80010c2:	e01f      	b.n	8001104 <find_volume+0x398>
		} else {
			if (fs->n_rootdir == 0)	return FR_NO_FILESYSTEM;/* (BPB_RootEntCnt must not be 0) */
 80010c4:	6bbb      	ldr	r3, [r7, #56]	; 0x38
 80010c6:	891b      	ldrh	r3, [r3, #8]
 80010c8:	2b00      	cmp	r3, #0
 80010ca:	d101      	bne.n	80010d0 <find_volume+0x364>
 80010cc:	230d      	movs	r3, #13
 80010ce:	e08e      	b.n	80011ee <find_volume+0x482>
			fs->dirbase = fs->fatbase + fasize;			/* Root directory start sector */
 80010d0:	6bbb      	ldr	r3, [r7, #56]	; 0x38
 80010d2:	6a1a      	ldr	r2, [r3, #32]
 80010d4:	6cfb      	ldr	r3, [r7, #76]	; 0x4c
 80010d6:	441a      	add	r2, r3
 80010d8:	6bbb      	ldr	r3, [r7, #56]	; 0x38
 80010da:	625a      	str	r2, [r3, #36]	; 0x24
			szbfat = (fmt == FS_FAT16) ?				/* (Needed FAT size) */
				fs->n_fatent * 2 : fs->n_fatent * 3 / 2 + (fs->n_fatent & 1);
 80010dc:	f897 3057 	ldrb.w	r3, [r7, #87]	; 0x57
 80010e0:	2b02      	cmp	r3, #2
 80010e2:	d103      	bne.n	80010ec <find_volume+0x380>
 80010e4:	6bbb      	ldr	r3, [r7, #56]	; 0x38
 80010e6:	695b      	ldr	r3, [r3, #20]
 80010e8:	005b      	lsls	r3, r3, #1
 80010ea:	e00a      	b.n	8001102 <find_volume+0x396>
 80010ec:	6bbb      	ldr	r3, [r7, #56]	; 0x38
 80010ee:	695a      	ldr	r2, [r3, #20]
 80010f0:	4613      	mov	r3, r2
 80010f2:	005b      	lsls	r3, r3, #1
 80010f4:	4413      	add	r3, r2
 80010f6:	085a      	lsrs	r2, r3, #1
 80010f8:	6bbb      	ldr	r3, [r7, #56]	; 0x38
 80010fa:	695b      	ldr	r3, [r3, #20]
 80010fc:	f003 0301 	and.w	r3, r3, #1
 8001100:	4413      	add	r3, r2
			szbfat = (fmt == FS_FAT16) ?				/* (Needed FAT size) */
 8001102:	647b      	str	r3, [r7, #68]	; 0x44
		}
		if (fs->fsize < (szbfat + (SS(fs) - 1)) / SS(fs)) return FR_NO_FILESYSTEM;	/* (BPB_FATSz must not be less than the size needed) */
 8001104:	6bbb      	ldr	r3, [r7, #56]	; 0x38
 8001106:	699a      	ldr	r2, [r3, #24]
 8001108:	6c7b      	ldr	r3, [r7, #68]	; 0x44
 800110a:	f203 13ff 	addw	r3, r3, #511	; 0x1ff
 800110e:	0a5b      	lsrs	r3, r3, #9
 8001110:	429a      	cmp	r2, r3
 8001112:	d201      	bcs.n	8001118 <find_volume+0x3ac>
 8001114:	230d      	movs	r3, #13
 8001116:	e06a      	b.n	80011ee <find_volume+0x482>

#if !_FS_READONLY
		/* Get FSINFO if available */
		fs->last_clst = fs->free_clst = 0xFFFFFFFF;		/* Initialize cluster allocation information */
 8001118:	6bbb      	ldr	r3, [r7, #56]	; 0x38
 800111a:	f04f 32ff 	mov.w	r2, #4294967295	; 0xffffffff
 800111e:	611a      	str	r2, [r3, #16]
 8001120:	6bbb      	ldr	r3, [r7, #56]	; 0x38
 8001122:	691a      	ldr	r2, [r3, #16]
 8001124:	6bbb      	ldr	r3, [r7, #56]	; 0x38
 8001126:	60da      	str	r2, [r3, #12]
		fs->fsi_flag = 0x80;
 8001128:	6bbb      	ldr	r3, [r7, #56]	; 0x38
 800112a:	2280      	movs	r2, #128	; 0x80
 800112c:	711a      	strb	r2, [r3, #4]
#if (_FS_NOFSINFO & 3) != 3
		if (fmt == FS_FAT32				/* Enable FSINFO only if FAT32 and BPB_FSInfo32 == 1 */
 800112e:	f897 3057 	ldrb.w	r3, [r7, #87]	; 0x57
 8001132:	2b03      	cmp	r3, #3
 8001134:	d149      	bne.n	80011ca <find_volume+0x45e>
			&& ld_word(fs->win + BPB_FSInfo32) == 1
 8001136:	6bbb      	ldr	r3, [r7, #56]	; 0x38
 8001138:	3330      	adds	r3, #48	; 0x30
 800113a:	3330      	adds	r3, #48	; 0x30
 800113c:	4618      	mov	r0, r3
 800113e:	f7ff fc01 	bl	8000944 <ld_word>
 8001142:	4603      	mov	r3, r0
 8001144:	2b01      	cmp	r3, #1
 8001146:	d140      	bne.n	80011ca <find_volume+0x45e>
			&& move_window(fs, bsect + 1) == FR_OK)
 8001148:	6d3b      	ldr	r3, [r7, #80]	; 0x50
 800114a:	3301      	adds	r3, #1
 800114c:	4619      	mov	r1, r3
 800114e:	6bb8      	ldr	r0, [r7, #56]	; 0x38
 8001150:	f7ff fc9c 	bl	8000a8c <move_window>
 8001154:	4603      	mov	r3, r0
 8001156:	2b00      	cmp	r3, #0
 8001158:	d137      	bne.n	80011ca <find_volume+0x45e>
		{
			fs->fsi_flag = 0;
 800115a:	6bbb      	ldr	r3, [r7, #56]	; 0x38
 800115c:	2200      	movs	r2, #0
 800115e:	711a      	strb	r2, [r3, #4]
			if (ld_word(fs->win + BS_55AA) == 0xAA55	/* Load FSINFO data if available */
 8001160:	6bbb      	ldr	r3, [r7, #56]	; 0x38
 8001162:	3330      	adds	r3, #48	; 0x30
 8001164:	f503 73ff 	add.w	r3, r3, #510	; 0x1fe
 8001168:	4618      	mov	r0, r3
 800116a:	f7ff fbeb 	bl	8000944 <ld_word>
 800116e:	4603      	mov	r3, r0
 8001170:	461a      	mov	r2, r3
 8001172:	f64a 2355 	movw	r3, #43605	; 0xaa55
 8001176:	429a      	cmp	r2, r3
 8001178:	d127      	bne.n	80011ca <find_volume+0x45e>
				&& ld_dword(fs->win + FSI_LeadSig) == 0x41615252
 800117a:	6bbb      	ldr	r3, [r7, #56]	; 0x38
 800117c:	3330      	adds	r3, #48	; 0x30
 800117e:	4618      	mov	r0, r3
 8001180:	f7ff fbf8 	bl	8000974 <ld_dword>
 8001184:	4603      	mov	r3, r0
 8001186:	4a1c      	ldr	r2, [pc, #112]	; (80011f8 <find_volume+0x48c>)
 8001188:	4293      	cmp	r3, r2
 800118a:	d11e      	bne.n	80011ca <find_volume+0x45e>
				&& ld_dword(fs->win + FSI_StrucSig) == 0x61417272)
 800118c:	6bbb      	ldr	r3, [r7, #56]	; 0x38
 800118e:	3330      	adds	r3, #48	; 0x30
 8001190:	f503 73f2 	add.w	r3, r3, #484	; 0x1e4
 8001194:	4618      	mov	r0, r3
 8001196:	f7ff fbed 	bl	8000974 <ld_dword>
 800119a:	4603      	mov	r3, r0
 800119c:	4a17      	ldr	r2, [pc, #92]	; (80011fc <find_volume+0x490>)
 800119e:	4293      	cmp	r3, r2
 80011a0:	d113      	bne.n	80011ca <find_volume+0x45e>
			{
#if (_FS_NOFSINFO & 1) == 0
				fs->free_clst = ld_dword(fs->win + FSI_Free_Count);
 80011a2:	6bbb      	ldr	r3, [r7, #56]	; 0x38
 80011a4:	3330      	adds	r3, #48	; 0x30
 80011a6:	f503 73f4 	add.w	r3, r3, #488	; 0x1e8
 80011aa:	4618      	mov	r0, r3
 80011ac:	f7ff fbe2 	bl	8000974 <ld_dword>
 80011b0:	4602      	mov	r2, r0
 80011b2:	6bbb      	ldr	r3, [r7, #56]	; 0x38
 80011b4:	611a      	str	r2, [r3, #16]
#endif
#if (_FS_NOFSINFO & 2) == 0
				fs->last_clst = ld_dword(fs->win + FSI_Nxt_Free);
 80011b6:	6bbb      	ldr	r3, [r7, #56]	; 0x38
 80011b8:	3330      	adds	r3, #48	; 0x30
 80011ba:	f503 73f6 	add.w	r3, r3, #492	; 0x1ec
 80011be:	4618      	mov	r0, r3
 80011c0:	f7ff fbd8 	bl	8000974 <ld_dword>
 80011c4:	4602      	mov	r2, r0
 80011c6:	6bbb      	ldr	r3, [r7, #56]	; 0x38
 80011c8:	60da      	str	r2, [r3, #12]
		}
#endif	/* (_FS_NOFSINFO & 3) != 3 */
#endif	/* !_FS_READONLY */
	}

	fs->fs_type = fmt;		/* FAT sub-type */
 80011ca:	6bbb      	ldr	r3, [r7, #56]	; 0x38
 80011cc:	f897 2057 	ldrb.w	r2, [r7, #87]	; 0x57
 80011d0:	701a      	strb	r2, [r3, #0]
	fs->id = ++Fsid;		/* File system mount ID */
 80011d2:	4b0b      	ldr	r3, [pc, #44]	; (8001200 <find_volume+0x494>)
 80011d4:	881b      	ldrh	r3, [r3, #0]
 80011d6:	3301      	adds	r3, #1
 80011d8:	b29a      	uxth	r2, r3
 80011da:	4b09      	ldr	r3, [pc, #36]	; (8001200 <find_volume+0x494>)
 80011dc:	801a      	strh	r2, [r3, #0]
 80011de:	4b08      	ldr	r3, [pc, #32]	; (8001200 <find_volume+0x494>)
 80011e0:	881a      	ldrh	r2, [r3, #0]
 80011e2:	6bbb      	ldr	r3, [r7, #56]	; 0x38
 80011e4:	80da      	strh	r2, [r3, #6]
#endif
#if _FS_RPATH != 0
	fs->cdir = 0;			/* Initialize current directory */
#endif
#if _FS_LOCK != 0			/* Clear file lock semaphores */
	clear_lock(fs);
 80011e6:	6bb8      	ldr	r0, [r7, #56]	; 0x38
 80011e8:	f7ff fbe8 	bl	80009bc <clear_lock>
#endif
	return FR_OK;
 80011ec:	2300      	movs	r3, #0
}
 80011ee:	4618      	mov	r0, r3
 80011f0:	3758      	adds	r7, #88	; 0x58
 80011f2:	46bd      	mov	sp, r7
 80011f4:	bd80      	pop	{r7, pc}
 80011f6:	bf00      	nop
 80011f8:	41615252 	.word	0x41615252
 80011fc:	61417272 	.word	0x61417272
 8001200:	2000050c 	.word	0x2000050c

08001204 <f_mount>:
FRESULT f_mount (
	FATFS* fs,			/* Pointer to the file system object (NULL:unmount)*/
	const TCHAR* path,	/* Logical drive number to be mounted/unmounted */
	BYTE opt			/* Mode option 0:Do not mount (delayed mount), 1:Mount immediately */
)
{
 8001204:	b580      	push	{r7, lr}
 8001206:	b088      	sub	sp, #32
 8001208:	af00      	add	r7, sp, #0
 800120a:	60f8      	str	r0, [r7, #12]
 800120c:	60b9      	str	r1, [r7, #8]
 800120e:	4613      	mov	r3, r2
 8001210:	71fb      	strb	r3, [r7, #7]
	FATFS *cfs;
	int vol;
	FRESULT res;
	const TCHAR *rp = path;
 8001212:	68bb      	ldr	r3, [r7, #8]
 8001214:	613b      	str	r3, [r7, #16]


	/* Get logical drive number */
	vol = get_ldnumber(&rp);
 8001216:	f107 0310 	add.w	r3, r7, #16
 800121a:	4618      	mov	r0, r3
 800121c:	f7ff fd0b 	bl	8000c36 <get_ldnumber>
 8001220:	61f8      	str	r0, [r7, #28]
	if (vol < 0) return FR_INVALID_DRIVE;
 8001222:	69fb      	ldr	r3, [r7, #28]
 8001224:	2b00      	cmp	r3, #0
 8001226:	da01      	bge.n	800122c <f_mount+0x28>
 8001228:	230b      	movs	r3, #11
 800122a:	e02b      	b.n	8001284 <f_mount+0x80>
	cfs = FatFs[vol];					/* Pointer to fs object */
 800122c:	4a17      	ldr	r2, [pc, #92]	; (800128c <f_mount+0x88>)
 800122e:	69fb      	ldr	r3, [r7, #28]
 8001230:	f852 3023 	ldr.w	r3, [r2, r3, lsl #2]
 8001234:	61bb      	str	r3, [r7, #24]

	if (cfs) {
 8001236:	69bb      	ldr	r3, [r7, #24]
 8001238:	2b00      	cmp	r3, #0
 800123a:	d005      	beq.n	8001248 <f_mount+0x44>
#if _FS_LOCK != 0
		clear_lock(cfs);
 800123c:	69b8      	ldr	r0, [r7, #24]
 800123e:	f7ff fbbd 	bl	80009bc <clear_lock>
#endif
#if _FS_REENTRANT						/* Discard sync object of the current volume */
		if (!ff_del_syncobj(cfs->sobj)) return FR_INT_ERR;
#endif
		cfs->fs_type = 0;				/* Clear old fs object */
 8001242:	69bb      	ldr	r3, [r7, #24]
 8001244:	2200      	movs	r2, #0
 8001246:	701a      	strb	r2, [r3, #0]
	}

	if (fs) {
 8001248:	68fb      	ldr	r3, [r7, #12]
 800124a:	2b00      	cmp	r3, #0
 800124c:	d002      	beq.n	8001254 <f_mount+0x50>
		fs->fs_type = 0;				/* Clear new fs object */
 800124e:	68fb      	ldr	r3, [r7, #12]
 8001250:	2200      	movs	r2, #0
 8001252:	701a      	strb	r2, [r3, #0]
#if _FS_REENTRANT						/* Create sync object for the new volume */
		if (!ff_cre_syncobj((BYTE)vol, &fs->sobj)) return FR_INT_ERR;
#endif
	}
	FatFs[vol] = fs;					/* Register new fs object */
 8001254:	68fa      	ldr	r2, [r7, #12]
 8001256:	490d      	ldr	r1, [pc, #52]	; (800128c <f_mount+0x88>)
 8001258:	69fb      	ldr	r3, [r7, #28]
 800125a:	f841 2023 	str.w	r2, [r1, r3, lsl #2]

	if (!fs || opt != 1) return FR_OK;	/* Do not mount now, it will be mounted later */
 800125e:	68fb      	ldr	r3, [r7, #12]
 8001260:	2b00      	cmp	r3, #0
 8001262:	d002      	beq.n	800126a <f_mount+0x66>
 8001264:	79fb      	ldrb	r3, [r7, #7]
 8001266:	2b01      	cmp	r3, #1
 8001268:	d001      	beq.n	800126e <f_mount+0x6a>
 800126a:	2300      	movs	r3, #0
 800126c:	e00a      	b.n	8001284 <f_mount+0x80>

	res = find_volume(&path, &fs, 0);	/* Force mounted the volume */
 800126e:	f107 010c 	add.w	r1, r7, #12
 8001272:	f107 0308 	add.w	r3, r7, #8
 8001276:	2200      	movs	r2, #0
 8001278:	4618      	mov	r0, r3
 800127a:	f7ff fd77 	bl	8000d6c <find_volume>
 800127e:	4603      	mov	r3, r0
 8001280:	75fb      	strb	r3, [r7, #23]
	LEAVE_FF(fs, res);
 8001282:	7dfb      	ldrb	r3, [r7, #23]
}
 8001284:	4618      	mov	r0, r3
 8001286:	3720      	adds	r7, #32
 8001288:	46bd      	mov	sp, r7
 800128a:	bd80      	pop	{r7, pc}
 800128c:	20000508 	.word	0x20000508

08001290 <f_getfree>:
FRESULT f_getfree (
	const TCHAR* path,	/* Path name of the logical drive number */
	DWORD* nclst,		/* Pointer to a variable to return number of free clusters */
	FATFS** fatfs		/* Pointer to return pointer to corresponding file system object */
)
{
 8001290:	b580      	push	{r7, lr}
 8001292:	b092      	sub	sp, #72	; 0x48
 8001294:	af00      	add	r7, sp, #0
 8001296:	60f8      	str	r0, [r7, #12]
 8001298:	60b9      	str	r1, [r7, #8]
 800129a:	607a      	str	r2, [r7, #4]
	BYTE *p;
	_FDID obj;


	/* Get logical drive */
	res = find_volume(&path, &fs, 0);
 800129c:	f107 0128 	add.w	r1, r7, #40	; 0x28
 80012a0:	f107 030c 	add.w	r3, r7, #12
 80012a4:	2200      	movs	r2, #0
 80012a6:	4618      	mov	r0, r3
 80012a8:	f7ff fd60 	bl	8000d6c <find_volume>
 80012ac:	4603      	mov	r3, r0
 80012ae:	f887 3047 	strb.w	r3, [r7, #71]	; 0x47
	if (res == FR_OK) {
 80012b2:	f897 3047 	ldrb.w	r3, [r7, #71]	; 0x47
 80012b6:	2b00      	cmp	r3, #0
 80012b8:	f040 8099 	bne.w	80013ee <f_getfree+0x15e>
		*fatfs = fs;				/* Return ptr to the fs object */
 80012bc:	6aba      	ldr	r2, [r7, #40]	; 0x28
 80012be:	687b      	ldr	r3, [r7, #4]
 80012c0:	601a      	str	r2, [r3, #0]
		/* If free_clst is valid, return it without full cluster scan */
		if (fs->free_clst <= fs->n_fatent - 2) {
 80012c2:	6abb      	ldr	r3, [r7, #40]	; 0x28
 80012c4:	691a      	ldr	r2, [r3, #16]
 80012c6:	6abb      	ldr	r3, [r7, #40]	; 0x28
 80012c8:	695b      	ldr	r3, [r3, #20]
 80012ca:	3b02      	subs	r3, #2
 80012cc:	429a      	cmp	r2, r3
 80012ce:	d804      	bhi.n	80012da <f_getfree+0x4a>
			*nclst = fs->free_clst;
 80012d0:	6abb      	ldr	r3, [r7, #40]	; 0x28
 80012d2:	691a      	ldr	r2, [r3, #16]
 80012d4:	68bb      	ldr	r3, [r7, #8]
 80012d6:	601a      	str	r2, [r3, #0]
 80012d8:	e089      	b.n	80013ee <f_getfree+0x15e>
		} else {
			/* Get number of free clusters */
			nfree = 0;
 80012da:	2300      	movs	r3, #0
 80012dc:	643b      	str	r3, [r7, #64]	; 0x40
			if (fs->fs_type == FS_FAT12) {	/* FAT12: Sector unalighed FAT entries */
 80012de:	6abb      	ldr	r3, [r7, #40]	; 0x28
 80012e0:	781b      	ldrb	r3, [r3, #0]
 80012e2:	2b01      	cmp	r3, #1
 80012e4:	d128      	bne.n	8001338 <f_getfree+0xa8>
				clst = 2; obj.fs = fs;
 80012e6:	2302      	movs	r3, #2
 80012e8:	63fb      	str	r3, [r7, #60]	; 0x3c
 80012ea:	6abb      	ldr	r3, [r7, #40]	; 0x28
 80012ec:	617b      	str	r3, [r7, #20]
				do {
					stat = get_fat(&obj, clst);
 80012ee:	f107 0314 	add.w	r3, r7, #20
 80012f2:	6bf9      	ldr	r1, [r7, #60]	; 0x3c
 80012f4:	4618      	mov	r0, r3
 80012f6:	f7ff fbf6 	bl	8000ae6 <get_fat>
 80012fa:	62f8      	str	r0, [r7, #44]	; 0x2c
					if (stat == 0xFFFFFFFF) { res = FR_DISK_ERR; break; }
 80012fc:	6afb      	ldr	r3, [r7, #44]	; 0x2c
 80012fe:	f1b3 3fff 	cmp.w	r3, #4294967295	; 0xffffffff
 8001302:	d103      	bne.n	800130c <f_getfree+0x7c>
 8001304:	2301      	movs	r3, #1
 8001306:	f887 3047 	strb.w	r3, [r7, #71]	; 0x47
 800130a:	e063      	b.n	80013d4 <f_getfree+0x144>
					if (stat == 1) { res = FR_INT_ERR; break; }
 800130c:	6afb      	ldr	r3, [r7, #44]	; 0x2c
 800130e:	2b01      	cmp	r3, #1
 8001310:	d103      	bne.n	800131a <f_getfree+0x8a>
 8001312:	2302      	movs	r3, #2
 8001314:	f887 3047 	strb.w	r3, [r7, #71]	; 0x47
 8001318:	e05c      	b.n	80013d4 <f_getfree+0x144>
					if (stat == 0) nfree++;
 800131a:	6afb      	ldr	r3, [r7, #44]	; 0x2c
 800131c:	2b00      	cmp	r3, #0
 800131e:	d102      	bne.n	8001326 <f_getfree+0x96>
 8001320:	6c3b      	ldr	r3, [r7, #64]	; 0x40
 8001322:	3301      	adds	r3, #1
 8001324:	643b      	str	r3, [r7, #64]	; 0x40
				} while (++clst < fs->n_fatent);
 8001326:	6bfb      	ldr	r3, [r7, #60]	; 0x3c
 8001328:	3301      	adds	r3, #1
 800132a:	63fb      	str	r3, [r7, #60]	; 0x3c
 800132c:	6abb      	ldr	r3, [r7, #40]	; 0x28
 800132e:	695b      	ldr	r3, [r3, #20]
 8001330:	6bfa      	ldr	r2, [r7, #60]	; 0x3c
 8001332:	429a      	cmp	r2, r3
 8001334:	d3db      	bcc.n	80012ee <f_getfree+0x5e>
 8001336:	e04d      	b.n	80013d4 <f_getfree+0x144>
						i = (i + 1) % SS(fs);
					} while (clst);
				} else
#endif
				{	/* FAT16/32: Sector alighed FAT entries */
					clst = fs->n_fatent; sect = fs->fatbase;
 8001338:	6abb      	ldr	r3, [r7, #40]	; 0x28
 800133a:	695b      	ldr	r3, [r3, #20]
 800133c:	63fb      	str	r3, [r7, #60]	; 0x3c
 800133e:	6abb      	ldr	r3, [r7, #40]	; 0x28
 8001340:	6a1b      	ldr	r3, [r3, #32]
 8001342:	63bb      	str	r3, [r7, #56]	; 0x38
					i = 0; p = 0;
 8001344:	2300      	movs	r3, #0
 8001346:	637b      	str	r3, [r7, #52]	; 0x34
 8001348:	2300      	movs	r3, #0
 800134a:	633b      	str	r3, [r7, #48]	; 0x30
					do {
						if (i == 0) {
 800134c:	6b7b      	ldr	r3, [r7, #52]	; 0x34
 800134e:	2b00      	cmp	r3, #0
 8001350:	d113      	bne.n	800137a <f_getfree+0xea>
							res = move_window(fs, sect++);
 8001352:	6ab8      	ldr	r0, [r7, #40]	; 0x28
 8001354:	6bbb      	ldr	r3, [r7, #56]	; 0x38
 8001356:	1c5a      	adds	r2, r3, #1
 8001358:	63ba      	str	r2, [r7, #56]	; 0x38
 800135a:	4619      	mov	r1, r3
 800135c:	f7ff fb96 	bl	8000a8c <move_window>
 8001360:	4603      	mov	r3, r0
 8001362:	f887 3047 	strb.w	r3, [r7, #71]	; 0x47
							if (res != FR_OK) break;
 8001366:	f897 3047 	ldrb.w	r3, [r7, #71]	; 0x47
 800136a:	2b00      	cmp	r3, #0
 800136c:	d131      	bne.n	80013d2 <f_getfree+0x142>
							p = fs->win;
 800136e:	6abb      	ldr	r3, [r7, #40]	; 0x28
 8001370:	3330      	adds	r3, #48	; 0x30
 8001372:	633b      	str	r3, [r7, #48]	; 0x30
							i = SS(fs);
 8001374:	f44f 7300 	mov.w	r3, #512	; 0x200
 8001378:	637b      	str	r3, [r7, #52]	; 0x34
						}
						if (fs->fs_type == FS_FAT16) {
 800137a:	6abb      	ldr	r3, [r7, #40]	; 0x28
 800137c:	781b      	ldrb	r3, [r3, #0]
 800137e:	2b02      	cmp	r3, #2
 8001380:	d10f      	bne.n	80013a2 <f_getfree+0x112>
							if (ld_word(p) == 0) nfree++;
 8001382:	6b38      	ldr	r0, [r7, #48]	; 0x30
 8001384:	f7ff fade 	bl	8000944 <ld_word>
 8001388:	4603      	mov	r3, r0
 800138a:	2b00      	cmp	r3, #0
 800138c:	d102      	bne.n	8001394 <f_getfree+0x104>
 800138e:	6c3b      	ldr	r3, [r7, #64]	; 0x40
 8001390:	3301      	adds	r3, #1
 8001392:	643b      	str	r3, [r7, #64]	; 0x40
							p += 2; i -= 2;
 8001394:	6b3b      	ldr	r3, [r7, #48]	; 0x30
 8001396:	3302      	adds	r3, #2
 8001398:	633b      	str	r3, [r7, #48]	; 0x30
 800139a:	6b7b      	ldr	r3, [r7, #52]	; 0x34
 800139c:	3b02      	subs	r3, #2
 800139e:	637b      	str	r3, [r7, #52]	; 0x34
 80013a0:	e010      	b.n	80013c4 <f_getfree+0x134>
						} else {
							if ((ld_dword(p) & 0x0FFFFFFF) == 0) nfree++;
 80013a2:	6b38      	ldr	r0, [r7, #48]	; 0x30
 80013a4:	f7ff fae6 	bl	8000974 <ld_dword>
 80013a8:	4603      	mov	r3, r0
 80013aa:	f023 4370 	bic.w	r3, r3, #4026531840	; 0xf0000000
 80013ae:	2b00      	cmp	r3, #0
 80013b0:	d102      	bne.n	80013b8 <f_getfree+0x128>
 80013b2:	6c3b      	ldr	r3, [r7, #64]	; 0x40
 80013b4:	3301      	adds	r3, #1
 80013b6:	643b      	str	r3, [r7, #64]	; 0x40
							p += 4; i -= 4;
 80013b8:	6b3b      	ldr	r3, [r7, #48]	; 0x30
 80013ba:	3304      	adds	r3, #4
 80013bc:	633b      	str	r3, [r7, #48]	; 0x30
 80013be:	6b7b      	ldr	r3, [r7, #52]	; 0x34
 80013c0:	3b04      	subs	r3, #4
 80013c2:	637b      	str	r3, [r7, #52]	; 0x34
						}
					} while (--clst);
 80013c4:	6bfb      	ldr	r3, [r7, #60]	; 0x3c
 80013c6:	3b01      	subs	r3, #1
 80013c8:	63fb      	str	r3, [r7, #60]	; 0x3c
 80013ca:	6bfb      	ldr	r3, [r7, #60]	; 0x3c
 80013cc:	2b00      	cmp	r3, #0
 80013ce:	d1bd      	bne.n	800134c <f_getfree+0xbc>
 80013d0:	e000      	b.n	80013d4 <f_getfree+0x144>
							if (res != FR_OK) break;
 80013d2:	bf00      	nop
				}
			}
			*nclst = nfree;			/* Return the free clusters */
 80013d4:	68bb      	ldr	r3, [r7, #8]
 80013d6:	6c3a      	ldr	r2, [r7, #64]	; 0x40
 80013d8:	601a      	str	r2, [r3, #0]
			fs->free_clst = nfree;	/* Now free_clst is valid */
 80013da:	6abb      	ldr	r3, [r7, #40]	; 0x28
 80013dc:	6c3a      	ldr	r2, [r7, #64]	; 0x40
 80013de:	611a      	str	r2, [r3, #16]
			fs->fsi_flag |= 1;		/* FSInfo is to be updated */
 80013e0:	6abb      	ldr	r3, [r7, #40]	; 0x28
 80013e2:	791a      	ldrb	r2, [r3, #4]
 80013e4:	6abb      	ldr	r3, [r7, #40]	; 0x28
 80013e6:	f042 0201 	orr.w	r2, r2, #1
 80013ea:	b2d2      	uxtb	r2, r2
 80013ec:	711a      	strb	r2, [r3, #4]
		}
	}

	LEAVE_FF(fs, res);
 80013ee:	f897 3047 	ldrb.w	r3, [r7, #71]	; 0x47
}
 80013f2:	4618      	mov	r0, r3
 80013f4:	3748      	adds	r7, #72	; 0x48
 80013f6:	46bd      	mov	sp, r7
 80013f8:	bd80      	pop	{r7, pc}
	...

080013fc <FATFS_LinkDriverEx>:
  * @param  lun : only used for USB Key Disk to add multi-lun management
            else the paramter must be equal to 0
  * @retval Returns 0 in case of success, otherwise 1.
  */
uint8_t FATFS_LinkDriverEx(Diskio_drvTypeDef *drv, char *path, uint8_t lun)
{
 80013fc:	b480      	push	{r7}
 80013fe:	b087      	sub	sp, #28
 8001400:	af00      	add	r7, sp, #0
 8001402:	60f8      	str	r0, [r7, #12]
 8001404:	60b9      	str	r1, [r7, #8]
 8001406:	4613      	mov	r3, r2
 8001408:	71fb      	strb	r3, [r7, #7]
  uint8_t ret = 1;
 800140a:	2301      	movs	r3, #1
 800140c:	75fb      	strb	r3, [r7, #23]
  uint8_t DiskNum = 0;
 800140e:	2300      	movs	r3, #0
 8001410:	75bb      	strb	r3, [r7, #22]
  
  if(disk.nbr <= _VOLUMES)
 8001412:	4b1f      	ldr	r3, [pc, #124]	; (8001490 <FATFS_LinkDriverEx+0x94>)
 8001414:	7a5b      	ldrb	r3, [r3, #9]
 8001416:	b2db      	uxtb	r3, r3
 8001418:	2b01      	cmp	r3, #1
 800141a:	d831      	bhi.n	8001480 <FATFS_LinkDriverEx+0x84>
  {
    disk.is_initialized[disk.nbr] = 0;
 800141c:	4b1c      	ldr	r3, [pc, #112]	; (8001490 <FATFS_LinkDriverEx+0x94>)
 800141e:	7a5b      	ldrb	r3, [r3, #9]
 8001420:	b2db      	uxtb	r3, r3
 8001422:	461a      	mov	r2, r3
 8001424:	4b1a      	ldr	r3, [pc, #104]	; (8001490 <FATFS_LinkDriverEx+0x94>)
 8001426:	2100      	movs	r1, #0
 8001428:	5499      	strb	r1, [r3, r2]
    disk.drv[disk.nbr] = drv;  
 800142a:	4b19      	ldr	r3, [pc, #100]	; (8001490 <FATFS_LinkDriverEx+0x94>)
 800142c:	7a5b      	ldrb	r3, [r3, #9]
 800142e:	b2db      	uxtb	r3, r3
 8001430:	4a17      	ldr	r2, [pc, #92]	; (8001490 <FATFS_LinkDriverEx+0x94>)
 8001432:	009b      	lsls	r3, r3, #2
 8001434:	4413      	add	r3, r2
 8001436:	68fa      	ldr	r2, [r7, #12]
 8001438:	605a      	str	r2, [r3, #4]
    disk.lun[disk.nbr] = lun;  
 800143a:	4b15      	ldr	r3, [pc, #84]	; (8001490 <FATFS_LinkDriverEx+0x94>)
 800143c:	7a5b      	ldrb	r3, [r3, #9]
 800143e:	b2db      	uxtb	r3, r3
 8001440:	461a      	mov	r2, r3
 8001442:	4b13      	ldr	r3, [pc, #76]	; (8001490 <FATFS_LinkDriverEx+0x94>)
 8001444:	4413      	add	r3, r2
 8001446:	79fa      	ldrb	r2, [r7, #7]
 8001448:	721a      	strb	r2, [r3, #8]
    DiskNum = disk.nbr++;
 800144a:	4b11      	ldr	r3, [pc, #68]	; (8001490 <FATFS_LinkDriverEx+0x94>)
 800144c:	7a5b      	ldrb	r3, [r3, #9]
 800144e:	b2db      	uxtb	r3, r3
 8001450:	1c5a      	adds	r2, r3, #1
 8001452:	b2d1      	uxtb	r1, r2
 8001454:	4a0e      	ldr	r2, [pc, #56]	; (8001490 <FATFS_LinkDriverEx+0x94>)
 8001456:	7251      	strb	r1, [r2, #9]
 8001458:	75bb      	strb	r3, [r7, #22]
    path[0] = DiskNum + '0';
 800145a:	7dbb      	ldrb	r3, [r7, #22]
 800145c:	3330      	adds	r3, #48	; 0x30
 800145e:	b2da      	uxtb	r2, r3
 8001460:	68bb      	ldr	r3, [r7, #8]
 8001462:	701a      	strb	r2, [r3, #0]
    path[1] = ':';
 8001464:	68bb      	ldr	r3, [r7, #8]
 8001466:	3301      	adds	r3, #1
 8001468:	223a      	movs	r2, #58	; 0x3a
 800146a:	701a      	strb	r2, [r3, #0]
    path[2] = '/';
 800146c:	68bb      	ldr	r3, [r7, #8]
 800146e:	3302      	adds	r3, #2
 8001470:	222f      	movs	r2, #47	; 0x2f
 8001472:	701a      	strb	r2, [r3, #0]
    path[3] = 0;
 8001474:	68bb      	ldr	r3, [r7, #8]
 8001476:	3303      	adds	r3, #3
 8001478:	2200      	movs	r2, #0
 800147a:	701a      	strb	r2, [r3, #0]
    ret = 0;
 800147c:	2300      	movs	r3, #0
 800147e:	75fb      	strb	r3, [r7, #23]
  }
  
  return ret;
 8001480:	7dfb      	ldrb	r3, [r7, #23]
}
 8001482:	4618      	mov	r0, r3
 8001484:	371c      	adds	r7, #28
 8001486:	46bd      	mov	sp, r7
 8001488:	f85d 7b04 	ldr.w	r7, [sp], #4
 800148c:	4770      	bx	lr
 800148e:	bf00      	nop
 8001490:	20000520 	.word	0x20000520

08001494 <FATFS_LinkDriver>:
  * @param  drv: pointer to the disk IO Driver structure
  * @param  path: pointer to the logical drive path 
  * @retval Returns 0 in case of success, otherwise 1.
  */
uint8_t FATFS_LinkDriver(Diskio_drvTypeDef *drv, char *path)
{
 8001494:	b580      	push	{r7, lr}
 8001496:	b082      	sub	sp, #8
 8001498:	af00      	add	r7, sp, #0
 800149a:	6078      	str	r0, [r7, #4]
 800149c:	6039      	str	r1, [r7, #0]
  return FATFS_LinkDriverEx(drv, path, 0);
 800149e:	2200      	movs	r2, #0
 80014a0:	6839      	ldr	r1, [r7, #0]
 80014a2:	6878      	ldr	r0, [r7, #4]
 80014a4:	f7ff ffaa 	bl	80013fc <FATFS_LinkDriverEx>
 80014a8:	4603      	mov	r3, r0
}
 80014aa:	4618      	mov	r0, r3
 80014ac:	3708      	adds	r7, #8
 80014ae:	46bd      	mov	sp, r7
 80014b0:	bd80      	pop	{r7, pc}
	...

080014b4 <exf_getfree>:

#include "fops.h"
#include "main.h"
#include "string.h"
uint32_t exf_getfree(void)
{
 80014b4:	b580      	push	{r7, lr}
 80014b6:	b0c4      	sub	sp, #272	; 0x110
 80014b8:	af00      	add	r7, sp, #0
    FATFS *fs;
    DWORD fre_clust, fre_sect, tot_sect;

    if(f_getfree(USERPath, &fre_clust, &fs) == FR_OK)
 80014ba:	f507 7282 	add.w	r2, r7, #260	; 0x104
 80014be:	f507 7380 	add.w	r3, r7, #256	; 0x100
 80014c2:	4619      	mov	r1, r3
 80014c4:	4829      	ldr	r0, [pc, #164]	; (800156c <exf_getfree+0xb8>)
 80014c6:	f7ff fee3 	bl	8001290 <f_getfree>
 80014ca:	4603      	mov	r3, r0
 80014cc:	2b00      	cmp	r3, #0
 80014ce:	d147      	bne.n	8001560 <exf_getfree+0xac>
    {
        tot_sect = (fs->n_fatent - 2) * fs->csize;		// 
 80014d0:	f8d7 3104 	ldr.w	r3, [r7, #260]	; 0x104
 80014d4:	695b      	ldr	r3, [r3, #20]
 80014d6:	3b02      	subs	r3, #2
 80014d8:	f8d7 2104 	ldr.w	r2, [r7, #260]	; 0x104
 80014dc:	8952      	ldrh	r2, [r2, #10]
 80014de:	fb02 f303 	mul.w	r3, r2, r3
 80014e2:	f8c7 310c 	str.w	r3, [r7, #268]	; 0x10c
        fre_sect = fre_clust * fs->csize;				// 
 80014e6:	f8d7 3104 	ldr.w	r3, [r7, #260]	; 0x104
 80014ea:	895b      	ldrh	r3, [r3, #10]
 80014ec:	461a      	mov	r2, r3
 80014ee:	f8d7 3100 	ldr.w	r3, [r7, #256]	; 0x100
 80014f2:	fb02 f303 	mul.w	r3, r2, r3
 80014f6:	f8c7 3108 	str.w	r3, [r7, #264]	; 0x108

        tot_sect >>= 11;		// MB
 80014fa:	f8d7 310c 	ldr.w	r3, [r7, #268]	; 0x10c
 80014fe:	0adb      	lsrs	r3, r3, #11
 8001500:	f8c7 310c 	str.w	r3, [r7, #268]	; 0x10c
        fre_sect >>= 11;		// MB
 8001504:	f8d7 3108 	ldr.w	r3, [r7, #264]	; 0x108
 8001508:	0adb      	lsrs	r3, r3, #11
 800150a:	f8c7 3108 	str.w	r3, [r7, #264]	; 0x108

        char buf[256];
        sprintf(buf, "# SD Card Total Size:%ldMB\r\n", tot_sect);
 800150e:	463b      	mov	r3, r7
 8001510:	f8d7 210c 	ldr.w	r2, [r7, #268]	; 0x10c
 8001514:	4916      	ldr	r1, [pc, #88]	; (8001570 <exf_getfree+0xbc>)
 8001516:	4618      	mov	r0, r3
 8001518:	f006 fd00 	bl	8007f1c <siprintf>
        HAL_UART_Transmit(&huart2, (uint8_t*) buf, strlen(buf), 0xffff);
 800151c:	463b      	mov	r3, r7
 800151e:	4618      	mov	r0, r3
 8001520:	f7fe fe56 	bl	80001d0 <strlen>
 8001524:	4603      	mov	r3, r0
 8001526:	b29a      	uxth	r2, r3
 8001528:	4639      	mov	r1, r7
 800152a:	f64f 73ff 	movw	r3, #65535	; 0xffff
 800152e:	4811      	ldr	r0, [pc, #68]	; (8001574 <exf_getfree+0xc0>)
 8001530:	f003 fe21 	bl	8005176 <HAL_UART_Transmit>
        sprintf(buf, "# SD Card Free  Size:%ldMB\r\n", fre_sect);
 8001534:	463b      	mov	r3, r7
 8001536:	f8d7 2108 	ldr.w	r2, [r7, #264]	; 0x108
 800153a:	490f      	ldr	r1, [pc, #60]	; (8001578 <exf_getfree+0xc4>)
 800153c:	4618      	mov	r0, r3
 800153e:	f006 fced 	bl	8007f1c <siprintf>
        HAL_UART_Transmit(&huart2, (uint8_t*) buf, strlen(buf), 0xffff);
 8001542:	463b      	mov	r3, r7
 8001544:	4618      	mov	r0, r3
 8001546:	f7fe fe43 	bl	80001d0 <strlen>
 800154a:	4603      	mov	r3, r0
 800154c:	b29a      	uxth	r2, r3
 800154e:	4639      	mov	r1, r7
 8001550:	f64f 73ff 	movw	r3, #65535	; 0xffff
 8001554:	4807      	ldr	r0, [pc, #28]	; (8001574 <exf_getfree+0xc0>)
 8001556:	f003 fe0e 	bl	8005176 <HAL_UART_Transmit>

        return fre_sect;
 800155a:	f8d7 3108 	ldr.w	r3, [r7, #264]	; 0x108
 800155e:	e7ff      	b.n	8001560 <exf_getfree+0xac>
    }
}
 8001560:	4618      	mov	r0, r3
 8001562:	f507 7788 	add.w	r7, r7, #272	; 0x110
 8001566:	46bd      	mov	sp, r7
 8001568:	bd80      	pop	{r7, pc}
 800156a:	bf00      	nop
 800156c:	200002d4 	.word	0x200002d4
 8001570:	08008820 	.word	0x08008820
 8001574:	200005d8 	.word	0x200005d8
 8001578:	08008840 	.word	0x08008840

0800157c <exf_mount>:

int exf_mount(void)
{
 800157c:	b580      	push	{r7, lr}
 800157e:	b0c2      	sub	sp, #264	; 0x108
 8001580:	af00      	add	r7, sp, #0
	int status_code = f_mount(&USERFatFS, USERPath, 1);
 8001582:	2201      	movs	r2, #1
 8001584:	4912      	ldr	r1, [pc, #72]	; (80015d0 <exf_mount+0x54>)
 8001586:	4813      	ldr	r0, [pc, #76]	; (80015d4 <exf_mount+0x58>)
 8001588:	f7ff fe3c 	bl	8001204 <f_mount>
 800158c:	4603      	mov	r3, r0
 800158e:	f8c7 3104 	str.w	r3, [r7, #260]	; 0x104
	char buf[256];
    sprintf(buf, "# SD Card Mount %s!\r\n",  status_code == FR_OK ? "Successfullly" : "Failed");
 8001592:	f8d7 3104 	ldr.w	r3, [r7, #260]	; 0x104
 8001596:	2b00      	cmp	r3, #0
 8001598:	d101      	bne.n	800159e <exf_mount+0x22>
 800159a:	4a0f      	ldr	r2, [pc, #60]	; (80015d8 <exf_mount+0x5c>)
 800159c:	e000      	b.n	80015a0 <exf_mount+0x24>
 800159e:	4a0f      	ldr	r2, [pc, #60]	; (80015dc <exf_mount+0x60>)
 80015a0:	1d3b      	adds	r3, r7, #4
 80015a2:	490f      	ldr	r1, [pc, #60]	; (80015e0 <exf_mount+0x64>)
 80015a4:	4618      	mov	r0, r3
 80015a6:	f006 fcb9 	bl	8007f1c <siprintf>
    HAL_UART_Transmit(&huart2, (uint8_t*) buf, strlen(buf), 0xffff);
 80015aa:	1d3b      	adds	r3, r7, #4
 80015ac:	4618      	mov	r0, r3
 80015ae:	f7fe fe0f 	bl	80001d0 <strlen>
 80015b2:	4603      	mov	r3, r0
 80015b4:	b29a      	uxth	r2, r3
 80015b6:	1d39      	adds	r1, r7, #4
 80015b8:	f64f 73ff 	movw	r3, #65535	; 0xffff
 80015bc:	4809      	ldr	r0, [pc, #36]	; (80015e4 <exf_mount+0x68>)
 80015be:	f003 fdda 	bl	8005176 <HAL_UART_Transmit>
    return status_code;
 80015c2:	f8d7 3104 	ldr.w	r3, [r7, #260]	; 0x104
}
 80015c6:	4618      	mov	r0, r3
 80015c8:	f507 7784 	add.w	r7, r7, #264	; 0x108
 80015cc:	46bd      	mov	sp, r7
 80015ce:	bd80      	pop	{r7, pc}
 80015d0:	200002d4 	.word	0x200002d4
 80015d4:	200002d8 	.word	0x200002d8
 80015d8:	08008860 	.word	0x08008860
 80015dc:	08008870 	.word	0x08008870
 80015e0:	08008878 	.word	0x08008878
 80015e4:	200005d8 	.word	0x200005d8

080015e8 <SD_init>:

/* Private user code ---------------------------------------------------------*/
/* USER CODE BEGIN 0 */


void SD_init(){
 80015e8:	b580      	push	{r7, lr}
 80015ea:	b088      	sub	sp, #32
 80015ec:	af00      	add	r7, sp, #0
	// One line of LCD contains 21 character
	char buf[22];
	sprintf(buf, "Loading SD card...");
 80015ee:	463b      	mov	r3, r7
 80015f0:	4930      	ldr	r1, [pc, #192]	; (80016b4 <SD_init+0xcc>)
 80015f2:	4618      	mov	r0, r3
 80015f4:	f006 fc92 	bl	8007f1c <siprintf>
	LCD_FStr(buf, 0, 0);
 80015f8:	463b      	mov	r3, r7
 80015fa:	2200      	movs	r2, #0
 80015fc:	2100      	movs	r1, #0
 80015fe:	4618      	mov	r0, r3
 8001600:	f7ff f8ac 	bl	800075c <LCD_FStr>
	LCD_Update();
 8001604:	f7ff f80e 	bl	8000624 <LCD_Update>

	// Wait 1 second before loading SD card
	HAL_Delay(1000);
 8001608:	f44f 707a 	mov.w	r0, #1000	; 0x3e8
 800160c:	f001 faf4 	bl	8002bf8 <HAL_Delay>

	// Clear LCD before showing anything
	LCD_Clear();
 8001610:	f7fe ffe4 	bl	80005dc <LCD_Clear>

	MX_FATFS_Init();
 8001614:	f7ff f960 	bl	80008d8 <MX_FATFS_Init>

	LCD_Clear();
 8001618:	f7fe ffe0 	bl	80005dc <LCD_Clear>
	int mount = exf_mount();
 800161c:	f7ff ffae 	bl	800157c <exf_mount>
 8001620:	61f8      	str	r0, [r7, #28]
	sprintf(buf, "SD card mount");
 8001622:	463b      	mov	r3, r7
 8001624:	4924      	ldr	r1, [pc, #144]	; (80016b8 <SD_init+0xd0>)
 8001626:	4618      	mov	r0, r3
 8001628:	f006 fc78 	bl	8007f1c <siprintf>
	LCD_FStr(buf, 0, 0);
 800162c:	463b      	mov	r3, r7
 800162e:	2200      	movs	r2, #0
 8001630:	2100      	movs	r1, #0
 8001632:	4618      	mov	r0, r3
 8001634:	f7ff f892 	bl	800075c <LCD_FStr>
	sprintf(buf, "%s", mount == FR_OK ? "Success" : "Fail");
 8001638:	69fb      	ldr	r3, [r7, #28]
 800163a:	2b00      	cmp	r3, #0
 800163c:	d101      	bne.n	8001642 <SD_init+0x5a>
 800163e:	4a1f      	ldr	r2, [pc, #124]	; (80016bc <SD_init+0xd4>)
 8001640:	e000      	b.n	8001644 <SD_init+0x5c>
 8001642:	4a1f      	ldr	r2, [pc, #124]	; (80016c0 <SD_init+0xd8>)
 8001644:	463b      	mov	r3, r7
 8001646:	491f      	ldr	r1, [pc, #124]	; (80016c4 <SD_init+0xdc>)
 8001648:	4618      	mov	r0, r3
 800164a:	f006 fc67 	bl	8007f1c <siprintf>
	LCD_FStr(buf, 0, 1);
 800164e:	463b      	mov	r3, r7
 8001650:	2201      	movs	r2, #1
 8001652:	2100      	movs	r1, #0
 8001654:	4618      	mov	r0, r3
 8001656:	f7ff f881 	bl	800075c <LCD_FStr>
	LCD_Update();
 800165a:	f7fe ffe3 	bl	8000624 <LCD_Update>
	HAL_Delay(1000);
 800165e:	f44f 707a 	mov.w	r0, #1000	; 0x3e8
 8001662:	f001 fac9 	bl	8002bf8 <HAL_Delay>

	LCD_Clear();
 8001666:	f7fe ffb9 	bl	80005dc <LCD_Clear>
	unsigned free = exf_getfree();
 800166a:	f7ff ff23 	bl	80014b4 <exf_getfree>
 800166e:	61b8      	str	r0, [r7, #24]
	sprintf(buf, "SD card free space");
 8001670:	463b      	mov	r3, r7
 8001672:	4915      	ldr	r1, [pc, #84]	; (80016c8 <SD_init+0xe0>)
 8001674:	4618      	mov	r0, r3
 8001676:	f006 fc51 	bl	8007f1c <siprintf>
	LCD_FStr(buf, 0, 0);
 800167a:	463b      	mov	r3, r7
 800167c:	2200      	movs	r2, #0
 800167e:	2100      	movs	r1, #0
 8001680:	4618      	mov	r0, r3
 8001682:	f7ff f86b 	bl	800075c <LCD_FStr>
	sprintf(buf, "%u MB", free);
 8001686:	463b      	mov	r3, r7
 8001688:	69ba      	ldr	r2, [r7, #24]
 800168a:	4910      	ldr	r1, [pc, #64]	; (80016cc <SD_init+0xe4>)
 800168c:	4618      	mov	r0, r3
 800168e:	f006 fc45 	bl	8007f1c <siprintf>
	LCD_FStr(buf, 0, 1);
 8001692:	463b      	mov	r3, r7
 8001694:	2201      	movs	r2, #1
 8001696:	2100      	movs	r1, #0
 8001698:	4618      	mov	r0, r3
 800169a:	f7ff f85f 	bl	800075c <LCD_FStr>
	LCD_Update();
 800169e:	f7fe ffc1 	bl	8000624 <LCD_Update>
	HAL_Delay(1000);
 80016a2:	f44f 707a 	mov.w	r0, #1000	; 0x3e8
 80016a6:	f001 faa7 	bl	8002bf8 <HAL_Delay>
	return;
 80016aa:	bf00      	nop
};
 80016ac:	3720      	adds	r7, #32
 80016ae:	46bd      	mov	sp, r7
 80016b0:	bd80      	pop	{r7, pc}
 80016b2:	bf00      	nop
 80016b4:	08008938 	.word	0x08008938
 80016b8:	0800894c 	.word	0x0800894c
 80016bc:	0800895c 	.word	0x0800895c
 80016c0:	08008964 	.word	0x08008964
 80016c4:	0800896c 	.word	0x0800896c
 80016c8:	08008970 	.word	0x08008970
 80016cc:	08008984 	.word	0x08008984

080016d0 <OLED_task>:

void OLED_task(void * pvParameters) {
 80016d0:	b580      	push	{r7, lr}
 80016d2:	b088      	sub	sp, #32
 80016d4:	af00      	add	r7, sp, #0
 80016d6:	6078      	str	r0, [r7, #4]
	char buf[22];
	while(1){
		if(OLED_display_status == OLED_MENU){
 80016d8:	4b81      	ldr	r3, [pc, #516]	; (80018e0 <OLED_task+0x210>)
 80016da:	681b      	ldr	r3, [r3, #0]
 80016dc:	2b01      	cmp	r3, #1
 80016de:	d154      	bne.n	800178a <OLED_task+0xba>
			// Clear OLED before displaying stuff
			LCD_Clear();
 80016e0:	f7fe ff7c 	bl	80005dc <LCD_Clear>
			sprintf(buf, "%c %s", (menu_select == MENU_FILE_BROWSER) ? '>' : ' ', "File Browser");
 80016e4:	4b7f      	ldr	r3, [pc, #508]	; (80018e4 <OLED_task+0x214>)
 80016e6:	681b      	ldr	r3, [r3, #0]
 80016e8:	2b00      	cmp	r3, #0
 80016ea:	d101      	bne.n	80016f0 <OLED_task+0x20>
 80016ec:	223e      	movs	r2, #62	; 0x3e
 80016ee:	e000      	b.n	80016f2 <OLED_task+0x22>
 80016f0:	2220      	movs	r2, #32
 80016f2:	f107 0008 	add.w	r0, r7, #8
 80016f6:	4b7c      	ldr	r3, [pc, #496]	; (80018e8 <OLED_task+0x218>)
 80016f8:	497c      	ldr	r1, [pc, #496]	; (80018ec <OLED_task+0x21c>)
 80016fa:	f006 fc0f 	bl	8007f1c <siprintf>
			LCD_FStr(buf, 0, 0);
 80016fe:	f107 0308 	add.w	r3, r7, #8
 8001702:	2200      	movs	r2, #0
 8001704:	2100      	movs	r1, #0
 8001706:	4618      	mov	r0, r3
 8001708:	f7ff f828 	bl	800075c <LCD_FStr>
			sprintf(buf, "%c %s", (menu_select == MENU_PLAYER) ? '>' : ' ', "Player");
 800170c:	4b75      	ldr	r3, [pc, #468]	; (80018e4 <OLED_task+0x214>)
 800170e:	681b      	ldr	r3, [r3, #0]
 8001710:	2b01      	cmp	r3, #1
 8001712:	d101      	bne.n	8001718 <OLED_task+0x48>
 8001714:	223e      	movs	r2, #62	; 0x3e
 8001716:	e000      	b.n	800171a <OLED_task+0x4a>
 8001718:	2220      	movs	r2, #32
 800171a:	f107 0008 	add.w	r0, r7, #8
 800171e:	4b74      	ldr	r3, [pc, #464]	; (80018f0 <OLED_task+0x220>)
 8001720:	4972      	ldr	r1, [pc, #456]	; (80018ec <OLED_task+0x21c>)
 8001722:	f006 fbfb 	bl	8007f1c <siprintf>
			LCD_FStr(buf, 0, 1);
 8001726:	f107 0308 	add.w	r3, r7, #8
 800172a:	2201      	movs	r2, #1
 800172c:	2100      	movs	r1, #0
 800172e:	4618      	mov	r0, r3
 8001730:	f7ff f814 	bl	800075c <LCD_FStr>
			sprintf(buf, "%c %s", (menu_select == MENU_SETTING) ? '>' : ' ', "Setting");
 8001734:	4b6b      	ldr	r3, [pc, #428]	; (80018e4 <OLED_task+0x214>)
 8001736:	681b      	ldr	r3, [r3, #0]
 8001738:	2b02      	cmp	r3, #2
 800173a:	d101      	bne.n	8001740 <OLED_task+0x70>
 800173c:	223e      	movs	r2, #62	; 0x3e
 800173e:	e000      	b.n	8001742 <OLED_task+0x72>
 8001740:	2220      	movs	r2, #32
 8001742:	f107 0008 	add.w	r0, r7, #8
 8001746:	4b6b      	ldr	r3, [pc, #428]	; (80018f4 <OLED_task+0x224>)
 8001748:	4968      	ldr	r1, [pc, #416]	; (80018ec <OLED_task+0x21c>)
 800174a:	f006 fbe7 	bl	8007f1c <siprintf>
			LCD_FStr(buf, 0, 2);
 800174e:	f107 0308 	add.w	r3, r7, #8
 8001752:	2202      	movs	r2, #2
 8001754:	2100      	movs	r1, #0
 8001756:	4618      	mov	r0, r3
 8001758:	f7ff f800 	bl	800075c <LCD_FStr>
			sprintf(buf, "%c %s", (menu_select == MENU_ABOUT) ? '>' : ' ', "About");
 800175c:	4b61      	ldr	r3, [pc, #388]	; (80018e4 <OLED_task+0x214>)
 800175e:	681b      	ldr	r3, [r3, #0]
 8001760:	2b03      	cmp	r3, #3
 8001762:	d101      	bne.n	8001768 <OLED_task+0x98>
 8001764:	223e      	movs	r2, #62	; 0x3e
 8001766:	e000      	b.n	800176a <OLED_task+0x9a>
 8001768:	2220      	movs	r2, #32
 800176a:	f107 0008 	add.w	r0, r7, #8
 800176e:	4b62      	ldr	r3, [pc, #392]	; (80018f8 <OLED_task+0x228>)
 8001770:	495e      	ldr	r1, [pc, #376]	; (80018ec <OLED_task+0x21c>)
 8001772:	f006 fbd3 	bl	8007f1c <siprintf>
			LCD_FStr(buf, 0, 3);
 8001776:	f107 0308 	add.w	r3, r7, #8
 800177a:	2203      	movs	r2, #3
 800177c:	2100      	movs	r1, #0
 800177e:	4618      	mov	r0, r3
 8001780:	f7fe ffec 	bl	800075c <LCD_FStr>
			LCD_Update();
 8001784:	f7fe ff4e 	bl	8000624 <LCD_Update>
 8001788:	e0a4      	b.n	80018d4 <OLED_task+0x204>
		}
		else if(OLED_display_status == OLED_FILE_BROWSER){
 800178a:	4b55      	ldr	r3, [pc, #340]	; (80018e0 <OLED_task+0x210>)
 800178c:	681b      	ldr	r3, [r3, #0]
 800178e:	2b02      	cmp	r3, #2
 8001790:	d11e      	bne.n	80017d0 <OLED_task+0x100>
			LCD_Clear();
 8001792:	f7fe ff23 	bl	80005dc <LCD_Clear>
			sprintf(buf, "File Browser");
 8001796:	f107 0308 	add.w	r3, r7, #8
 800179a:	4953      	ldr	r1, [pc, #332]	; (80018e8 <OLED_task+0x218>)
 800179c:	4618      	mov	r0, r3
 800179e:	f006 fbbd 	bl	8007f1c <siprintf>
			LCD_FStr(buf, 0, 0);
 80017a2:	f107 0308 	add.w	r3, r7, #8
 80017a6:	2200      	movs	r2, #0
 80017a8:	2100      	movs	r1, #0
 80017aa:	4618      	mov	r0, r3
 80017ac:	f7fe ffd6 	bl	800075c <LCD_FStr>
			sprintf(buf, "Placeholder");
 80017b0:	f107 0308 	add.w	r3, r7, #8
 80017b4:	4951      	ldr	r1, [pc, #324]	; (80018fc <OLED_task+0x22c>)
 80017b6:	4618      	mov	r0, r3
 80017b8:	f006 fbb0 	bl	8007f1c <siprintf>
			LCD_FStr(buf, 0, 1);
 80017bc:	f107 0308 	add.w	r3, r7, #8
 80017c0:	2201      	movs	r2, #1
 80017c2:	2100      	movs	r1, #0
 80017c4:	4618      	mov	r0, r3
 80017c6:	f7fe ffc9 	bl	800075c <LCD_FStr>
			LCD_Update();
 80017ca:	f7fe ff2b 	bl	8000624 <LCD_Update>
 80017ce:	e081      	b.n	80018d4 <OLED_task+0x204>
		}
		else if(OLED_display_status == OLED_PLAYER){
 80017d0:	4b43      	ldr	r3, [pc, #268]	; (80018e0 <OLED_task+0x210>)
 80017d2:	681b      	ldr	r3, [r3, #0]
 80017d4:	2b03      	cmp	r3, #3
 80017d6:	d11e      	bne.n	8001816 <OLED_task+0x146>
			LCD_Clear();
 80017d8:	f7fe ff00 	bl	80005dc <LCD_Clear>
			sprintf(buf, "Player");
 80017dc:	f107 0308 	add.w	r3, r7, #8
 80017e0:	4943      	ldr	r1, [pc, #268]	; (80018f0 <OLED_task+0x220>)
 80017e2:	4618      	mov	r0, r3
 80017e4:	f006 fb9a 	bl	8007f1c <siprintf>
			LCD_FStr(buf, 0, 0);
 80017e8:	f107 0308 	add.w	r3, r7, #8
 80017ec:	2200      	movs	r2, #0
 80017ee:	2100      	movs	r1, #0
 80017f0:	4618      	mov	r0, r3
 80017f2:	f7fe ffb3 	bl	800075c <LCD_FStr>
			sprintf(buf, "Placeholder");
 80017f6:	f107 0308 	add.w	r3, r7, #8
 80017fa:	4940      	ldr	r1, [pc, #256]	; (80018fc <OLED_task+0x22c>)
 80017fc:	4618      	mov	r0, r3
 80017fe:	f006 fb8d 	bl	8007f1c <siprintf>
			LCD_FStr(buf, 0, 1);
 8001802:	f107 0308 	add.w	r3, r7, #8
 8001806:	2201      	movs	r2, #1
 8001808:	2100      	movs	r1, #0
 800180a:	4618      	mov	r0, r3
 800180c:	f7fe ffa6 	bl	800075c <LCD_FStr>
			LCD_Update();
 8001810:	f7fe ff08 	bl	8000624 <LCD_Update>
 8001814:	e05e      	b.n	80018d4 <OLED_task+0x204>
		}
		else if(OLED_display_status == OLED_SETTING){
 8001816:	4b32      	ldr	r3, [pc, #200]	; (80018e0 <OLED_task+0x210>)
 8001818:	681b      	ldr	r3, [r3, #0]
 800181a:	2b04      	cmp	r3, #4
 800181c:	d11e      	bne.n	800185c <OLED_task+0x18c>
			LCD_Clear();
 800181e:	f7fe fedd 	bl	80005dc <LCD_Clear>
			sprintf(buf, "Setting");
 8001822:	f107 0308 	add.w	r3, r7, #8
 8001826:	4933      	ldr	r1, [pc, #204]	; (80018f4 <OLED_task+0x224>)
 8001828:	4618      	mov	r0, r3
 800182a:	f006 fb77 	bl	8007f1c <siprintf>
			LCD_FStr(buf, 0, 0);
 800182e:	f107 0308 	add.w	r3, r7, #8
 8001832:	2200      	movs	r2, #0
 8001834:	2100      	movs	r1, #0
 8001836:	4618      	mov	r0, r3
 8001838:	f7fe ff90 	bl	800075c <LCD_FStr>
			sprintf(buf, "Placeholder");
 800183c:	f107 0308 	add.w	r3, r7, #8
 8001840:	492e      	ldr	r1, [pc, #184]	; (80018fc <OLED_task+0x22c>)
 8001842:	4618      	mov	r0, r3
 8001844:	f006 fb6a 	bl	8007f1c <siprintf>
			LCD_FStr(buf, 0, 1);
 8001848:	f107 0308 	add.w	r3, r7, #8
 800184c:	2201      	movs	r2, #1
 800184e:	2100      	movs	r1, #0
 8001850:	4618      	mov	r0, r3
 8001852:	f7fe ff83 	bl	800075c <LCD_FStr>
			LCD_Update();
 8001856:	f7fe fee5 	bl	8000624 <LCD_Update>
 800185a:	e03b      	b.n	80018d4 <OLED_task+0x204>
		}
		else if(OLED_display_status == OLED_ABOUT){
 800185c:	4b20      	ldr	r3, [pc, #128]	; (80018e0 <OLED_task+0x210>)
 800185e:	681b      	ldr	r3, [r3, #0]
 8001860:	2b05      	cmp	r3, #5
 8001862:	d137      	bne.n	80018d4 <OLED_task+0x204>
			LCD_Clear();
 8001864:	f7fe feba 	bl	80005dc <LCD_Clear>
			sprintf(buf, "AudioPlayer");
 8001868:	f107 0308 	add.w	r3, r7, #8
 800186c:	4924      	ldr	r1, [pc, #144]	; (8001900 <OLED_task+0x230>)
 800186e:	4618      	mov	r0, r3
 8001870:	f006 fb54 	bl	8007f1c <siprintf>
			LCD_FStr(buf, 0, 0);
 8001874:	f107 0308 	add.w	r3, r7, #8
 8001878:	2200      	movs	r2, #0
 800187a:	2100      	movs	r1, #0
 800187c:	4618      	mov	r0, r3
 800187e:	f7fe ff6d 	bl	800075c <LCD_FStr>
			sprintf(buf, "NCKU CSIE EOS project");
 8001882:	f107 0308 	add.w	r3, r7, #8
 8001886:	491f      	ldr	r1, [pc, #124]	; (8001904 <OLED_task+0x234>)
 8001888:	4618      	mov	r0, r3
 800188a:	f006 fb47 	bl	8007f1c <siprintf>
			LCD_FStr(buf, 0, 1);
 800188e:	f107 0308 	add.w	r3, r7, #8
 8001892:	2201      	movs	r2, #1
 8001894:	2100      	movs	r1, #0
 8001896:	4618      	mov	r0, r3
 8001898:	f7fe ff60 	bl	800075c <LCD_FStr>
			sprintf(buf, "2022");
 800189c:	f107 0308 	add.w	r3, r7, #8
 80018a0:	4919      	ldr	r1, [pc, #100]	; (8001908 <OLED_task+0x238>)
 80018a2:	4618      	mov	r0, r3
 80018a4:	f006 fb3a 	bl	8007f1c <siprintf>
			LCD_FStr(buf, 0, 2);
 80018a8:	f107 0308 	add.w	r3, r7, #8
 80018ac:	2202      	movs	r2, #2
 80018ae:	2100      	movs	r1, #0
 80018b0:	4618      	mov	r0, r3
 80018b2:	f7fe ff53 	bl	800075c <LCD_FStr>
			sprintf(buf, "Press any key to menu");
 80018b6:	f107 0308 	add.w	r3, r7, #8
 80018ba:	4914      	ldr	r1, [pc, #80]	; (800190c <OLED_task+0x23c>)
 80018bc:	4618      	mov	r0, r3
 80018be:	f006 fb2d 	bl	8007f1c <siprintf>
			LCD_FStr(buf, 0, 3);
 80018c2:	f107 0308 	add.w	r3, r7, #8
 80018c6:	2203      	movs	r2, #3
 80018c8:	2100      	movs	r1, #0
 80018ca:	4618      	mov	r0, r3
 80018cc:	f7fe ff46 	bl	800075c <LCD_FStr>
			LCD_Update();
 80018d0:	f7fe fea8 	bl	8000624 <LCD_Update>
		}
		vTaskDelay(1000);
 80018d4:	f44f 707a 	mov.w	r0, #1000	; 0x3e8
 80018d8:	f004 fe60 	bl	800659c <vTaskDelay>
		if(OLED_display_status == OLED_MENU){
 80018dc:	e6fc      	b.n	80016d8 <OLED_task+0x8>
 80018de:	bf00      	nop
 80018e0:	2000001c 	.word	0x2000001c
 80018e4:	2000061c 	.word	0x2000061c
 80018e8:	0800898c 	.word	0x0800898c
 80018ec:	0800899c 	.word	0x0800899c
 80018f0:	080089a4 	.word	0x080089a4
 80018f4:	080089ac 	.word	0x080089ac
 80018f8:	080089b4 	.word	0x080089b4
 80018fc:	080089bc 	.word	0x080089bc
 8001900:	080089c8 	.word	0x080089c8
 8001904:	080089d4 	.word	0x080089d4
 8001908:	080089ec 	.word	0x080089ec
 800190c:	080089f4 	.word	0x080089f4

08001910 <timer_task>:
	}
	return;
};

void timer_task(void * pvParameters) {
 8001910:	b580      	push	{r7, lr}
 8001912:	b082      	sub	sp, #8
 8001914:	af00      	add	r7, sp, #0
 8001916:	6078      	str	r0, [r7, #4]
	while(1){
		globalTime++;
 8001918:	4b04      	ldr	r3, [pc, #16]	; (800192c <timer_task+0x1c>)
 800191a:	681b      	ldr	r3, [r3, #0]
 800191c:	3301      	adds	r3, #1
 800191e:	4a03      	ldr	r2, [pc, #12]	; (800192c <timer_task+0x1c>)
 8001920:	6013      	str	r3, [r2, #0]
		vTaskDelay(1000);
 8001922:	f44f 707a 	mov.w	r0, #1000	; 0x3e8
 8001926:	f004 fe39 	bl	800659c <vTaskDelay>
		globalTime++;
 800192a:	e7f5      	b.n	8001918 <timer_task+0x8>
 800192c:	20000620 	.word	0x20000620

08001930 <main>:
/**
  * @brief  The application entry point.
  * @retval int
  */
int main(void)
{
 8001930:	b580      	push	{r7, lr}
 8001932:	b082      	sub	sp, #8
 8001934:	af02      	add	r7, sp, #8
  /* USER CODE END 1 */

  /* MCU Configuration--------------------------------------------------------*/

  /* Reset of all peripherals, Initializes the Flash interface and the Systick. */
  HAL_Init();
 8001936:	f001 f91d 	bl	8002b74 <HAL_Init>
  /* USER CODE BEGIN Init */

  /* USER CODE END Init */

  /* Configure the system clock */
  SystemClock_Config();
 800193a:	f000 f82d 	bl	8001998 <SystemClock_Config>
  /* USER CODE BEGIN SysInit */

  /* USER CODE END SysInit */

  /* Initialize all configured peripherals */
  MX_GPIO_Init();
 800193e:	f000 f917 	bl	8001b70 <MX_GPIO_Init>
  MX_USART2_UART_Init();
 8001942:	f000 f8eb 	bl	8001b1c <MX_USART2_UART_Init>
  MX_I2C1_Init();
 8001946:	f000 f885 	bl	8001a54 <MX_I2C1_Init>
  MX_SPI1_Init();
 800194a:	f000 f8b1 	bl	8001ab0 <MX_SPI1_Init>
  /* USER CODE BEGIN 2 */

  LCD_Init();
 800194e:	f7fe fe19 	bl	8000584 <LCD_Init>

  // Init SD card here
  SD_init();
 8001952:	f7ff fe49 	bl	80015e8 <SD_init>

  // Start task here
  xTaskCreate(OLED_task, "OLED_task", STACK_SIZE, (void *) NULL, 14, NULL);
 8001956:	2300      	movs	r3, #0
 8001958:	9301      	str	r3, [sp, #4]
 800195a:	230e      	movs	r3, #14
 800195c:	9300      	str	r3, [sp, #0]
 800195e:	2300      	movs	r3, #0
 8001960:	f44f 7280 	mov.w	r2, #256	; 0x100
 8001964:	4908      	ldr	r1, [pc, #32]	; (8001988 <main+0x58>)
 8001966:	4809      	ldr	r0, [pc, #36]	; (800198c <main+0x5c>)
 8001968:	f004 fcda 	bl	8006320 <xTaskCreate>
  xTaskCreate(timer_task, "timer_task", STACK_SIZE, (void *) NULL, 1, NULL);
 800196c:	2300      	movs	r3, #0
 800196e:	9301      	str	r3, [sp, #4]
 8001970:	2301      	movs	r3, #1
 8001972:	9300      	str	r3, [sp, #0]
 8001974:	2300      	movs	r3, #0
 8001976:	f44f 7280 	mov.w	r2, #256	; 0x100
 800197a:	4905      	ldr	r1, [pc, #20]	; (8001990 <main+0x60>)
 800197c:	4805      	ldr	r0, [pc, #20]	; (8001994 <main+0x64>)
 800197e:	f004 fccf 	bl	8006320 <xTaskCreate>

  // Start scheduler here
  vTaskStartScheduler();
 8001982:	f004 fe3f 	bl	8006604 <vTaskStartScheduler>
  /* USER CODE END 2 */

  /* Infinite loop */
  /* USER CODE BEGIN WHILE */
  while (1)
 8001986:	e7fe      	b.n	8001986 <main+0x56>
 8001988:	08008a0c 	.word	0x08008a0c
 800198c:	080016d1 	.word	0x080016d1
 8001990:	08008a18 	.word	0x08008a18
 8001994:	08001911 	.word	0x08001911

08001998 <SystemClock_Config>:
/**
  * @brief System Clock Configuration
  * @retval None
  */
void SystemClock_Config(void)
{
 8001998:	b580      	push	{r7, lr}
 800199a:	b094      	sub	sp, #80	; 0x50
 800199c:	af00      	add	r7, sp, #0
  RCC_OscInitTypeDef RCC_OscInitStruct = {0};
 800199e:	f107 0320 	add.w	r3, r7, #32
 80019a2:	2230      	movs	r2, #48	; 0x30
 80019a4:	2100      	movs	r1, #0
 80019a6:	4618      	mov	r0, r3
 80019a8:	f006 fab0 	bl	8007f0c <memset>
  RCC_ClkInitTypeDef RCC_ClkInitStruct = {0};
 80019ac:	f107 030c 	add.w	r3, r7, #12
 80019b0:	2200      	movs	r2, #0
 80019b2:	601a      	str	r2, [r3, #0]
 80019b4:	605a      	str	r2, [r3, #4]
 80019b6:	609a      	str	r2, [r3, #8]
 80019b8:	60da      	str	r2, [r3, #12]
 80019ba:	611a      	str	r2, [r3, #16]

  /** Configure the main internal regulator output voltage
  */
  __HAL_RCC_PWR_CLK_ENABLE();
 80019bc:	2300      	movs	r3, #0
 80019be:	60bb      	str	r3, [r7, #8]
 80019c0:	4b22      	ldr	r3, [pc, #136]	; (8001a4c <SystemClock_Config+0xb4>)
 80019c2:	6c1b      	ldr	r3, [r3, #64]	; 0x40
 80019c4:	4a21      	ldr	r2, [pc, #132]	; (8001a4c <SystemClock_Config+0xb4>)
 80019c6:	f043 5380 	orr.w	r3, r3, #268435456	; 0x10000000
 80019ca:	6413      	str	r3, [r2, #64]	; 0x40
 80019cc:	4b1f      	ldr	r3, [pc, #124]	; (8001a4c <SystemClock_Config+0xb4>)
 80019ce:	6c1b      	ldr	r3, [r3, #64]	; 0x40
 80019d0:	f003 5380 	and.w	r3, r3, #268435456	; 0x10000000
 80019d4:	60bb      	str	r3, [r7, #8]
 80019d6:	68bb      	ldr	r3, [r7, #8]
  __HAL_PWR_VOLTAGESCALING_CONFIG(PWR_REGULATOR_VOLTAGE_SCALE1);
 80019d8:	2300      	movs	r3, #0
 80019da:	607b      	str	r3, [r7, #4]
 80019dc:	4b1c      	ldr	r3, [pc, #112]	; (8001a50 <SystemClock_Config+0xb8>)
 80019de:	681b      	ldr	r3, [r3, #0]
 80019e0:	4a1b      	ldr	r2, [pc, #108]	; (8001a50 <SystemClock_Config+0xb8>)
 80019e2:	f443 4380 	orr.w	r3, r3, #16384	; 0x4000
 80019e6:	6013      	str	r3, [r2, #0]
 80019e8:	4b19      	ldr	r3, [pc, #100]	; (8001a50 <SystemClock_Config+0xb8>)
 80019ea:	681b      	ldr	r3, [r3, #0]
 80019ec:	f403 4380 	and.w	r3, r3, #16384	; 0x4000
 80019f0:	607b      	str	r3, [r7, #4]
 80019f2:	687b      	ldr	r3, [r7, #4]

  /** Initializes the RCC Oscillators according to the specified parameters
  * in the RCC_OscInitTypeDef structure.
  */
  RCC_OscInitStruct.OscillatorType = RCC_OSCILLATORTYPE_HSI;
 80019f4:	2302      	movs	r3, #2
 80019f6:	623b      	str	r3, [r7, #32]
  RCC_OscInitStruct.HSIState = RCC_HSI_ON;
 80019f8:	2301      	movs	r3, #1
 80019fa:	62fb      	str	r3, [r7, #44]	; 0x2c
  RCC_OscInitStruct.HSICalibrationValue = RCC_HSICALIBRATION_DEFAULT;
 80019fc:	2310      	movs	r3, #16
 80019fe:	633b      	str	r3, [r7, #48]	; 0x30
  RCC_OscInitStruct.PLL.PLLState = RCC_PLL_NONE;
 8001a00:	2300      	movs	r3, #0
 8001a02:	63bb      	str	r3, [r7, #56]	; 0x38
  if (HAL_RCC_OscConfig(&RCC_OscInitStruct) != HAL_OK)
 8001a04:	f107 0320 	add.w	r3, r7, #32
 8001a08:	4618      	mov	r0, r3
 8001a0a:	f002 f911 	bl	8003c30 <HAL_RCC_OscConfig>
 8001a0e:	4603      	mov	r3, r0
 8001a10:	2b00      	cmp	r3, #0
 8001a12:	d001      	beq.n	8001a18 <SystemClock_Config+0x80>
  {
    Error_Handler();
 8001a14:	f000 fac2 	bl	8001f9c <Error_Handler>
  }

  /** Initializes the CPU, AHB and APB buses clocks
  */
  RCC_ClkInitStruct.ClockType = RCC_CLOCKTYPE_HCLK|RCC_CLOCKTYPE_SYSCLK
 8001a18:	230f      	movs	r3, #15
 8001a1a:	60fb      	str	r3, [r7, #12]
                              |RCC_CLOCKTYPE_PCLK1|RCC_CLOCKTYPE_PCLK2;
  RCC_ClkInitStruct.SYSCLKSource = RCC_SYSCLKSOURCE_HSI;
 8001a1c:	2300      	movs	r3, #0
 8001a1e:	613b      	str	r3, [r7, #16]
  RCC_ClkInitStruct.AHBCLKDivider = RCC_SYSCLK_DIV1;
 8001a20:	2300      	movs	r3, #0
 8001a22:	617b      	str	r3, [r7, #20]
  RCC_ClkInitStruct.APB1CLKDivider = RCC_HCLK_DIV1;
 8001a24:	2300      	movs	r3, #0
 8001a26:	61bb      	str	r3, [r7, #24]
  RCC_ClkInitStruct.APB2CLKDivider = RCC_HCLK_DIV1;
 8001a28:	2300      	movs	r3, #0
 8001a2a:	61fb      	str	r3, [r7, #28]

  if (HAL_RCC_ClockConfig(&RCC_ClkInitStruct, FLASH_LATENCY_0) != HAL_OK)
 8001a2c:	f107 030c 	add.w	r3, r7, #12
 8001a30:	2100      	movs	r1, #0
 8001a32:	4618      	mov	r0, r3
 8001a34:	f002 fb74 	bl	8004120 <HAL_RCC_ClockConfig>
 8001a38:	4603      	mov	r3, r0
 8001a3a:	2b00      	cmp	r3, #0
 8001a3c:	d001      	beq.n	8001a42 <SystemClock_Config+0xaa>
  {
    Error_Handler();
 8001a3e:	f000 faad 	bl	8001f9c <Error_Handler>
  }
}
 8001a42:	bf00      	nop
 8001a44:	3750      	adds	r7, #80	; 0x50
 8001a46:	46bd      	mov	sp, r7
 8001a48:	bd80      	pop	{r7, pc}
 8001a4a:	bf00      	nop
 8001a4c:	40023800 	.word	0x40023800
 8001a50:	40007000 	.word	0x40007000

08001a54 <MX_I2C1_Init>:
  * @brief I2C1 Initialization Function
  * @param None
  * @retval None
  */
static void MX_I2C1_Init(void)
{
 8001a54:	b580      	push	{r7, lr}
 8001a56:	af00      	add	r7, sp, #0
  /* USER CODE END I2C1_Init 0 */

  /* USER CODE BEGIN I2C1_Init 1 */

  /* USER CODE END I2C1_Init 1 */
  hi2c1.Instance = I2C1;
 8001a58:	4b12      	ldr	r3, [pc, #72]	; (8001aa4 <MX_I2C1_Init+0x50>)
 8001a5a:	4a13      	ldr	r2, [pc, #76]	; (8001aa8 <MX_I2C1_Init+0x54>)
 8001a5c:	601a      	str	r2, [r3, #0]
  hi2c1.Init.ClockSpeed = 100000;
 8001a5e:	4b11      	ldr	r3, [pc, #68]	; (8001aa4 <MX_I2C1_Init+0x50>)
 8001a60:	4a12      	ldr	r2, [pc, #72]	; (8001aac <MX_I2C1_Init+0x58>)
 8001a62:	605a      	str	r2, [r3, #4]
  hi2c1.Init.DutyCycle = I2C_DUTYCYCLE_2;
 8001a64:	4b0f      	ldr	r3, [pc, #60]	; (8001aa4 <MX_I2C1_Init+0x50>)
 8001a66:	2200      	movs	r2, #0
 8001a68:	609a      	str	r2, [r3, #8]
  hi2c1.Init.OwnAddress1 = 0;
 8001a6a:	4b0e      	ldr	r3, [pc, #56]	; (8001aa4 <MX_I2C1_Init+0x50>)
 8001a6c:	2200      	movs	r2, #0
 8001a6e:	60da      	str	r2, [r3, #12]
  hi2c1.Init.AddressingMode = I2C_ADDRESSINGMODE_7BIT;
 8001a70:	4b0c      	ldr	r3, [pc, #48]	; (8001aa4 <MX_I2C1_Init+0x50>)
 8001a72:	f44f 4280 	mov.w	r2, #16384	; 0x4000
 8001a76:	611a      	str	r2, [r3, #16]
  hi2c1.Init.DualAddressMode = I2C_DUALADDRESS_DISABLE;
 8001a78:	4b0a      	ldr	r3, [pc, #40]	; (8001aa4 <MX_I2C1_Init+0x50>)
 8001a7a:	2200      	movs	r2, #0
 8001a7c:	615a      	str	r2, [r3, #20]
  hi2c1.Init.OwnAddress2 = 0;
 8001a7e:	4b09      	ldr	r3, [pc, #36]	; (8001aa4 <MX_I2C1_Init+0x50>)
 8001a80:	2200      	movs	r2, #0
 8001a82:	619a      	str	r2, [r3, #24]
  hi2c1.Init.GeneralCallMode = I2C_GENERALCALL_DISABLE;
 8001a84:	4b07      	ldr	r3, [pc, #28]	; (8001aa4 <MX_I2C1_Init+0x50>)
 8001a86:	2200      	movs	r2, #0
 8001a88:	61da      	str	r2, [r3, #28]
  hi2c1.Init.NoStretchMode = I2C_NOSTRETCH_DISABLE;
 8001a8a:	4b06      	ldr	r3, [pc, #24]	; (8001aa4 <MX_I2C1_Init+0x50>)
 8001a8c:	2200      	movs	r2, #0
 8001a8e:	621a      	str	r2, [r3, #32]
  if (HAL_I2C_Init(&hi2c1) != HAL_OK)
 8001a90:	4804      	ldr	r0, [pc, #16]	; (8001aa4 <MX_I2C1_Init+0x50>)
 8001a92:	f001 fc81 	bl	8003398 <HAL_I2C_Init>
 8001a96:	4603      	mov	r3, r0
 8001a98:	2b00      	cmp	r3, #0
 8001a9a:	d001      	beq.n	8001aa0 <MX_I2C1_Init+0x4c>
  {
    Error_Handler();
 8001a9c:	f000 fa7e 	bl	8001f9c <Error_Handler>
  }
  /* USER CODE BEGIN I2C1_Init 2 */

  /* USER CODE END I2C1_Init 2 */

}
 8001aa0:	bf00      	nop
 8001aa2:	bd80      	pop	{r7, pc}
 8001aa4:	2000052c 	.word	0x2000052c
 8001aa8:	40005400 	.word	0x40005400
 8001aac:	000186a0 	.word	0x000186a0

08001ab0 <MX_SPI1_Init>:
  * @brief SPI1 Initialization Function
  * @param None
  * @retval None
  */
void MX_SPI1_Init(void)
{
 8001ab0:	b580      	push	{r7, lr}
 8001ab2:	af00      	add	r7, sp, #0

  /* USER CODE BEGIN SPI1_Init 1 */

  /* USER CODE END SPI1_Init 1 */
  /* SPI1 parameter configuration*/
  hspi1.Instance = SPI1;
 8001ab4:	4b17      	ldr	r3, [pc, #92]	; (8001b14 <MX_SPI1_Init+0x64>)
 8001ab6:	4a18      	ldr	r2, [pc, #96]	; (8001b18 <MX_SPI1_Init+0x68>)
 8001ab8:	601a      	str	r2, [r3, #0]
  hspi1.Init.Mode = SPI_MODE_MASTER;
 8001aba:	4b16      	ldr	r3, [pc, #88]	; (8001b14 <MX_SPI1_Init+0x64>)
 8001abc:	f44f 7282 	mov.w	r2, #260	; 0x104
 8001ac0:	605a      	str	r2, [r3, #4]
  hspi1.Init.Direction = SPI_DIRECTION_2LINES;
 8001ac2:	4b14      	ldr	r3, [pc, #80]	; (8001b14 <MX_SPI1_Init+0x64>)
 8001ac4:	2200      	movs	r2, #0
 8001ac6:	609a      	str	r2, [r3, #8]
  hspi1.Init.DataSize = SPI_DATASIZE_8BIT;
 8001ac8:	4b12      	ldr	r3, [pc, #72]	; (8001b14 <MX_SPI1_Init+0x64>)
 8001aca:	2200      	movs	r2, #0
 8001acc:	60da      	str	r2, [r3, #12]
  hspi1.Init.CLKPolarity = SPI_POLARITY_LOW;
 8001ace:	4b11      	ldr	r3, [pc, #68]	; (8001b14 <MX_SPI1_Init+0x64>)
 8001ad0:	2200      	movs	r2, #0
 8001ad2:	611a      	str	r2, [r3, #16]
  hspi1.Init.CLKPhase = SPI_PHASE_1EDGE;
 8001ad4:	4b0f      	ldr	r3, [pc, #60]	; (8001b14 <MX_SPI1_Init+0x64>)
 8001ad6:	2200      	movs	r2, #0
 8001ad8:	615a      	str	r2, [r3, #20]
  hspi1.Init.NSS = SPI_NSS_SOFT;
 8001ada:	4b0e      	ldr	r3, [pc, #56]	; (8001b14 <MX_SPI1_Init+0x64>)
 8001adc:	f44f 7200 	mov.w	r2, #512	; 0x200
 8001ae0:	619a      	str	r2, [r3, #24]
  hspi1.Init.BaudRatePrescaler = SPI_BAUDRATEPRESCALER_128;
 8001ae2:	4b0c      	ldr	r3, [pc, #48]	; (8001b14 <MX_SPI1_Init+0x64>)
 8001ae4:	2230      	movs	r2, #48	; 0x30
 8001ae6:	61da      	str	r2, [r3, #28]
  hspi1.Init.FirstBit = SPI_FIRSTBIT_MSB;
 8001ae8:	4b0a      	ldr	r3, [pc, #40]	; (8001b14 <MX_SPI1_Init+0x64>)
 8001aea:	2200      	movs	r2, #0
 8001aec:	621a      	str	r2, [r3, #32]
  hspi1.Init.TIMode = SPI_TIMODE_DISABLE;
 8001aee:	4b09      	ldr	r3, [pc, #36]	; (8001b14 <MX_SPI1_Init+0x64>)
 8001af0:	2200      	movs	r2, #0
 8001af2:	625a      	str	r2, [r3, #36]	; 0x24
  hspi1.Init.CRCCalculation = SPI_CRCCALCULATION_DISABLE;
 8001af4:	4b07      	ldr	r3, [pc, #28]	; (8001b14 <MX_SPI1_Init+0x64>)
 8001af6:	2200      	movs	r2, #0
 8001af8:	629a      	str	r2, [r3, #40]	; 0x28
  hspi1.Init.CRCPolynomial = 10;
 8001afa:	4b06      	ldr	r3, [pc, #24]	; (8001b14 <MX_SPI1_Init+0x64>)
 8001afc:	220a      	movs	r2, #10
 8001afe:	62da      	str	r2, [r3, #44]	; 0x2c
  if (HAL_SPI_Init(&hspi1) != HAL_OK)
 8001b00:	4804      	ldr	r0, [pc, #16]	; (8001b14 <MX_SPI1_Init+0x64>)
 8001b02:	f002 fd1f 	bl	8004544 <HAL_SPI_Init>
 8001b06:	4603      	mov	r3, r0
 8001b08:	2b00      	cmp	r3, #0
 8001b0a:	d001      	beq.n	8001b10 <MX_SPI1_Init+0x60>
  {
    Error_Handler();
 8001b0c:	f000 fa46 	bl	8001f9c <Error_Handler>
  }
  /* USER CODE BEGIN SPI1_Init 2 */

  /* USER CODE END SPI1_Init 2 */

}
 8001b10:	bf00      	nop
 8001b12:	bd80      	pop	{r7, pc}
 8001b14:	20000580 	.word	0x20000580
 8001b18:	40013000 	.word	0x40013000

08001b1c <MX_USART2_UART_Init>:
  * @brief USART2 Initialization Function
  * @param None
  * @retval None
  */
static void MX_USART2_UART_Init(void)
{
 8001b1c:	b580      	push	{r7, lr}
 8001b1e:	af00      	add	r7, sp, #0
  /* USER CODE END USART2_Init 0 */

  /* USER CODE BEGIN USART2_Init 1 */

  /* USER CODE END USART2_Init 1 */
  huart2.Instance = USART2;
 8001b20:	4b11      	ldr	r3, [pc, #68]	; (8001b68 <MX_USART2_UART_Init+0x4c>)
 8001b22:	4a12      	ldr	r2, [pc, #72]	; (8001b6c <MX_USART2_UART_Init+0x50>)
 8001b24:	601a      	str	r2, [r3, #0]
  huart2.Init.BaudRate = 115200;
 8001b26:	4b10      	ldr	r3, [pc, #64]	; (8001b68 <MX_USART2_UART_Init+0x4c>)
 8001b28:	f44f 32e1 	mov.w	r2, #115200	; 0x1c200
 8001b2c:	605a      	str	r2, [r3, #4]
  huart2.Init.WordLength = UART_WORDLENGTH_8B;
 8001b2e:	4b0e      	ldr	r3, [pc, #56]	; (8001b68 <MX_USART2_UART_Init+0x4c>)
 8001b30:	2200      	movs	r2, #0
 8001b32:	609a      	str	r2, [r3, #8]
  huart2.Init.StopBits = UART_STOPBITS_1;
 8001b34:	4b0c      	ldr	r3, [pc, #48]	; (8001b68 <MX_USART2_UART_Init+0x4c>)
 8001b36:	2200      	movs	r2, #0
 8001b38:	60da      	str	r2, [r3, #12]
  huart2.Init.Parity = UART_PARITY_NONE;
 8001b3a:	4b0b      	ldr	r3, [pc, #44]	; (8001b68 <MX_USART2_UART_Init+0x4c>)
 8001b3c:	2200      	movs	r2, #0
 8001b3e:	611a      	str	r2, [r3, #16]
  huart2.Init.Mode = UART_MODE_TX_RX;
 8001b40:	4b09      	ldr	r3, [pc, #36]	; (8001b68 <MX_USART2_UART_Init+0x4c>)
 8001b42:	220c      	movs	r2, #12
 8001b44:	615a      	str	r2, [r3, #20]
  huart2.Init.HwFlowCtl = UART_HWCONTROL_NONE;
 8001b46:	4b08      	ldr	r3, [pc, #32]	; (8001b68 <MX_USART2_UART_Init+0x4c>)
 8001b48:	2200      	movs	r2, #0
 8001b4a:	619a      	str	r2, [r3, #24]
  huart2.Init.OverSampling = UART_OVERSAMPLING_16;
 8001b4c:	4b06      	ldr	r3, [pc, #24]	; (8001b68 <MX_USART2_UART_Init+0x4c>)
 8001b4e:	2200      	movs	r2, #0
 8001b50:	61da      	str	r2, [r3, #28]
  if (HAL_UART_Init(&huart2) != HAL_OK)
 8001b52:	4805      	ldr	r0, [pc, #20]	; (8001b68 <MX_USART2_UART_Init+0x4c>)
 8001b54:	f003 fac2 	bl	80050dc <HAL_UART_Init>
 8001b58:	4603      	mov	r3, r0
 8001b5a:	2b00      	cmp	r3, #0
 8001b5c:	d001      	beq.n	8001b62 <MX_USART2_UART_Init+0x46>
  {
    Error_Handler();
 8001b5e:	f000 fa1d 	bl	8001f9c <Error_Handler>
  }
  /* USER CODE BEGIN USART2_Init 2 */

  /* USER CODE END USART2_Init 2 */

}
 8001b62:	bf00      	nop
 8001b64:	bd80      	pop	{r7, pc}
 8001b66:	bf00      	nop
 8001b68:	200005d8 	.word	0x200005d8
 8001b6c:	40004400 	.word	0x40004400

08001b70 <MX_GPIO_Init>:
  * @brief GPIO Initialization Function
  * @param None
  * @retval None
  */
static void MX_GPIO_Init(void)
{
 8001b70:	b580      	push	{r7, lr}
 8001b72:	b088      	sub	sp, #32
 8001b74:	af00      	add	r7, sp, #0
  GPIO_InitTypeDef GPIO_InitStruct = {0};
 8001b76:	f107 030c 	add.w	r3, r7, #12
 8001b7a:	2200      	movs	r2, #0
 8001b7c:	601a      	str	r2, [r3, #0]
 8001b7e:	605a      	str	r2, [r3, #4]
 8001b80:	609a      	str	r2, [r3, #8]
 8001b82:	60da      	str	r2, [r3, #12]
 8001b84:	611a      	str	r2, [r3, #16]

  /* GPIO Ports Clock Enable */
  __HAL_RCC_GPIOA_CLK_ENABLE();
 8001b86:	2300      	movs	r3, #0
 8001b88:	60bb      	str	r3, [r7, #8]
 8001b8a:	4b3a      	ldr	r3, [pc, #232]	; (8001c74 <MX_GPIO_Init+0x104>)
 8001b8c:	6b1b      	ldr	r3, [r3, #48]	; 0x30
 8001b8e:	4a39      	ldr	r2, [pc, #228]	; (8001c74 <MX_GPIO_Init+0x104>)
 8001b90:	f043 0301 	orr.w	r3, r3, #1
 8001b94:	6313      	str	r3, [r2, #48]	; 0x30
 8001b96:	4b37      	ldr	r3, [pc, #220]	; (8001c74 <MX_GPIO_Init+0x104>)
 8001b98:	6b1b      	ldr	r3, [r3, #48]	; 0x30
 8001b9a:	f003 0301 	and.w	r3, r3, #1
 8001b9e:	60bb      	str	r3, [r7, #8]
 8001ba0:	68bb      	ldr	r3, [r7, #8]
  __HAL_RCC_GPIOD_CLK_ENABLE();
 8001ba2:	2300      	movs	r3, #0
 8001ba4:	607b      	str	r3, [r7, #4]
 8001ba6:	4b33      	ldr	r3, [pc, #204]	; (8001c74 <MX_GPIO_Init+0x104>)
 8001ba8:	6b1b      	ldr	r3, [r3, #48]	; 0x30
 8001baa:	4a32      	ldr	r2, [pc, #200]	; (8001c74 <MX_GPIO_Init+0x104>)
 8001bac:	f043 0308 	orr.w	r3, r3, #8
 8001bb0:	6313      	str	r3, [r2, #48]	; 0x30
 8001bb2:	4b30      	ldr	r3, [pc, #192]	; (8001c74 <MX_GPIO_Init+0x104>)
 8001bb4:	6b1b      	ldr	r3, [r3, #48]	; 0x30
 8001bb6:	f003 0308 	and.w	r3, r3, #8
 8001bba:	607b      	str	r3, [r7, #4]
 8001bbc:	687b      	ldr	r3, [r7, #4]
  __HAL_RCC_GPIOB_CLK_ENABLE();
 8001bbe:	2300      	movs	r3, #0
 8001bc0:	603b      	str	r3, [r7, #0]
 8001bc2:	4b2c      	ldr	r3, [pc, #176]	; (8001c74 <MX_GPIO_Init+0x104>)
 8001bc4:	6b1b      	ldr	r3, [r3, #48]	; 0x30
 8001bc6:	4a2b      	ldr	r2, [pc, #172]	; (8001c74 <MX_GPIO_Init+0x104>)
 8001bc8:	f043 0302 	orr.w	r3, r3, #2
 8001bcc:	6313      	str	r3, [r2, #48]	; 0x30
 8001bce:	4b29      	ldr	r3, [pc, #164]	; (8001c74 <MX_GPIO_Init+0x104>)
 8001bd0:	6b1b      	ldr	r3, [r3, #48]	; 0x30
 8001bd2:	f003 0302 	and.w	r3, r3, #2
 8001bd6:	603b      	str	r3, [r7, #0]
 8001bd8:	683b      	ldr	r3, [r7, #0]

  /*Configure GPIO pin Output Level */
  HAL_GPIO_WritePin(SDCard_CS_GPIO_Port, SDCard_CS_Pin, GPIO_PIN_RESET);
 8001bda:	2200      	movs	r2, #0
 8001bdc:	2110      	movs	r1, #16
 8001bde:	4826      	ldr	r0, [pc, #152]	; (8001c78 <MX_GPIO_Init+0x108>)
 8001be0:	f001 fba8 	bl	8003334 <HAL_GPIO_WritePin>

  /*Configure GPIO pin : SDCard_CS_Pin */
  GPIO_InitStruct.Pin = SDCard_CS_Pin;
 8001be4:	2310      	movs	r3, #16
 8001be6:	60fb      	str	r3, [r7, #12]
  GPIO_InitStruct.Mode = GPIO_MODE_OUTPUT_PP;
 8001be8:	2301      	movs	r3, #1
 8001bea:	613b      	str	r3, [r7, #16]
  GPIO_InitStruct.Pull = GPIO_NOPULL;
 8001bec:	2300      	movs	r3, #0
 8001bee:	617b      	str	r3, [r7, #20]
  GPIO_InitStruct.Speed = GPIO_SPEED_FREQ_LOW;
 8001bf0:	2300      	movs	r3, #0
 8001bf2:	61bb      	str	r3, [r7, #24]
  HAL_GPIO_Init(SDCard_CS_GPIO_Port, &GPIO_InitStruct);
 8001bf4:	f107 030c 	add.w	r3, r7, #12
 8001bf8:	4619      	mov	r1, r3
 8001bfa:	481f      	ldr	r0, [pc, #124]	; (8001c78 <MX_GPIO_Init+0x108>)
 8001bfc:	f001 f902 	bl	8002e04 <HAL_GPIO_Init>

  /*Configure GPIO pins : PD0 PD1 PD2 PD3
                           PD4 */
  GPIO_InitStruct.Pin = GPIO_PIN_0|GPIO_PIN_1|GPIO_PIN_2|GPIO_PIN_3
 8001c00:	231f      	movs	r3, #31
 8001c02:	60fb      	str	r3, [r7, #12]
                          |GPIO_PIN_4;
  GPIO_InitStruct.Mode = GPIO_MODE_IT_RISING;
 8001c04:	f44f 1388 	mov.w	r3, #1114112	; 0x110000
 8001c08:	613b      	str	r3, [r7, #16]
  GPIO_InitStruct.Pull = GPIO_PULLUP;
 8001c0a:	2301      	movs	r3, #1
 8001c0c:	617b      	str	r3, [r7, #20]
  HAL_GPIO_Init(GPIOD, &GPIO_InitStruct);
 8001c0e:	f107 030c 	add.w	r3, r7, #12
 8001c12:	4619      	mov	r1, r3
 8001c14:	4819      	ldr	r0, [pc, #100]	; (8001c7c <MX_GPIO_Init+0x10c>)
 8001c16:	f001 f8f5 	bl	8002e04 <HAL_GPIO_Init>

  /* EXTI interrupt init*/
  HAL_NVIC_SetPriority(EXTI0_IRQn, 15, 0);
 8001c1a:	2200      	movs	r2, #0
 8001c1c:	210f      	movs	r1, #15
 8001c1e:	2006      	movs	r0, #6
 8001c20:	f001 f8c6 	bl	8002db0 <HAL_NVIC_SetPriority>
  HAL_NVIC_EnableIRQ(EXTI0_IRQn);
 8001c24:	2006      	movs	r0, #6
 8001c26:	f001 f8df 	bl	8002de8 <HAL_NVIC_EnableIRQ>

  HAL_NVIC_SetPriority(EXTI1_IRQn, 15, 0);
 8001c2a:	2200      	movs	r2, #0
 8001c2c:	210f      	movs	r1, #15
 8001c2e:	2007      	movs	r0, #7
 8001c30:	f001 f8be 	bl	8002db0 <HAL_NVIC_SetPriority>
  HAL_NVIC_EnableIRQ(EXTI1_IRQn);
 8001c34:	2007      	movs	r0, #7
 8001c36:	f001 f8d7 	bl	8002de8 <HAL_NVIC_EnableIRQ>

  HAL_NVIC_SetPriority(EXTI2_IRQn, 15, 0);
 8001c3a:	2200      	movs	r2, #0
 8001c3c:	210f      	movs	r1, #15
 8001c3e:	2008      	movs	r0, #8
 8001c40:	f001 f8b6 	bl	8002db0 <HAL_NVIC_SetPriority>
  HAL_NVIC_EnableIRQ(EXTI2_IRQn);
 8001c44:	2008      	movs	r0, #8
 8001c46:	f001 f8cf 	bl	8002de8 <HAL_NVIC_EnableIRQ>

  HAL_NVIC_SetPriority(EXTI3_IRQn, 15, 0);
 8001c4a:	2200      	movs	r2, #0
 8001c4c:	210f      	movs	r1, #15
 8001c4e:	2009      	movs	r0, #9
 8001c50:	f001 f8ae 	bl	8002db0 <HAL_NVIC_SetPriority>
  HAL_NVIC_EnableIRQ(EXTI3_IRQn);
 8001c54:	2009      	movs	r0, #9
 8001c56:	f001 f8c7 	bl	8002de8 <HAL_NVIC_EnableIRQ>

  HAL_NVIC_SetPriority(EXTI4_IRQn, 15, 0);
 8001c5a:	2200      	movs	r2, #0
 8001c5c:	210f      	movs	r1, #15
 8001c5e:	200a      	movs	r0, #10
 8001c60:	f001 f8a6 	bl	8002db0 <HAL_NVIC_SetPriority>
  HAL_NVIC_EnableIRQ(EXTI4_IRQn);
 8001c64:	200a      	movs	r0, #10
 8001c66:	f001 f8bf 	bl	8002de8 <HAL_NVIC_EnableIRQ>

}
 8001c6a:	bf00      	nop
 8001c6c:	3720      	adds	r7, #32
 8001c6e:	46bd      	mov	sp, r7
 8001c70:	bd80      	pop	{r7, pc}
 8001c72:	bf00      	nop
 8001c74:	40023800 	.word	0x40023800
 8001c78:	40020000 	.word	0x40020000
 8001c7c:	40020c00 	.word	0x40020c00

08001c80 <HAL_GPIO_EXTI_Callback>:

/* USER CODE BEGIN 4 */

void HAL_GPIO_EXTI_Callback(uint16_t GPIO_Pin) {
 8001c80:	b580      	push	{r7, lr}
 8001c82:	b0c4      	sub	sp, #272	; 0x110
 8001c84:	af00      	add	r7, sp, #0
 8001c86:	4602      	mov	r2, r0
 8001c88:	f507 7388 	add.w	r3, r7, #272	; 0x110
 8001c8c:	f5a3 7385 	sub.w	r3, r3, #266	; 0x10a
 8001c90:	801a      	strh	r2, [r3, #0]
	if ((globalTime - lastEventTime) < 1)
 8001c92:	4b96      	ldr	r3, [pc, #600]	; (8001eec <HAL_GPIO_EXTI_Callback+0x26c>)
 8001c94:	681a      	ldr	r2, [r3, #0]
 8001c96:	4b96      	ldr	r3, [pc, #600]	; (8001ef0 <HAL_GPIO_EXTI_Callback+0x270>)
 8001c98:	681b      	ldr	r3, [r3, #0]
 8001c9a:	429a      	cmp	r2, r3
 8001c9c:	f000 815a 	beq.w	8001f54 <HAL_GPIO_EXTI_Callback+0x2d4>
		return;
	// Start interrupt event
	char buf[256];
	int button = -1;
 8001ca0:	f04f 33ff 	mov.w	r3, #4294967295	; 0xffffffff
 8001ca4:	f8c7 310c 	str.w	r3, [r7, #268]	; 0x10c
	switch (GPIO_Pin) {
 8001ca8:	f507 7388 	add.w	r3, r7, #272	; 0x110
 8001cac:	f5a3 7385 	sub.w	r3, r3, #266	; 0x10a
 8001cb0:	881b      	ldrh	r3, [r3, #0]
 8001cb2:	3b01      	subs	r3, #1
 8001cb4:	2b0f      	cmp	r3, #15
 8001cb6:	f200 814f 	bhi.w	8001f58 <HAL_GPIO_EXTI_Callback+0x2d8>
 8001cba:	a201      	add	r2, pc, #4	; (adr r2, 8001cc0 <HAL_GPIO_EXTI_Callback+0x40>)
 8001cbc:	f852 f023 	ldr.w	pc, [r2, r3, lsl #2]
 8001cc0:	08001d01 	.word	0x08001d01
 8001cc4:	08001d53 	.word	0x08001d53
 8001cc8:	08001f59 	.word	0x08001f59
 8001ccc:	08001de7 	.word	0x08001de7
 8001cd0:	08001f59 	.word	0x08001f59
 8001cd4:	08001f59 	.word	0x08001f59
 8001cd8:	08001f59 	.word	0x08001f59
 8001cdc:	08001e37 	.word	0x08001e37
 8001ce0:	08001f59 	.word	0x08001f59
 8001ce4:	08001f59 	.word	0x08001f59
 8001ce8:	08001f59 	.word	0x08001f59
 8001cec:	08001f59 	.word	0x08001f59
 8001cf0:	08001f59 	.word	0x08001f59
 8001cf4:	08001f59 	.word	0x08001f59
 8001cf8:	08001f59 	.word	0x08001f59
 8001cfc:	08001e99 	.word	0x08001e99
	case GPIO_PIN_0:
		button = 0;
 8001d00:	2300      	movs	r3, #0
 8001d02:	f8c7 310c 	str.w	r3, [r7, #268]	; 0x10c
		if (OLED_display_status == OLED_MENU) {
 8001d06:	4b7b      	ldr	r3, [pc, #492]	; (8001ef4 <HAL_GPIO_EXTI_Callback+0x274>)
 8001d08:	681b      	ldr	r3, [r3, #0]
 8001d0a:	2b01      	cmp	r3, #1
 8001d0c:	f000 80fe 	beq.w	8001f0c <HAL_GPIO_EXTI_Callback+0x28c>
			// Do nothing when at menu
		} else if (OLED_display_status == OLED_FILE_BROWSER) {
 8001d10:	4b78      	ldr	r3, [pc, #480]	; (8001ef4 <HAL_GPIO_EXTI_Callback+0x274>)
 8001d12:	681b      	ldr	r3, [r3, #0]
 8001d14:	2b02      	cmp	r3, #2
 8001d16:	d103      	bne.n	8001d20 <HAL_GPIO_EXTI_Callback+0xa0>
			// When at file browser
			// Press first button to go back to menu
			OLED_display_status = OLED_MENU;
 8001d18:	4b76      	ldr	r3, [pc, #472]	; (8001ef4 <HAL_GPIO_EXTI_Callback+0x274>)
 8001d1a:	2201      	movs	r2, #1
 8001d1c:	601a      	str	r2, [r3, #0]
			OLED_display_status = OLED_MENU;
		} else if (OLED_display_status == OLED_ABOUT) {
			// Press any key to return to menu
			OLED_display_status = OLED_MENU;
		}
		break;
 8001d1e:	e0f5      	b.n	8001f0c <HAL_GPIO_EXTI_Callback+0x28c>
		} else if (OLED_display_status == OLED_PLAYER) {
 8001d20:	4b74      	ldr	r3, [pc, #464]	; (8001ef4 <HAL_GPIO_EXTI_Callback+0x274>)
 8001d22:	681b      	ldr	r3, [r3, #0]
 8001d24:	2b03      	cmp	r3, #3
 8001d26:	d103      	bne.n	8001d30 <HAL_GPIO_EXTI_Callback+0xb0>
			OLED_display_status = OLED_MENU;
 8001d28:	4b72      	ldr	r3, [pc, #456]	; (8001ef4 <HAL_GPIO_EXTI_Callback+0x274>)
 8001d2a:	2201      	movs	r2, #1
 8001d2c:	601a      	str	r2, [r3, #0]
		break;
 8001d2e:	e0ed      	b.n	8001f0c <HAL_GPIO_EXTI_Callback+0x28c>
		} else if (OLED_display_status == OLED_SETTING) {
 8001d30:	4b70      	ldr	r3, [pc, #448]	; (8001ef4 <HAL_GPIO_EXTI_Callback+0x274>)
 8001d32:	681b      	ldr	r3, [r3, #0]
 8001d34:	2b04      	cmp	r3, #4
 8001d36:	d103      	bne.n	8001d40 <HAL_GPIO_EXTI_Callback+0xc0>
			OLED_display_status = OLED_MENU;
 8001d38:	4b6e      	ldr	r3, [pc, #440]	; (8001ef4 <HAL_GPIO_EXTI_Callback+0x274>)
 8001d3a:	2201      	movs	r2, #1
 8001d3c:	601a      	str	r2, [r3, #0]
		break;
 8001d3e:	e0e5      	b.n	8001f0c <HAL_GPIO_EXTI_Callback+0x28c>
		} else if (OLED_display_status == OLED_ABOUT) {
 8001d40:	4b6c      	ldr	r3, [pc, #432]	; (8001ef4 <HAL_GPIO_EXTI_Callback+0x274>)
 8001d42:	681b      	ldr	r3, [r3, #0]
 8001d44:	2b05      	cmp	r3, #5
 8001d46:	f040 80e1 	bne.w	8001f0c <HAL_GPIO_EXTI_Callback+0x28c>
			OLED_display_status = OLED_MENU;
 8001d4a:	4b6a      	ldr	r3, [pc, #424]	; (8001ef4 <HAL_GPIO_EXTI_Callback+0x274>)
 8001d4c:	2201      	movs	r2, #1
 8001d4e:	601a      	str	r2, [r3, #0]
		break;
 8001d50:	e0dc      	b.n	8001f0c <HAL_GPIO_EXTI_Callback+0x28c>
	case GPIO_PIN_1:
		button = 1;
 8001d52:	2301      	movs	r3, #1
 8001d54:	f8c7 310c 	str.w	r3, [r7, #268]	; 0x10c
		if (OLED_display_status == OLED_MENU) {
 8001d58:	4b66      	ldr	r3, [pc, #408]	; (8001ef4 <HAL_GPIO_EXTI_Callback+0x274>)
 8001d5a:	681b      	ldr	r3, [r3, #0]
 8001d5c:	2b01      	cmp	r3, #1
 8001d5e:	d11f      	bne.n	8001da0 <HAL_GPIO_EXTI_Callback+0x120>
			switch (menu_select) {
 8001d60:	4b65      	ldr	r3, [pc, #404]	; (8001ef8 <HAL_GPIO_EXTI_Callback+0x278>)
 8001d62:	681b      	ldr	r3, [r3, #0]
 8001d64:	2b03      	cmp	r3, #3
 8001d66:	d83c      	bhi.n	8001de2 <HAL_GPIO_EXTI_Callback+0x162>
 8001d68:	a201      	add	r2, pc, #4	; (adr r2, 8001d70 <HAL_GPIO_EXTI_Callback+0xf0>)
 8001d6a:	f852 f023 	ldr.w	pc, [r2, r3, lsl #2]
 8001d6e:	bf00      	nop
 8001d70:	08001d81 	.word	0x08001d81
 8001d74:	08001d89 	.word	0x08001d89
 8001d78:	08001d91 	.word	0x08001d91
 8001d7c:	08001d99 	.word	0x08001d99
			case MENU_FILE_BROWSER:
				OLED_display_status = OLED_FILE_BROWSER;
 8001d80:	4b5c      	ldr	r3, [pc, #368]	; (8001ef4 <HAL_GPIO_EXTI_Callback+0x274>)
 8001d82:	2202      	movs	r2, #2
 8001d84:	601a      	str	r2, [r3, #0]
				break;
 8001d86:	e02d      	b.n	8001de4 <HAL_GPIO_EXTI_Callback+0x164>
			case MENU_PLAYER:
				OLED_display_status = OLED_PLAYER;
 8001d88:	4b5a      	ldr	r3, [pc, #360]	; (8001ef4 <HAL_GPIO_EXTI_Callback+0x274>)
 8001d8a:	2203      	movs	r2, #3
 8001d8c:	601a      	str	r2, [r3, #0]
				break;
 8001d8e:	e029      	b.n	8001de4 <HAL_GPIO_EXTI_Callback+0x164>
			case MENU_SETTING:
				OLED_display_status = OLED_SETTING;
 8001d90:	4b58      	ldr	r3, [pc, #352]	; (8001ef4 <HAL_GPIO_EXTI_Callback+0x274>)
 8001d92:	2204      	movs	r2, #4
 8001d94:	601a      	str	r2, [r3, #0]
				break;
 8001d96:	e025      	b.n	8001de4 <HAL_GPIO_EXTI_Callback+0x164>
			case MENU_ABOUT:
				OLED_display_status = OLED_ABOUT;
 8001d98:	4b56      	ldr	r3, [pc, #344]	; (8001ef4 <HAL_GPIO_EXTI_Callback+0x274>)
 8001d9a:	2205      	movs	r2, #5
 8001d9c:	601a      	str	r2, [r3, #0]
				break;
 8001d9e:	e021      	b.n	8001de4 <HAL_GPIO_EXTI_Callback+0x164>
			default:
				break;
			}
		} else if (OLED_display_status == OLED_FILE_BROWSER) {
 8001da0:	4b54      	ldr	r3, [pc, #336]	; (8001ef4 <HAL_GPIO_EXTI_Callback+0x274>)
 8001da2:	681b      	ldr	r3, [r3, #0]
 8001da4:	2b02      	cmp	r3, #2
 8001da6:	d103      	bne.n	8001db0 <HAL_GPIO_EXTI_Callback+0x130>
			// When at file browser
			// Press first button to go back to menu
			OLED_display_status = OLED_MENU;
 8001da8:	4b52      	ldr	r3, [pc, #328]	; (8001ef4 <HAL_GPIO_EXTI_Callback+0x274>)
 8001daa:	2201      	movs	r2, #1
 8001dac:	601a      	str	r2, [r3, #0]
			OLED_display_status = OLED_MENU;
		} else if (OLED_display_status == OLED_ABOUT) {
			// Press any key to return to menu
			OLED_display_status = OLED_MENU;
		}
		break;
 8001dae:	e0af      	b.n	8001f10 <HAL_GPIO_EXTI_Callback+0x290>
		} else if (OLED_display_status == OLED_PLAYER) {
 8001db0:	4b50      	ldr	r3, [pc, #320]	; (8001ef4 <HAL_GPIO_EXTI_Callback+0x274>)
 8001db2:	681b      	ldr	r3, [r3, #0]
 8001db4:	2b03      	cmp	r3, #3
 8001db6:	d103      	bne.n	8001dc0 <HAL_GPIO_EXTI_Callback+0x140>
			OLED_display_status = OLED_MENU;
 8001db8:	4b4e      	ldr	r3, [pc, #312]	; (8001ef4 <HAL_GPIO_EXTI_Callback+0x274>)
 8001dba:	2201      	movs	r2, #1
 8001dbc:	601a      	str	r2, [r3, #0]
		break;
 8001dbe:	e0a7      	b.n	8001f10 <HAL_GPIO_EXTI_Callback+0x290>
		} else if (OLED_display_status == OLED_SETTING) {
 8001dc0:	4b4c      	ldr	r3, [pc, #304]	; (8001ef4 <HAL_GPIO_EXTI_Callback+0x274>)
 8001dc2:	681b      	ldr	r3, [r3, #0]
 8001dc4:	2b04      	cmp	r3, #4
 8001dc6:	d103      	bne.n	8001dd0 <HAL_GPIO_EXTI_Callback+0x150>
			OLED_display_status = OLED_MENU;
 8001dc8:	4b4a      	ldr	r3, [pc, #296]	; (8001ef4 <HAL_GPIO_EXTI_Callback+0x274>)
 8001dca:	2201      	movs	r2, #1
 8001dcc:	601a      	str	r2, [r3, #0]
		break;
 8001dce:	e09f      	b.n	8001f10 <HAL_GPIO_EXTI_Callback+0x290>
		} else if (OLED_display_status == OLED_ABOUT) {
 8001dd0:	4b48      	ldr	r3, [pc, #288]	; (8001ef4 <HAL_GPIO_EXTI_Callback+0x274>)
 8001dd2:	681b      	ldr	r3, [r3, #0]
 8001dd4:	2b05      	cmp	r3, #5
 8001dd6:	f040 809b 	bne.w	8001f10 <HAL_GPIO_EXTI_Callback+0x290>
			OLED_display_status = OLED_MENU;
 8001dda:	4b46      	ldr	r3, [pc, #280]	; (8001ef4 <HAL_GPIO_EXTI_Callback+0x274>)
 8001ddc:	2201      	movs	r2, #1
 8001dde:	601a      	str	r2, [r3, #0]
		break;
 8001de0:	e096      	b.n	8001f10 <HAL_GPIO_EXTI_Callback+0x290>
				break;
 8001de2:	bf00      	nop
		break;
 8001de4:	e094      	b.n	8001f10 <HAL_GPIO_EXTI_Callback+0x290>
	case GPIO_PIN_2:
		button = 2;
 8001de6:	2302      	movs	r3, #2
 8001de8:	f8c7 310c 	str.w	r3, [r7, #268]	; 0x10c
		if (OLED_display_status == OLED_MENU) {
 8001dec:	4b41      	ldr	r3, [pc, #260]	; (8001ef4 <HAL_GPIO_EXTI_Callback+0x274>)
 8001dee:	681b      	ldr	r3, [r3, #0]
 8001df0:	2b01      	cmp	r3, #1
 8001df2:	f000 808f 	beq.w	8001f14 <HAL_GPIO_EXTI_Callback+0x294>
			// Do nothing
		} else if (OLED_display_status == OLED_FILE_BROWSER) {
 8001df6:	4b3f      	ldr	r3, [pc, #252]	; (8001ef4 <HAL_GPIO_EXTI_Callback+0x274>)
 8001df8:	681b      	ldr	r3, [r3, #0]
 8001dfa:	2b02      	cmp	r3, #2
 8001dfc:	d103      	bne.n	8001e06 <HAL_GPIO_EXTI_Callback+0x186>
			// When at file browser
			// Press first button to go back to menu
			OLED_display_status = OLED_MENU;
 8001dfe:	4b3d      	ldr	r3, [pc, #244]	; (8001ef4 <HAL_GPIO_EXTI_Callback+0x274>)
 8001e00:	2201      	movs	r2, #1
 8001e02:	601a      	str	r2, [r3, #0]
			OLED_display_status = OLED_MENU;
		} else if (OLED_display_status == OLED_ABOUT) {
			// Press any key to return to menu
			OLED_display_status = OLED_MENU;
		}
		break;
 8001e04:	e086      	b.n	8001f14 <HAL_GPIO_EXTI_Callback+0x294>
		} else if (OLED_display_status == OLED_PLAYER) {
 8001e06:	4b3b      	ldr	r3, [pc, #236]	; (8001ef4 <HAL_GPIO_EXTI_Callback+0x274>)
 8001e08:	681b      	ldr	r3, [r3, #0]
 8001e0a:	2b03      	cmp	r3, #3
 8001e0c:	d103      	bne.n	8001e16 <HAL_GPIO_EXTI_Callback+0x196>
			OLED_display_status = OLED_MENU;
 8001e0e:	4b39      	ldr	r3, [pc, #228]	; (8001ef4 <HAL_GPIO_EXTI_Callback+0x274>)
 8001e10:	2201      	movs	r2, #1
 8001e12:	601a      	str	r2, [r3, #0]
		break;
 8001e14:	e07e      	b.n	8001f14 <HAL_GPIO_EXTI_Callback+0x294>
		} else if (OLED_display_status == OLED_SETTING) {
 8001e16:	4b37      	ldr	r3, [pc, #220]	; (8001ef4 <HAL_GPIO_EXTI_Callback+0x274>)
 8001e18:	681b      	ldr	r3, [r3, #0]
 8001e1a:	2b04      	cmp	r3, #4
 8001e1c:	d103      	bne.n	8001e26 <HAL_GPIO_EXTI_Callback+0x1a6>
			OLED_display_status = OLED_MENU;
 8001e1e:	4b35      	ldr	r3, [pc, #212]	; (8001ef4 <HAL_GPIO_EXTI_Callback+0x274>)
 8001e20:	2201      	movs	r2, #1
 8001e22:	601a      	str	r2, [r3, #0]
		break;
 8001e24:	e076      	b.n	8001f14 <HAL_GPIO_EXTI_Callback+0x294>
		} else if (OLED_display_status == OLED_ABOUT) {
 8001e26:	4b33      	ldr	r3, [pc, #204]	; (8001ef4 <HAL_GPIO_EXTI_Callback+0x274>)
 8001e28:	681b      	ldr	r3, [r3, #0]
 8001e2a:	2b05      	cmp	r3, #5
 8001e2c:	d172      	bne.n	8001f14 <HAL_GPIO_EXTI_Callback+0x294>
			OLED_display_status = OLED_MENU;
 8001e2e:	4b31      	ldr	r3, [pc, #196]	; (8001ef4 <HAL_GPIO_EXTI_Callback+0x274>)
 8001e30:	2201      	movs	r2, #1
 8001e32:	601a      	str	r2, [r3, #0]
		break;
 8001e34:	e06e      	b.n	8001f14 <HAL_GPIO_EXTI_Callback+0x294>
	case GPIO_PIN_3:
		button = 3;
 8001e36:	2303      	movs	r3, #3
 8001e38:	f8c7 310c 	str.w	r3, [r7, #268]	; 0x10c
		if (OLED_display_status == OLED_MENU) {
 8001e3c:	4b2d      	ldr	r3, [pc, #180]	; (8001ef4 <HAL_GPIO_EXTI_Callback+0x274>)
 8001e3e:	681b      	ldr	r3, [r3, #0]
 8001e40:	2b01      	cmp	r3, #1
 8001e42:	d109      	bne.n	8001e58 <HAL_GPIO_EXTI_Callback+0x1d8>
			if (menu_select != MENU_FILE_BROWSER)
 8001e44:	4b2c      	ldr	r3, [pc, #176]	; (8001ef8 <HAL_GPIO_EXTI_Callback+0x278>)
 8001e46:	681b      	ldr	r3, [r3, #0]
 8001e48:	2b00      	cmp	r3, #0
 8001e4a:	d065      	beq.n	8001f18 <HAL_GPIO_EXTI_Callback+0x298>
				menu_select--;
 8001e4c:	4b2a      	ldr	r3, [pc, #168]	; (8001ef8 <HAL_GPIO_EXTI_Callback+0x278>)
 8001e4e:	681b      	ldr	r3, [r3, #0]
 8001e50:	3b01      	subs	r3, #1
 8001e52:	4a29      	ldr	r2, [pc, #164]	; (8001ef8 <HAL_GPIO_EXTI_Callback+0x278>)
 8001e54:	6013      	str	r3, [r2, #0]
			OLED_display_status = OLED_MENU;
		} else if (OLED_display_status == OLED_ABOUT) {
			// Press any key to return to menu
			OLED_display_status = OLED_MENU;
		}
		break;
 8001e56:	e05f      	b.n	8001f18 <HAL_GPIO_EXTI_Callback+0x298>
		} else if (OLED_display_status == OLED_FILE_BROWSER) {
 8001e58:	4b26      	ldr	r3, [pc, #152]	; (8001ef4 <HAL_GPIO_EXTI_Callback+0x274>)
 8001e5a:	681b      	ldr	r3, [r3, #0]
 8001e5c:	2b02      	cmp	r3, #2
 8001e5e:	d103      	bne.n	8001e68 <HAL_GPIO_EXTI_Callback+0x1e8>
			OLED_display_status = OLED_MENU;
 8001e60:	4b24      	ldr	r3, [pc, #144]	; (8001ef4 <HAL_GPIO_EXTI_Callback+0x274>)
 8001e62:	2201      	movs	r2, #1
 8001e64:	601a      	str	r2, [r3, #0]
		break;
 8001e66:	e057      	b.n	8001f18 <HAL_GPIO_EXTI_Callback+0x298>
		} else if (OLED_display_status == OLED_PLAYER) {
 8001e68:	4b22      	ldr	r3, [pc, #136]	; (8001ef4 <HAL_GPIO_EXTI_Callback+0x274>)
 8001e6a:	681b      	ldr	r3, [r3, #0]
 8001e6c:	2b03      	cmp	r3, #3
 8001e6e:	d103      	bne.n	8001e78 <HAL_GPIO_EXTI_Callback+0x1f8>
			OLED_display_status = OLED_MENU;
 8001e70:	4b20      	ldr	r3, [pc, #128]	; (8001ef4 <HAL_GPIO_EXTI_Callback+0x274>)
 8001e72:	2201      	movs	r2, #1
 8001e74:	601a      	str	r2, [r3, #0]
		break;
 8001e76:	e04f      	b.n	8001f18 <HAL_GPIO_EXTI_Callback+0x298>
		} else if (OLED_display_status == OLED_SETTING) {
 8001e78:	4b1e      	ldr	r3, [pc, #120]	; (8001ef4 <HAL_GPIO_EXTI_Callback+0x274>)
 8001e7a:	681b      	ldr	r3, [r3, #0]
 8001e7c:	2b04      	cmp	r3, #4
 8001e7e:	d103      	bne.n	8001e88 <HAL_GPIO_EXTI_Callback+0x208>
			OLED_display_status = OLED_MENU;
 8001e80:	4b1c      	ldr	r3, [pc, #112]	; (8001ef4 <HAL_GPIO_EXTI_Callback+0x274>)
 8001e82:	2201      	movs	r2, #1
 8001e84:	601a      	str	r2, [r3, #0]
		break;
 8001e86:	e047      	b.n	8001f18 <HAL_GPIO_EXTI_Callback+0x298>
		} else if (OLED_display_status == OLED_ABOUT) {
 8001e88:	4b1a      	ldr	r3, [pc, #104]	; (8001ef4 <HAL_GPIO_EXTI_Callback+0x274>)
 8001e8a:	681b      	ldr	r3, [r3, #0]
 8001e8c:	2b05      	cmp	r3, #5
 8001e8e:	d143      	bne.n	8001f18 <HAL_GPIO_EXTI_Callback+0x298>
			OLED_display_status = OLED_MENU;
 8001e90:	4b18      	ldr	r3, [pc, #96]	; (8001ef4 <HAL_GPIO_EXTI_Callback+0x274>)
 8001e92:	2201      	movs	r2, #1
 8001e94:	601a      	str	r2, [r3, #0]
		break;
 8001e96:	e03f      	b.n	8001f18 <HAL_GPIO_EXTI_Callback+0x298>
	case GPIO_PIN_4:
		button = 4;
 8001e98:	2304      	movs	r3, #4
 8001e9a:	f8c7 310c 	str.w	r3, [r7, #268]	; 0x10c
		if (OLED_display_status == OLED_MENU) {
 8001e9e:	4b15      	ldr	r3, [pc, #84]	; (8001ef4 <HAL_GPIO_EXTI_Callback+0x274>)
 8001ea0:	681b      	ldr	r3, [r3, #0]
 8001ea2:	2b01      	cmp	r3, #1
 8001ea4:	d109      	bne.n	8001eba <HAL_GPIO_EXTI_Callback+0x23a>
			if (menu_select != MENU_ABOUT)
 8001ea6:	4b14      	ldr	r3, [pc, #80]	; (8001ef8 <HAL_GPIO_EXTI_Callback+0x278>)
 8001ea8:	681b      	ldr	r3, [r3, #0]
 8001eaa:	2b03      	cmp	r3, #3
 8001eac:	d036      	beq.n	8001f1c <HAL_GPIO_EXTI_Callback+0x29c>
				menu_select++;
 8001eae:	4b12      	ldr	r3, [pc, #72]	; (8001ef8 <HAL_GPIO_EXTI_Callback+0x278>)
 8001eb0:	681b      	ldr	r3, [r3, #0]
 8001eb2:	3301      	adds	r3, #1
 8001eb4:	4a10      	ldr	r2, [pc, #64]	; (8001ef8 <HAL_GPIO_EXTI_Callback+0x278>)
 8001eb6:	6013      	str	r3, [r2, #0]
			OLED_display_status = OLED_MENU;
		} else if (OLED_display_status == OLED_ABOUT) {
			// Press any key to return to menu
			OLED_display_status = OLED_MENU;
		}
		break;
 8001eb8:	e030      	b.n	8001f1c <HAL_GPIO_EXTI_Callback+0x29c>
		} else if (OLED_display_status == OLED_FILE_BROWSER) {
 8001eba:	4b0e      	ldr	r3, [pc, #56]	; (8001ef4 <HAL_GPIO_EXTI_Callback+0x274>)
 8001ebc:	681b      	ldr	r3, [r3, #0]
 8001ebe:	2b02      	cmp	r3, #2
 8001ec0:	d103      	bne.n	8001eca <HAL_GPIO_EXTI_Callback+0x24a>
			OLED_display_status = OLED_MENU;
 8001ec2:	4b0c      	ldr	r3, [pc, #48]	; (8001ef4 <HAL_GPIO_EXTI_Callback+0x274>)
 8001ec4:	2201      	movs	r2, #1
 8001ec6:	601a      	str	r2, [r3, #0]
		break;
 8001ec8:	e028      	b.n	8001f1c <HAL_GPIO_EXTI_Callback+0x29c>
		} else if (OLED_display_status == OLED_PLAYER) {
 8001eca:	4b0a      	ldr	r3, [pc, #40]	; (8001ef4 <HAL_GPIO_EXTI_Callback+0x274>)
 8001ecc:	681b      	ldr	r3, [r3, #0]
 8001ece:	2b03      	cmp	r3, #3
 8001ed0:	d103      	bne.n	8001eda <HAL_GPIO_EXTI_Callback+0x25a>
			OLED_display_status = OLED_MENU;
 8001ed2:	4b08      	ldr	r3, [pc, #32]	; (8001ef4 <HAL_GPIO_EXTI_Callback+0x274>)
 8001ed4:	2201      	movs	r2, #1
 8001ed6:	601a      	str	r2, [r3, #0]
		break;
 8001ed8:	e020      	b.n	8001f1c <HAL_GPIO_EXTI_Callback+0x29c>
		} else if (OLED_display_status == OLED_SETTING) {
 8001eda:	4b06      	ldr	r3, [pc, #24]	; (8001ef4 <HAL_GPIO_EXTI_Callback+0x274>)
 8001edc:	681b      	ldr	r3, [r3, #0]
 8001ede:	2b04      	cmp	r3, #4
 8001ee0:	d10c      	bne.n	8001efc <HAL_GPIO_EXTI_Callback+0x27c>
			OLED_display_status = OLED_MENU;
 8001ee2:	4b04      	ldr	r3, [pc, #16]	; (8001ef4 <HAL_GPIO_EXTI_Callback+0x274>)
 8001ee4:	2201      	movs	r2, #1
 8001ee6:	601a      	str	r2, [r3, #0]
		break;
 8001ee8:	e018      	b.n	8001f1c <HAL_GPIO_EXTI_Callback+0x29c>
 8001eea:	bf00      	nop
 8001eec:	20000620 	.word	0x20000620
 8001ef0:	20000020 	.word	0x20000020
 8001ef4:	2000001c 	.word	0x2000001c
 8001ef8:	2000061c 	.word	0x2000061c
		} else if (OLED_display_status == OLED_ABOUT) {
 8001efc:	4b19      	ldr	r3, [pc, #100]	; (8001f64 <HAL_GPIO_EXTI_Callback+0x2e4>)
 8001efe:	681b      	ldr	r3, [r3, #0]
 8001f00:	2b05      	cmp	r3, #5
 8001f02:	d10b      	bne.n	8001f1c <HAL_GPIO_EXTI_Callback+0x29c>
			OLED_display_status = OLED_MENU;
 8001f04:	4b17      	ldr	r3, [pc, #92]	; (8001f64 <HAL_GPIO_EXTI_Callback+0x2e4>)
 8001f06:	2201      	movs	r2, #1
 8001f08:	601a      	str	r2, [r3, #0]
		break;
 8001f0a:	e007      	b.n	8001f1c <HAL_GPIO_EXTI_Callback+0x29c>
		break;
 8001f0c:	bf00      	nop
 8001f0e:	e006      	b.n	8001f1e <HAL_GPIO_EXTI_Callback+0x29e>
		break;
 8001f10:	bf00      	nop
 8001f12:	e004      	b.n	8001f1e <HAL_GPIO_EXTI_Callback+0x29e>
		break;
 8001f14:	bf00      	nop
 8001f16:	e002      	b.n	8001f1e <HAL_GPIO_EXTI_Callback+0x29e>
		break;
 8001f18:	bf00      	nop
 8001f1a:	e000      	b.n	8001f1e <HAL_GPIO_EXTI_Callback+0x29e>
		break;
 8001f1c:	bf00      	nop
	default:
		return;
		break;
	}
	sprintf(buf, "External IO button %d pressed!\n\r", button);
 8001f1e:	f107 030c 	add.w	r3, r7, #12
 8001f22:	f8d7 210c 	ldr.w	r2, [r7, #268]	; 0x10c
 8001f26:	4910      	ldr	r1, [pc, #64]	; (8001f68 <HAL_GPIO_EXTI_Callback+0x2e8>)
 8001f28:	4618      	mov	r0, r3
 8001f2a:	f005 fff7 	bl	8007f1c <siprintf>
	HAL_UART_Transmit(&huart2, (uint8_t*) buf, strlen(buf), 0xffff);
 8001f2e:	f107 030c 	add.w	r3, r7, #12
 8001f32:	4618      	mov	r0, r3
 8001f34:	f7fe f94c 	bl	80001d0 <strlen>
 8001f38:	4603      	mov	r3, r0
 8001f3a:	b29a      	uxth	r2, r3
 8001f3c:	f107 010c 	add.w	r1, r7, #12
 8001f40:	f64f 73ff 	movw	r3, #65535	; 0xffff
 8001f44:	4809      	ldr	r0, [pc, #36]	; (8001f6c <HAL_GPIO_EXTI_Callback+0x2ec>)
 8001f46:	f003 f916 	bl	8005176 <HAL_UART_Transmit>

	// Update lastEventTime
	lastEventTime = globalTime;
 8001f4a:	4b09      	ldr	r3, [pc, #36]	; (8001f70 <HAL_GPIO_EXTI_Callback+0x2f0>)
 8001f4c:	681b      	ldr	r3, [r3, #0]
 8001f4e:	4a09      	ldr	r2, [pc, #36]	; (8001f74 <HAL_GPIO_EXTI_Callback+0x2f4>)
 8001f50:	6013      	str	r3, [r2, #0]
	return;
 8001f52:	e002      	b.n	8001f5a <HAL_GPIO_EXTI_Callback+0x2da>
		return;
 8001f54:	bf00      	nop
 8001f56:	e000      	b.n	8001f5a <HAL_GPIO_EXTI_Callback+0x2da>
		return;
 8001f58:	bf00      	nop
}
 8001f5a:	f507 7788 	add.w	r7, r7, #272	; 0x110
 8001f5e:	46bd      	mov	sp, r7
 8001f60:	bd80      	pop	{r7, pc}
 8001f62:	bf00      	nop
 8001f64:	2000001c 	.word	0x2000001c
 8001f68:	08008a24 	.word	0x08008a24
 8001f6c:	200005d8 	.word	0x200005d8
 8001f70:	20000620 	.word	0x20000620
 8001f74:	20000020 	.word	0x20000020

08001f78 <HAL_TIM_PeriodElapsedCallback>:
  * a global variable "uwTick" used as application time base.
  * @param  htim : TIM handle
  * @retval None
  */
void HAL_TIM_PeriodElapsedCallback(TIM_HandleTypeDef *htim)
{
 8001f78:	b580      	push	{r7, lr}
 8001f7a:	b082      	sub	sp, #8
 8001f7c:	af00      	add	r7, sp, #0
 8001f7e:	6078      	str	r0, [r7, #4]
  /* USER CODE BEGIN Callback 0 */

  /* USER CODE END Callback 0 */
  if (htim->Instance == TIM7) {
 8001f80:	687b      	ldr	r3, [r7, #4]
 8001f82:	681b      	ldr	r3, [r3, #0]
 8001f84:	4a04      	ldr	r2, [pc, #16]	; (8001f98 <HAL_TIM_PeriodElapsedCallback+0x20>)
 8001f86:	4293      	cmp	r3, r2
 8001f88:	d101      	bne.n	8001f8e <HAL_TIM_PeriodElapsedCallback+0x16>
    HAL_IncTick();
 8001f8a:	f000 fe15 	bl	8002bb8 <HAL_IncTick>
  }
  /* USER CODE BEGIN Callback 1 */

  /* USER CODE END Callback 1 */
}
 8001f8e:	bf00      	nop
 8001f90:	3708      	adds	r7, #8
 8001f92:	46bd      	mov	sp, r7
 8001f94:	bd80      	pop	{r7, pc}
 8001f96:	bf00      	nop
 8001f98:	40001400 	.word	0x40001400

08001f9c <Error_Handler>:
/**
  * @brief  This function is executed in case of error occurrence.
  * @retval None
  */
void Error_Handler(void)
{
 8001f9c:	b480      	push	{r7}
 8001f9e:	af00      	add	r7, sp, #0
  \details Disables IRQ interrupts by setting the I-bit in the CPSR.
           Can only be executed in Privileged modes.
 */
__STATIC_FORCEINLINE void __disable_irq(void)
{
  __ASM volatile ("cpsid i" : : : "memory");
 8001fa0:	b672      	cpsid	i
}
 8001fa2:	bf00      	nop
  /* USER CODE BEGIN Error_Handler_Debug */
  /* User can add his own implementation to report the HAL error return state */
  __disable_irq();
  while (1)
 8001fa4:	e7fe      	b.n	8001fa4 <Error_Handler+0x8>
	...

08001fa8 <SPI1_Error>:

///////////////////////////////////////////////////////  //////////////////////////////////////////////////////////


void SPI1_Error(void)
{
 8001fa8:	b580      	push	{r7, lr}
 8001faa:	af00      	add	r7, sp, #0
	__HAL_SPI_DISABLE(&hspi1);
 8001fac:	4b0b      	ldr	r3, [pc, #44]	; (8001fdc <SPI1_Error+0x34>)
 8001fae:	681b      	ldr	r3, [r3, #0]
 8001fb0:	681a      	ldr	r2, [r3, #0]
 8001fb2:	4b0a      	ldr	r3, [pc, #40]	; (8001fdc <SPI1_Error+0x34>)
 8001fb4:	681b      	ldr	r3, [r3, #0]
 8001fb6:	f022 0240 	bic.w	r2, r2, #64	; 0x40
 8001fba:	601a      	str	r2, [r3, #0]
    HAL_SPI_DeInit(&hspi1);
 8001fbc:	4807      	ldr	r0, [pc, #28]	; (8001fdc <SPI1_Error+0x34>)
 8001fbe:	f002 fb4a 	bl	8004656 <HAL_SPI_DeInit>
    MX_SPI1_Init();
 8001fc2:	f7ff fd75 	bl	8001ab0 <MX_SPI1_Init>
	__HAL_SPI_ENABLE(&hspi1);
 8001fc6:	4b05      	ldr	r3, [pc, #20]	; (8001fdc <SPI1_Error+0x34>)
 8001fc8:	681b      	ldr	r3, [r3, #0]
 8001fca:	681a      	ldr	r2, [r3, #0]
 8001fcc:	4b03      	ldr	r3, [pc, #12]	; (8001fdc <SPI1_Error+0x34>)
 8001fce:	681b      	ldr	r3, [r3, #0]
 8001fd0:	f042 0240 	orr.w	r2, r2, #64	; 0x40
 8001fd4:	601a      	str	r2, [r3, #0]
}
 8001fd6:	bf00      	nop
 8001fd8:	bd80      	pop	{r7, pc}
 8001fda:	bf00      	nop
 8001fdc:	20000580 	.word	0x20000580

08001fe0 <SPI1_ReadWriteByte>:

uint8_t SPI1_ReadWriteByte(uint8_t TxDate)
{
 8001fe0:	b580      	push	{r7, lr}
 8001fe2:	b086      	sub	sp, #24
 8001fe4:	af02      	add	r7, sp, #8
 8001fe6:	4603      	mov	r3, r0
 8001fe8:	71fb      	strb	r3, [r7, #7]
    uint8_t RxData = 0;
 8001fea:	2300      	movs	r3, #0
 8001fec:	73fb      	strb	r3, [r7, #15]
    if(HAL_SPI_TransmitReceive(&hspi1, &TxDate, &RxData, 1, 1000) != HAL_OK)
 8001fee:	f107 020f 	add.w	r2, r7, #15
 8001ff2:	1df9      	adds	r1, r7, #7
 8001ff4:	f44f 737a 	mov.w	r3, #1000	; 0x3e8
 8001ff8:	9300      	str	r3, [sp, #0]
 8001ffa:	2301      	movs	r3, #1
 8001ffc:	4806      	ldr	r0, [pc, #24]	; (8002018 <SPI1_ReadWriteByte+0x38>)
 8001ffe:	f002 fb52 	bl	80046a6 <HAL_SPI_TransmitReceive>
 8002002:	4603      	mov	r3, r0
 8002004:	2b00      	cmp	r3, #0
 8002006:	d001      	beq.n	800200c <SPI1_ReadWriteByte+0x2c>
    {
        SPI1_Error();
 8002008:	f7ff ffce 	bl	8001fa8 <SPI1_Error>
    }
    return RxData;
 800200c:	7bfb      	ldrb	r3, [r7, #15]
}
 800200e:	4618      	mov	r0, r3
 8002010:	3710      	adds	r7, #16
 8002012:	46bd      	mov	sp, r7
 8002014:	bd80      	pop	{r7, pc}
 8002016:	bf00      	nop
 8002018:	20000580 	.word	0x20000580

0800201c <SD_SPI_ReadWriteByte>:
 * SDSPI
 * @param  TxData 
 * @return        SPI
 */
uint8_t SD_SPI_ReadWriteByte(uint8_t TxData)
{
 800201c:	b580      	push	{r7, lr}
 800201e:	b082      	sub	sp, #8
 8002020:	af00      	add	r7, sp, #0
 8002022:	4603      	mov	r3, r0
 8002024:	71fb      	strb	r3, [r7, #7]
    return SPI1_ReadWriteByte(TxData);
 8002026:	79fb      	ldrb	r3, [r7, #7]
 8002028:	4618      	mov	r0, r3
 800202a:	f7ff ffd9 	bl	8001fe0 <SPI1_ReadWriteByte>
 800202e:	4603      	mov	r3, r0
}
 8002030:	4618      	mov	r0, r3
 8002032:	3708      	adds	r7, #8
 8002034:	46bd      	mov	sp, r7
 8002036:	bd80      	pop	{r7, pc}

08002038 <SD_SPI_Init>:

/// SPI
void SD_SPI_Init(void)
{
 8002038:	b580      	push	{r7, lr}
 800203a:	af00      	add	r7, sp, #0
    MX_SPI1_Init();
 800203c:	f7ff fd38 	bl	8001ab0 <MX_SPI1_Init>
	__HAL_SPI_ENABLE(&hspi1);
 8002040:	4b08      	ldr	r3, [pc, #32]	; (8002064 <SD_SPI_Init+0x2c>)
 8002042:	681b      	ldr	r3, [r3, #0]
 8002044:	681a      	ldr	r2, [r3, #0]
 8002046:	4b07      	ldr	r3, [pc, #28]	; (8002064 <SD_SPI_Init+0x2c>)
 8002048:	681b      	ldr	r3, [r3, #0]
 800204a:	f042 0240 	orr.w	r2, r2, #64	; 0x40
 800204e:	601a      	str	r2, [r3, #0]
    SD_SPI_ReadWriteByte(0xFF);
 8002050:	20ff      	movs	r0, #255	; 0xff
 8002052:	f7ff ffe3 	bl	800201c <SD_SPI_ReadWriteByte>
    SD_CS_H();
 8002056:	2201      	movs	r2, #1
 8002058:	2110      	movs	r1, #16
 800205a:	4803      	ldr	r0, [pc, #12]	; (8002068 <SD_SPI_Init+0x30>)
 800205c:	f001 f96a 	bl	8003334 <HAL_GPIO_WritePin>
}
 8002060:	bf00      	nop
 8002062:	bd80      	pop	{r7, pc}
 8002064:	20000580 	.word	0x20000580
 8002068:	40020000 	.word	0x40020000

0800206c <SD_DisSelect>:

////////////////////////////////////////////////////////  SD SPI   /////////////////////////////////////////////////////////////

//,SPI
void SD_DisSelect(void)
{
 800206c:	b580      	push	{r7, lr}
 800206e:	af00      	add	r7, sp, #0
    SD_CS_H();
 8002070:	2201      	movs	r2, #1
 8002072:	2110      	movs	r1, #16
 8002074:	4803      	ldr	r0, [pc, #12]	; (8002084 <SD_DisSelect+0x18>)
 8002076:	f001 f95d 	bl	8003334 <HAL_GPIO_WritePin>
    SD_SPI_ReadWriteByte(0xff);//8
 800207a:	20ff      	movs	r0, #255	; 0xff
 800207c:	f7ff ffce 	bl	800201c <SD_SPI_ReadWriteByte>
}
 8002080:	bf00      	nop
 8002082:	bd80      	pop	{r7, pc}
 8002084:	40020000 	.word	0x40020000

08002088 <SD_Select>:
/**
 * SD
 * @return  0  1
 */
uint8_t SD_Select(void)
{
 8002088:	b580      	push	{r7, lr}
 800208a:	af00      	add	r7, sp, #0
    SD_CS_L();
 800208c:	2200      	movs	r2, #0
 800208e:	2110      	movs	r1, #16
 8002090:	4807      	ldr	r0, [pc, #28]	; (80020b0 <SD_Select+0x28>)
 8002092:	f001 f94f 	bl	8003334 <HAL_GPIO_WritePin>
    if (SD_WaitReady() == 0)return 0; //
 8002096:	f000 f80d 	bl	80020b4 <SD_WaitReady>
 800209a:	4603      	mov	r3, r0
 800209c:	2b00      	cmp	r3, #0
 800209e:	d101      	bne.n	80020a4 <SD_Select+0x1c>
 80020a0:	2300      	movs	r3, #0
 80020a2:	e002      	b.n	80020aa <SD_Select+0x22>
    SD_DisSelect();
 80020a4:	f7ff ffe2 	bl	800206c <SD_DisSelect>
    return 1;//
 80020a8:	2301      	movs	r3, #1
}
 80020aa:	4618      	mov	r0, r3
 80020ac:	bd80      	pop	{r7, pc}
 80020ae:	bf00      	nop
 80020b0:	40020000 	.word	0x40020000

080020b4 <SD_WaitReady>:
/**
 * SD
 * @return  0  other
 */
uint8_t SD_WaitReady(void)
{
 80020b4:	b580      	push	{r7, lr}
 80020b6:	b082      	sub	sp, #8
 80020b8:	af00      	add	r7, sp, #0
    uint32_t t = 0;
 80020ba:	2300      	movs	r3, #0
 80020bc:	607b      	str	r3, [r7, #4]
    do
    {
        if (SD_SPI_ReadWriteByte(0XFF) == 0XFF)return 0; //OK
 80020be:	20ff      	movs	r0, #255	; 0xff
 80020c0:	f7ff ffac 	bl	800201c <SD_SPI_ReadWriteByte>
 80020c4:	4603      	mov	r3, r0
 80020c6:	2bff      	cmp	r3, #255	; 0xff
 80020c8:	d101      	bne.n	80020ce <SD_WaitReady+0x1a>
 80020ca:	2300      	movs	r3, #0
 80020cc:	e008      	b.n	80020e0 <SD_WaitReady+0x2c>
        t++;
 80020ce:	687b      	ldr	r3, [r7, #4]
 80020d0:	3301      	adds	r3, #1
 80020d2:	607b      	str	r3, [r7, #4]
    }
    while (t < 0xFFFFFF); //
 80020d4:	687b      	ldr	r3, [r7, #4]
 80020d6:	f06f 427f 	mvn.w	r2, #4278190080	; 0xff000000
 80020da:	4293      	cmp	r3, r2
 80020dc:	d3ef      	bcc.n	80020be <SD_WaitReady+0xa>
    return 1;
 80020de:	2301      	movs	r3, #1
}
 80020e0:	4618      	mov	r0, r3
 80020e2:	3708      	adds	r7, #8
 80020e4:	46bd      	mov	sp, r7
 80020e6:	bd80      	pop	{r7, pc}

080020e8 <SD_GetResponse>:
 * SD
 * @param  Response 
 * @return          0  other
 */
uint8_t SD_GetResponse(uint8_t Response)
{
 80020e8:	b580      	push	{r7, lr}
 80020ea:	b084      	sub	sp, #16
 80020ec:	af00      	add	r7, sp, #0
 80020ee:	4603      	mov	r3, r0
 80020f0:	71fb      	strb	r3, [r7, #7]
    uint16_t Count = 0xFFF; //
 80020f2:	f640 73ff 	movw	r3, #4095	; 0xfff
 80020f6:	81fb      	strh	r3, [r7, #14]
    while ((SD_SPI_ReadWriteByte(0XFF) != Response) && Count)Count--; //
 80020f8:	e002      	b.n	8002100 <SD_GetResponse+0x18>
 80020fa:	89fb      	ldrh	r3, [r7, #14]
 80020fc:	3b01      	subs	r3, #1
 80020fe:	81fb      	strh	r3, [r7, #14]
 8002100:	20ff      	movs	r0, #255	; 0xff
 8002102:	f7ff ff8b 	bl	800201c <SD_SPI_ReadWriteByte>
 8002106:	4603      	mov	r3, r0
 8002108:	461a      	mov	r2, r3
 800210a:	79fb      	ldrb	r3, [r7, #7]
 800210c:	4293      	cmp	r3, r2
 800210e:	d002      	beq.n	8002116 <SD_GetResponse+0x2e>
 8002110:	89fb      	ldrh	r3, [r7, #14]
 8002112:	2b00      	cmp	r3, #0
 8002114:	d1f1      	bne.n	80020fa <SD_GetResponse+0x12>
    if (Count == 0)return MSD_RESPONSE_FAILURE; //
 8002116:	89fb      	ldrh	r3, [r7, #14]
 8002118:	2b00      	cmp	r3, #0
 800211a:	d101      	bne.n	8002120 <SD_GetResponse+0x38>
 800211c:	23ff      	movs	r3, #255	; 0xff
 800211e:	e000      	b.n	8002122 <SD_GetResponse+0x3a>
    else return MSD_RESPONSE_NO_ERROR;//
 8002120:	2300      	movs	r3, #0
}
 8002122:	4618      	mov	r0, r3
 8002124:	3710      	adds	r7, #16
 8002126:	46bd      	mov	sp, r7
 8002128:	bd80      	pop	{r7, pc}

0800212a <SD_RecvData>:
 * @param  buf 
 * @param  len 
 * @return     0  other
 */
uint8_t SD_RecvData(uint8_t*buf, uint16_t len)
{
 800212a:	b580      	push	{r7, lr}
 800212c:	b082      	sub	sp, #8
 800212e:	af00      	add	r7, sp, #0
 8002130:	6078      	str	r0, [r7, #4]
 8002132:	460b      	mov	r3, r1
 8002134:	807b      	strh	r3, [r7, #2]
    if (SD_GetResponse(0xFE))return 1; //SD0xFE
 8002136:	20fe      	movs	r0, #254	; 0xfe
 8002138:	f7ff ffd6 	bl	80020e8 <SD_GetResponse>
 800213c:	4603      	mov	r3, r0
 800213e:	2b00      	cmp	r3, #0
 8002140:	d00b      	beq.n	800215a <SD_RecvData+0x30>
 8002142:	2301      	movs	r3, #1
 8002144:	e015      	b.n	8002172 <SD_RecvData+0x48>
    while (len--) //
    {
        *buf = SD_SPI_ReadWriteByte(0xFF);
 8002146:	20ff      	movs	r0, #255	; 0xff
 8002148:	f7ff ff68 	bl	800201c <SD_SPI_ReadWriteByte>
 800214c:	4603      	mov	r3, r0
 800214e:	461a      	mov	r2, r3
 8002150:	687b      	ldr	r3, [r7, #4]
 8002152:	701a      	strb	r2, [r3, #0]
        buf++;
 8002154:	687b      	ldr	r3, [r7, #4]
 8002156:	3301      	adds	r3, #1
 8002158:	607b      	str	r3, [r7, #4]
    while (len--) //
 800215a:	887b      	ldrh	r3, [r7, #2]
 800215c:	1e5a      	subs	r2, r3, #1
 800215e:	807a      	strh	r2, [r7, #2]
 8002160:	2b00      	cmp	r3, #0
 8002162:	d1f0      	bne.n	8002146 <SD_RecvData+0x1c>
    }
    //2CRCdummy CRC
    SD_SPI_ReadWriteByte(0xFF);
 8002164:	20ff      	movs	r0, #255	; 0xff
 8002166:	f7ff ff59 	bl	800201c <SD_SPI_ReadWriteByte>
    SD_SPI_ReadWriteByte(0xFF);
 800216a:	20ff      	movs	r0, #255	; 0xff
 800216c:	f7ff ff56 	bl	800201c <SD_SPI_ReadWriteByte>
    return 0;//
 8002170:	2300      	movs	r3, #0
}
 8002172:	4618      	mov	r0, r3
 8002174:	3708      	adds	r7, #8
 8002176:	46bd      	mov	sp, r7
 8002178:	bd80      	pop	{r7, pc}

0800217a <SD_SendBlock>:
 * @param  buf size=512
 * @param  cmd 
 * @return     0  other
 */
uint8_t SD_SendBlock(uint8_t*buf, uint8_t cmd)
{
 800217a:	b580      	push	{r7, lr}
 800217c:	b084      	sub	sp, #16
 800217e:	af00      	add	r7, sp, #0
 8002180:	6078      	str	r0, [r7, #4]
 8002182:	460b      	mov	r3, r1
 8002184:	70fb      	strb	r3, [r7, #3]
    uint16_t t;
    if (SD_WaitReady())return 1; //
 8002186:	f7ff ff95 	bl	80020b4 <SD_WaitReady>
 800218a:	4603      	mov	r3, r0
 800218c:	2b00      	cmp	r3, #0
 800218e:	d001      	beq.n	8002194 <SD_SendBlock+0x1a>
 8002190:	2301      	movs	r3, #1
 8002192:	e02a      	b.n	80021ea <SD_SendBlock+0x70>
    SD_SPI_ReadWriteByte(cmd);
 8002194:	78fb      	ldrb	r3, [r7, #3]
 8002196:	4618      	mov	r0, r3
 8002198:	f7ff ff40 	bl	800201c <SD_SPI_ReadWriteByte>
    if (cmd != 0XFD) //
 800219c:	78fb      	ldrb	r3, [r7, #3]
 800219e:	2bfd      	cmp	r3, #253	; 0xfd
 80021a0:	d022      	beq.n	80021e8 <SD_SendBlock+0x6e>
    {
        for (t = 0; t < 512; t++)SD_SPI_ReadWriteByte(buf[t]); //,
 80021a2:	2300      	movs	r3, #0
 80021a4:	81fb      	strh	r3, [r7, #14]
 80021a6:	e009      	b.n	80021bc <SD_SendBlock+0x42>
 80021a8:	89fb      	ldrh	r3, [r7, #14]
 80021aa:	687a      	ldr	r2, [r7, #4]
 80021ac:	4413      	add	r3, r2
 80021ae:	781b      	ldrb	r3, [r3, #0]
 80021b0:	4618      	mov	r0, r3
 80021b2:	f7ff ff33 	bl	800201c <SD_SPI_ReadWriteByte>
 80021b6:	89fb      	ldrh	r3, [r7, #14]
 80021b8:	3301      	adds	r3, #1
 80021ba:	81fb      	strh	r3, [r7, #14]
 80021bc:	89fb      	ldrh	r3, [r7, #14]
 80021be:	f5b3 7f00 	cmp.w	r3, #512	; 0x200
 80021c2:	d3f1      	bcc.n	80021a8 <SD_SendBlock+0x2e>
        SD_SPI_ReadWriteByte(0xFF);//crc
 80021c4:	20ff      	movs	r0, #255	; 0xff
 80021c6:	f7ff ff29 	bl	800201c <SD_SPI_ReadWriteByte>
        SD_SPI_ReadWriteByte(0xFF);
 80021ca:	20ff      	movs	r0, #255	; 0xff
 80021cc:	f7ff ff26 	bl	800201c <SD_SPI_ReadWriteByte>
        t = SD_SPI_ReadWriteByte(0xFF); //
 80021d0:	20ff      	movs	r0, #255	; 0xff
 80021d2:	f7ff ff23 	bl	800201c <SD_SPI_ReadWriteByte>
 80021d6:	4603      	mov	r3, r0
 80021d8:	81fb      	strh	r3, [r7, #14]
        if ((t & 0x1F) != 0x05)return 2; //
 80021da:	89fb      	ldrh	r3, [r7, #14]
 80021dc:	f003 031f 	and.w	r3, r3, #31
 80021e0:	2b05      	cmp	r3, #5
 80021e2:	d001      	beq.n	80021e8 <SD_SendBlock+0x6e>
 80021e4:	2302      	movs	r3, #2
 80021e6:	e000      	b.n	80021ea <SD_SendBlock+0x70>
    }
    return 0;//
 80021e8:	2300      	movs	r3, #0
}
 80021ea:	4618      	mov	r0, r3
 80021ec:	3710      	adds	r7, #16
 80021ee:	46bd      	mov	sp, r7
 80021f0:	bd80      	pop	{r7, pc}

080021f2 <SD_SendCmd>:
 * @param  arg 
 * @param  crc crc
 * @return     SD
 */
uint8_t SD_SendCmd(uint8_t cmd, uint32_t arg, uint8_t crc)
{
 80021f2:	b580      	push	{r7, lr}
 80021f4:	b084      	sub	sp, #16
 80021f6:	af00      	add	r7, sp, #0
 80021f8:	4603      	mov	r3, r0
 80021fa:	6039      	str	r1, [r7, #0]
 80021fc:	71fb      	strb	r3, [r7, #7]
 80021fe:	4613      	mov	r3, r2
 8002200:	71bb      	strb	r3, [r7, #6]
    uint8_t r1;
    uint8_t Retry = 0;
 8002202:	2300      	movs	r3, #0
 8002204:	73fb      	strb	r3, [r7, #15]
    SD_DisSelect();//
 8002206:	f7ff ff31 	bl	800206c <SD_DisSelect>
    if (SD_Select())return 0XFF; //
 800220a:	f7ff ff3d 	bl	8002088 <SD_Select>
 800220e:	4603      	mov	r3, r0
 8002210:	2b00      	cmp	r3, #0
 8002212:	d001      	beq.n	8002218 <SD_SendCmd+0x26>
 8002214:	23ff      	movs	r3, #255	; 0xff
 8002216:	e038      	b.n	800228a <SD_SendCmd+0x98>
    //
    SD_SPI_ReadWriteByte(cmd | 0x40);//
 8002218:	79fb      	ldrb	r3, [r7, #7]
 800221a:	f043 0340 	orr.w	r3, r3, #64	; 0x40
 800221e:	b2db      	uxtb	r3, r3
 8002220:	4618      	mov	r0, r3
 8002222:	f7ff fefb 	bl	800201c <SD_SPI_ReadWriteByte>
    SD_SPI_ReadWriteByte(arg >> 24);
 8002226:	683b      	ldr	r3, [r7, #0]
 8002228:	0e1b      	lsrs	r3, r3, #24
 800222a:	b2db      	uxtb	r3, r3
 800222c:	4618      	mov	r0, r3
 800222e:	f7ff fef5 	bl	800201c <SD_SPI_ReadWriteByte>
    SD_SPI_ReadWriteByte(arg >> 16);
 8002232:	683b      	ldr	r3, [r7, #0]
 8002234:	0c1b      	lsrs	r3, r3, #16
 8002236:	b2db      	uxtb	r3, r3
 8002238:	4618      	mov	r0, r3
 800223a:	f7ff feef 	bl	800201c <SD_SPI_ReadWriteByte>
    SD_SPI_ReadWriteByte(arg >> 8);
 800223e:	683b      	ldr	r3, [r7, #0]
 8002240:	0a1b      	lsrs	r3, r3, #8
 8002242:	b2db      	uxtb	r3, r3
 8002244:	4618      	mov	r0, r3
 8002246:	f7ff fee9 	bl	800201c <SD_SPI_ReadWriteByte>
    SD_SPI_ReadWriteByte(arg);
 800224a:	683b      	ldr	r3, [r7, #0]
 800224c:	b2db      	uxtb	r3, r3
 800224e:	4618      	mov	r0, r3
 8002250:	f7ff fee4 	bl	800201c <SD_SPI_ReadWriteByte>
    SD_SPI_ReadWriteByte(crc);
 8002254:	79bb      	ldrb	r3, [r7, #6]
 8002256:	4618      	mov	r0, r3
 8002258:	f7ff fee0 	bl	800201c <SD_SPI_ReadWriteByte>
    if (cmd == CMD12)SD_SPI_ReadWriteByte(0xff); //Skip a stuff byte when stop reading
 800225c:	79fb      	ldrb	r3, [r7, #7]
 800225e:	2b0c      	cmp	r3, #12
 8002260:	d102      	bne.n	8002268 <SD_SendCmd+0x76>
 8002262:	20ff      	movs	r0, #255	; 0xff
 8002264:	f7ff feda 	bl	800201c <SD_SPI_ReadWriteByte>
    //
    Retry = 0X1F;
 8002268:	231f      	movs	r3, #31
 800226a:	73fb      	strb	r3, [r7, #15]
    do
    {
        r1 = SD_SPI_ReadWriteByte(0xFF);
 800226c:	20ff      	movs	r0, #255	; 0xff
 800226e:	f7ff fed5 	bl	800201c <SD_SPI_ReadWriteByte>
 8002272:	4603      	mov	r3, r0
 8002274:	73bb      	strb	r3, [r7, #14]
    }
    while ((r1 & 0X80) && Retry--);
 8002276:	f997 300e 	ldrsb.w	r3, [r7, #14]
 800227a:	2b00      	cmp	r3, #0
 800227c:	da04      	bge.n	8002288 <SD_SendCmd+0x96>
 800227e:	7bfb      	ldrb	r3, [r7, #15]
 8002280:	1e5a      	subs	r2, r3, #1
 8002282:	73fa      	strb	r2, [r7, #15]
 8002284:	2b00      	cmp	r3, #0
 8002286:	d1f1      	bne.n	800226c <SD_SendCmd+0x7a>
    //
    return r1;
 8002288:	7bbb      	ldrb	r3, [r7, #14]
}
 800228a:	4618      	mov	r0, r3
 800228c:	3710      	adds	r7, #16
 800228e:	46bd      	mov	sp, r7
 8002290:	bd80      	pop	{r7, pc}
	...

08002294 <SD_Initialize>:
    if (retry == 200)return 1; //
    return 0;//
}
/// SD
uint8_t SD_Initialize(void)
{
 8002294:	b590      	push	{r4, r7, lr}
 8002296:	b085      	sub	sp, #20
 8002298:	af00      	add	r7, sp, #0
    uint8_t r1;      // SD
    uint16_t retry;  // 
    uint8_t buf[4];
    uint16_t i;

    SD_SPI_Init();		//IO
 800229a:	f7ff fecd 	bl	8002038 <SD_SPI_Init>
	//for(i=0;i<0xf00;i++);//SD
//    SD_Select();
    for (i = 0; i < 10; i++)SD_SPI_ReadWriteByte(0XFF); //74
 800229e:	2300      	movs	r3, #0
 80022a0:	817b      	strh	r3, [r7, #10]
 80022a2:	e005      	b.n	80022b0 <SD_Initialize+0x1c>
 80022a4:	20ff      	movs	r0, #255	; 0xff
 80022a6:	f7ff feb9 	bl	800201c <SD_SPI_ReadWriteByte>
 80022aa:	897b      	ldrh	r3, [r7, #10]
 80022ac:	3301      	adds	r3, #1
 80022ae:	817b      	strh	r3, [r7, #10]
 80022b0:	897b      	ldrh	r3, [r7, #10]
 80022b2:	2b09      	cmp	r3, #9
 80022b4:	d9f6      	bls.n	80022a4 <SD_Initialize+0x10>
    retry = 20;
 80022b6:	2314      	movs	r3, #20
 80022b8:	81bb      	strh	r3, [r7, #12]
    do
    {
        r1 = SD_SendCmd(CMD0, 0, 0x95); //IDLE
 80022ba:	2295      	movs	r2, #149	; 0x95
 80022bc:	2100      	movs	r1, #0
 80022be:	2000      	movs	r0, #0
 80022c0:	f7ff ff97 	bl	80021f2 <SD_SendCmd>
 80022c4:	4603      	mov	r3, r0
 80022c6:	73fb      	strb	r3, [r7, #15]
    }
    while ((r1 != 0X01) && retry--);
 80022c8:	7bfb      	ldrb	r3, [r7, #15]
 80022ca:	2b01      	cmp	r3, #1
 80022cc:	d004      	beq.n	80022d8 <SD_Initialize+0x44>
 80022ce:	89bb      	ldrh	r3, [r7, #12]
 80022d0:	1e5a      	subs	r2, r3, #1
 80022d2:	81ba      	strh	r2, [r7, #12]
 80022d4:	2b00      	cmp	r3, #0
 80022d6:	d1f0      	bne.n	80022ba <SD_Initialize+0x26>
    SD_Type = 0; //
 80022d8:	4b67      	ldr	r3, [pc, #412]	; (8002478 <SD_Initialize+0x1e4>)
 80022da:	2200      	movs	r2, #0
 80022dc:	701a      	strb	r2, [r3, #0]
    if (r1 == 0X01)
 80022de:	7bfb      	ldrb	r3, [r7, #15]
 80022e0:	2b01      	cmp	r3, #1
 80022e2:	f040 80b7 	bne.w	8002454 <SD_Initialize+0x1c0>
    {
        if (SD_SendCmd(CMD8, 0x1AA, 0x87) == 1) //SD V2.0
 80022e6:	2287      	movs	r2, #135	; 0x87
 80022e8:	f44f 71d5 	mov.w	r1, #426	; 0x1aa
 80022ec:	2008      	movs	r0, #8
 80022ee:	f7ff ff80 	bl	80021f2 <SD_SendCmd>
 80022f2:	4603      	mov	r3, r0
 80022f4:	2b01      	cmp	r3, #1
 80022f6:	d15f      	bne.n	80023b8 <SD_Initialize+0x124>
        {
            for (i = 0; i < 4; i++)buf[i] = SD_SPI_ReadWriteByte(0XFF);	//Get trailing return value of R7 resp
 80022f8:	2300      	movs	r3, #0
 80022fa:	817b      	strh	r3, [r7, #10]
 80022fc:	e00d      	b.n	800231a <SD_Initialize+0x86>
 80022fe:	897c      	ldrh	r4, [r7, #10]
 8002300:	20ff      	movs	r0, #255	; 0xff
 8002302:	f7ff fe8b 	bl	800201c <SD_SPI_ReadWriteByte>
 8002306:	4603      	mov	r3, r0
 8002308:	461a      	mov	r2, r3
 800230a:	f104 0310 	add.w	r3, r4, #16
 800230e:	443b      	add	r3, r7
 8002310:	f803 2c0c 	strb.w	r2, [r3, #-12]
 8002314:	897b      	ldrh	r3, [r7, #10]
 8002316:	3301      	adds	r3, #1
 8002318:	817b      	strh	r3, [r7, #10]
 800231a:	897b      	ldrh	r3, [r7, #10]
 800231c:	2b03      	cmp	r3, #3
 800231e:	d9ee      	bls.n	80022fe <SD_Initialize+0x6a>
            if (buf[2] == 0X01 && buf[3] == 0XAA) //2.7~3.6V
 8002320:	79bb      	ldrb	r3, [r7, #6]
 8002322:	2b01      	cmp	r3, #1
 8002324:	f040 8096 	bne.w	8002454 <SD_Initialize+0x1c0>
 8002328:	79fb      	ldrb	r3, [r7, #7]
 800232a:	2baa      	cmp	r3, #170	; 0xaa
 800232c:	f040 8092 	bne.w	8002454 <SD_Initialize+0x1c0>
            {
                retry = 0XFFFE;
 8002330:	f64f 73fe 	movw	r3, #65534	; 0xfffe
 8002334:	81bb      	strh	r3, [r7, #12]
                do
                {
                    SD_SendCmd(CMD55, 0, 0X01);	//CMD55
 8002336:	2201      	movs	r2, #1
 8002338:	2100      	movs	r1, #0
 800233a:	2037      	movs	r0, #55	; 0x37
 800233c:	f7ff ff59 	bl	80021f2 <SD_SendCmd>
                    r1 = SD_SendCmd(CMD41, 0x40000000, 0X01); //CMD41
 8002340:	2201      	movs	r2, #1
 8002342:	f04f 4180 	mov.w	r1, #1073741824	; 0x40000000
 8002346:	2029      	movs	r0, #41	; 0x29
 8002348:	f7ff ff53 	bl	80021f2 <SD_SendCmd>
 800234c:	4603      	mov	r3, r0
 800234e:	73fb      	strb	r3, [r7, #15]
                }
                while (r1 && retry--);
 8002350:	7bfb      	ldrb	r3, [r7, #15]
 8002352:	2b00      	cmp	r3, #0
 8002354:	d004      	beq.n	8002360 <SD_Initialize+0xcc>
 8002356:	89bb      	ldrh	r3, [r7, #12]
 8002358:	1e5a      	subs	r2, r3, #1
 800235a:	81ba      	strh	r2, [r7, #12]
 800235c:	2b00      	cmp	r3, #0
 800235e:	d1ea      	bne.n	8002336 <SD_Initialize+0xa2>
                if (retry && SD_SendCmd(CMD58, 0, 0X01) == 0) //SD2.0
 8002360:	89bb      	ldrh	r3, [r7, #12]
 8002362:	2b00      	cmp	r3, #0
 8002364:	d076      	beq.n	8002454 <SD_Initialize+0x1c0>
 8002366:	2201      	movs	r2, #1
 8002368:	2100      	movs	r1, #0
 800236a:	203a      	movs	r0, #58	; 0x3a
 800236c:	f7ff ff41 	bl	80021f2 <SD_SendCmd>
 8002370:	4603      	mov	r3, r0
 8002372:	2b00      	cmp	r3, #0
 8002374:	d16e      	bne.n	8002454 <SD_Initialize+0x1c0>
                {
                    for (i = 0; i < 4; i++)buf[i] = SD_SPI_ReadWriteByte(0XFF); //OCR
 8002376:	2300      	movs	r3, #0
 8002378:	817b      	strh	r3, [r7, #10]
 800237a:	e00d      	b.n	8002398 <SD_Initialize+0x104>
 800237c:	897c      	ldrh	r4, [r7, #10]
 800237e:	20ff      	movs	r0, #255	; 0xff
 8002380:	f7ff fe4c 	bl	800201c <SD_SPI_ReadWriteByte>
 8002384:	4603      	mov	r3, r0
 8002386:	461a      	mov	r2, r3
 8002388:	f104 0310 	add.w	r3, r4, #16
 800238c:	443b      	add	r3, r7
 800238e:	f803 2c0c 	strb.w	r2, [r3, #-12]
 8002392:	897b      	ldrh	r3, [r7, #10]
 8002394:	3301      	adds	r3, #1
 8002396:	817b      	strh	r3, [r7, #10]
 8002398:	897b      	ldrh	r3, [r7, #10]
 800239a:	2b03      	cmp	r3, #3
 800239c:	d9ee      	bls.n	800237c <SD_Initialize+0xe8>
                    if (buf[0] & 0x40)SD_Type = SD_TYPE_V2HC; //CCS
 800239e:	793b      	ldrb	r3, [r7, #4]
 80023a0:	f003 0340 	and.w	r3, r3, #64	; 0x40
 80023a4:	2b00      	cmp	r3, #0
 80023a6:	d003      	beq.n	80023b0 <SD_Initialize+0x11c>
 80023a8:	4b33      	ldr	r3, [pc, #204]	; (8002478 <SD_Initialize+0x1e4>)
 80023aa:	2206      	movs	r2, #6
 80023ac:	701a      	strb	r2, [r3, #0]
 80023ae:	e051      	b.n	8002454 <SD_Initialize+0x1c0>
                    else SD_Type = SD_TYPE_V2;
 80023b0:	4b31      	ldr	r3, [pc, #196]	; (8002478 <SD_Initialize+0x1e4>)
 80023b2:	2204      	movs	r2, #4
 80023b4:	701a      	strb	r2, [r3, #0]
 80023b6:	e04d      	b.n	8002454 <SD_Initialize+0x1c0>
                }
            }
        }
        else //SD V1.x/ MMC	V3
        {
            SD_SendCmd(CMD55, 0, 0X01);		//CMD55
 80023b8:	2201      	movs	r2, #1
 80023ba:	2100      	movs	r1, #0
 80023bc:	2037      	movs	r0, #55	; 0x37
 80023be:	f7ff ff18 	bl	80021f2 <SD_SendCmd>
            r1 = SD_SendCmd(CMD41, 0, 0X01);	//CMD41
 80023c2:	2201      	movs	r2, #1
 80023c4:	2100      	movs	r1, #0
 80023c6:	2029      	movs	r0, #41	; 0x29
 80023c8:	f7ff ff13 	bl	80021f2 <SD_SendCmd>
 80023cc:	4603      	mov	r3, r0
 80023ce:	73fb      	strb	r3, [r7, #15]
            if (r1 <= 1)
 80023d0:	7bfb      	ldrb	r3, [r7, #15]
 80023d2:	2b01      	cmp	r3, #1
 80023d4:	d81a      	bhi.n	800240c <SD_Initialize+0x178>
            {
                SD_Type = SD_TYPE_V1;
 80023d6:	4b28      	ldr	r3, [pc, #160]	; (8002478 <SD_Initialize+0x1e4>)
 80023d8:	2202      	movs	r2, #2
 80023da:	701a      	strb	r2, [r3, #0]
                retry = 0XFFFE;
 80023dc:	f64f 73fe 	movw	r3, #65534	; 0xfffe
 80023e0:	81bb      	strh	r3, [r7, #12]
                do //IDLE
                {
                    SD_SendCmd(CMD55, 0, 0X01);	//CMD55
 80023e2:	2201      	movs	r2, #1
 80023e4:	2100      	movs	r1, #0
 80023e6:	2037      	movs	r0, #55	; 0x37
 80023e8:	f7ff ff03 	bl	80021f2 <SD_SendCmd>
                    r1 = SD_SendCmd(CMD41, 0, 0X01); //CMD41
 80023ec:	2201      	movs	r2, #1
 80023ee:	2100      	movs	r1, #0
 80023f0:	2029      	movs	r0, #41	; 0x29
 80023f2:	f7ff fefe 	bl	80021f2 <SD_SendCmd>
 80023f6:	4603      	mov	r3, r0
 80023f8:	73fb      	strb	r3, [r7, #15]
                }
                while (r1 && retry--);
 80023fa:	7bfb      	ldrb	r3, [r7, #15]
 80023fc:	2b00      	cmp	r3, #0
 80023fe:	d01a      	beq.n	8002436 <SD_Initialize+0x1a2>
 8002400:	89bb      	ldrh	r3, [r7, #12]
 8002402:	1e5a      	subs	r2, r3, #1
 8002404:	81ba      	strh	r2, [r7, #12]
 8002406:	2b00      	cmp	r3, #0
 8002408:	d1eb      	bne.n	80023e2 <SD_Initialize+0x14e>
 800240a:	e014      	b.n	8002436 <SD_Initialize+0x1a2>
            }
            else
            {
                SD_Type = SD_TYPE_MMC; //MMC V3
 800240c:	4b1a      	ldr	r3, [pc, #104]	; (8002478 <SD_Initialize+0x1e4>)
 800240e:	2201      	movs	r2, #1
 8002410:	701a      	strb	r2, [r3, #0]
                retry = 0XFFFE;
 8002412:	f64f 73fe 	movw	r3, #65534	; 0xfffe
 8002416:	81bb      	strh	r3, [r7, #12]
                do //IDLE
                {
                    r1 = SD_SendCmd(CMD1, 0, 0X01); //CMD1
 8002418:	2201      	movs	r2, #1
 800241a:	2100      	movs	r1, #0
 800241c:	2001      	movs	r0, #1
 800241e:	f7ff fee8 	bl	80021f2 <SD_SendCmd>
 8002422:	4603      	mov	r3, r0
 8002424:	73fb      	strb	r3, [r7, #15]
                }
                while (r1 && retry--);
 8002426:	7bfb      	ldrb	r3, [r7, #15]
 8002428:	2b00      	cmp	r3, #0
 800242a:	d004      	beq.n	8002436 <SD_Initialize+0x1a2>
 800242c:	89bb      	ldrh	r3, [r7, #12]
 800242e:	1e5a      	subs	r2, r3, #1
 8002430:	81ba      	strh	r2, [r7, #12]
 8002432:	2b00      	cmp	r3, #0
 8002434:	d1f0      	bne.n	8002418 <SD_Initialize+0x184>
            }
            if (retry == 0 || SD_SendCmd(CMD16, 512, 0X01) != 0)SD_Type = SD_TYPE_ERR; //
 8002436:	89bb      	ldrh	r3, [r7, #12]
 8002438:	2b00      	cmp	r3, #0
 800243a:	d008      	beq.n	800244e <SD_Initialize+0x1ba>
 800243c:	2201      	movs	r2, #1
 800243e:	f44f 7100 	mov.w	r1, #512	; 0x200
 8002442:	2010      	movs	r0, #16
 8002444:	f7ff fed5 	bl	80021f2 <SD_SendCmd>
 8002448:	4603      	mov	r3, r0
 800244a:	2b00      	cmp	r3, #0
 800244c:	d002      	beq.n	8002454 <SD_Initialize+0x1c0>
 800244e:	4b0a      	ldr	r3, [pc, #40]	; (8002478 <SD_Initialize+0x1e4>)
 8002450:	2200      	movs	r2, #0
 8002452:	701a      	strb	r2, [r3, #0]
        }
    }
    SD_DisSelect();//
 8002454:	f7ff fe0a 	bl	800206c <SD_DisSelect>
    if (SD_Type)return 0;
 8002458:	4b07      	ldr	r3, [pc, #28]	; (8002478 <SD_Initialize+0x1e4>)
 800245a:	781b      	ldrb	r3, [r3, #0]
 800245c:	2b00      	cmp	r3, #0
 800245e:	d001      	beq.n	8002464 <SD_Initialize+0x1d0>
 8002460:	2300      	movs	r3, #0
 8002462:	e005      	b.n	8002470 <SD_Initialize+0x1dc>
    else if (r1)return r1;
 8002464:	7bfb      	ldrb	r3, [r7, #15]
 8002466:	2b00      	cmp	r3, #0
 8002468:	d001      	beq.n	800246e <SD_Initialize+0x1da>
 800246a:	7bfb      	ldrb	r3, [r7, #15]
 800246c:	e000      	b.n	8002470 <SD_Initialize+0x1dc>
    return 0xaa;//
 800246e:	23aa      	movs	r3, #170	; 0xaa
}
 8002470:	4618      	mov	r0, r3
 8002472:	3714      	adds	r7, #20
 8002474:	46bd      	mov	sp, r7
 8002476:	bd90      	pop	{r4, r7, pc}
 8002478:	20000624 	.word	0x20000624

0800247c <SD_ReadDisk>:
 * @param  sector 
 * @param  cnt    
 * @return        0  other
 */
uint8_t SD_ReadDisk(uint8_t*buf, uint32_t sector, uint8_t cnt)
{
 800247c:	b580      	push	{r7, lr}
 800247e:	b086      	sub	sp, #24
 8002480:	af00      	add	r7, sp, #0
 8002482:	60f8      	str	r0, [r7, #12]
 8002484:	60b9      	str	r1, [r7, #8]
 8002486:	4613      	mov	r3, r2
 8002488:	71fb      	strb	r3, [r7, #7]
    uint8_t r1;
    if (SD_Type != SD_TYPE_V2HC)sector <<= 9; //
 800248a:	4b21      	ldr	r3, [pc, #132]	; (8002510 <SD_ReadDisk+0x94>)
 800248c:	781b      	ldrb	r3, [r3, #0]
 800248e:	2b06      	cmp	r3, #6
 8002490:	d002      	beq.n	8002498 <SD_ReadDisk+0x1c>
 8002492:	68bb      	ldr	r3, [r7, #8]
 8002494:	025b      	lsls	r3, r3, #9
 8002496:	60bb      	str	r3, [r7, #8]
    if (cnt == 1)
 8002498:	79fb      	ldrb	r3, [r7, #7]
 800249a:	2b01      	cmp	r3, #1
 800249c:	d111      	bne.n	80024c2 <SD_ReadDisk+0x46>
    {
        r1 = SD_SendCmd(CMD17, sector, 0X01); //
 800249e:	2201      	movs	r2, #1
 80024a0:	68b9      	ldr	r1, [r7, #8]
 80024a2:	2011      	movs	r0, #17
 80024a4:	f7ff fea5 	bl	80021f2 <SD_SendCmd>
 80024a8:	4603      	mov	r3, r0
 80024aa:	75fb      	strb	r3, [r7, #23]
        if (r1 == 0) //
 80024ac:	7dfb      	ldrb	r3, [r7, #23]
 80024ae:	2b00      	cmp	r3, #0
 80024b0:	d127      	bne.n	8002502 <SD_ReadDisk+0x86>
        {
            r1 = SD_RecvData(buf, 512); //512
 80024b2:	f44f 7100 	mov.w	r1, #512	; 0x200
 80024b6:	68f8      	ldr	r0, [r7, #12]
 80024b8:	f7ff fe37 	bl	800212a <SD_RecvData>
 80024bc:	4603      	mov	r3, r0
 80024be:	75fb      	strb	r3, [r7, #23]
 80024c0:	e01f      	b.n	8002502 <SD_ReadDisk+0x86>
        }
    }
    else
    {
        r1 = SD_SendCmd(CMD18, sector, 0X01); //
 80024c2:	2201      	movs	r2, #1
 80024c4:	68b9      	ldr	r1, [r7, #8]
 80024c6:	2012      	movs	r0, #18
 80024c8:	f7ff fe93 	bl	80021f2 <SD_SendCmd>
 80024cc:	4603      	mov	r3, r0
 80024ce:	75fb      	strb	r3, [r7, #23]
        do
        {
            r1 = SD_RecvData(buf, 512); //512
 80024d0:	f44f 7100 	mov.w	r1, #512	; 0x200
 80024d4:	68f8      	ldr	r0, [r7, #12]
 80024d6:	f7ff fe28 	bl	800212a <SD_RecvData>
 80024da:	4603      	mov	r3, r0
 80024dc:	75fb      	strb	r3, [r7, #23]
            buf += 512;
 80024de:	68fb      	ldr	r3, [r7, #12]
 80024e0:	f503 7300 	add.w	r3, r3, #512	; 0x200
 80024e4:	60fb      	str	r3, [r7, #12]
        }
        while (--cnt && r1 == 0);
 80024e6:	79fb      	ldrb	r3, [r7, #7]
 80024e8:	3b01      	subs	r3, #1
 80024ea:	71fb      	strb	r3, [r7, #7]
 80024ec:	79fb      	ldrb	r3, [r7, #7]
 80024ee:	2b00      	cmp	r3, #0
 80024f0:	d002      	beq.n	80024f8 <SD_ReadDisk+0x7c>
 80024f2:	7dfb      	ldrb	r3, [r7, #23]
 80024f4:	2b00      	cmp	r3, #0
 80024f6:	d0eb      	beq.n	80024d0 <SD_ReadDisk+0x54>
        SD_SendCmd(CMD12, 0, 0X01);	//
 80024f8:	2201      	movs	r2, #1
 80024fa:	2100      	movs	r1, #0
 80024fc:	200c      	movs	r0, #12
 80024fe:	f7ff fe78 	bl	80021f2 <SD_SendCmd>
    }
    SD_DisSelect();//
 8002502:	f7ff fdb3 	bl	800206c <SD_DisSelect>
    return r1;//
 8002506:	7dfb      	ldrb	r3, [r7, #23]
}
 8002508:	4618      	mov	r0, r3
 800250a:	3718      	adds	r7, #24
 800250c:	46bd      	mov	sp, r7
 800250e:	bd80      	pop	{r7, pc}
 8002510:	20000624 	.word	0x20000624

08002514 <SD_WriteDisk>:
 * @param  sector 
 * @param  cnt    
 * @return        0  other
 */
uint8_t SD_WriteDisk(uint8_t*buf, uint32_t sector, uint8_t cnt)
{
 8002514:	b580      	push	{r7, lr}
 8002516:	b086      	sub	sp, #24
 8002518:	af00      	add	r7, sp, #0
 800251a:	60f8      	str	r0, [r7, #12]
 800251c:	60b9      	str	r1, [r7, #8]
 800251e:	4613      	mov	r3, r2
 8002520:	71fb      	strb	r3, [r7, #7]
    uint8_t r1;
    if (SD_Type != SD_TYPE_V2HC)sector *= 512; //
 8002522:	4b2a      	ldr	r3, [pc, #168]	; (80025cc <SD_WriteDisk+0xb8>)
 8002524:	781b      	ldrb	r3, [r3, #0]
 8002526:	2b06      	cmp	r3, #6
 8002528:	d002      	beq.n	8002530 <SD_WriteDisk+0x1c>
 800252a:	68bb      	ldr	r3, [r7, #8]
 800252c:	025b      	lsls	r3, r3, #9
 800252e:	60bb      	str	r3, [r7, #8]
    if (cnt == 1)
 8002530:	79fb      	ldrb	r3, [r7, #7]
 8002532:	2b01      	cmp	r3, #1
 8002534:	d110      	bne.n	8002558 <SD_WriteDisk+0x44>
    {
        r1 = SD_SendCmd(CMD24, sector, 0X01); //
 8002536:	2201      	movs	r2, #1
 8002538:	68b9      	ldr	r1, [r7, #8]
 800253a:	2018      	movs	r0, #24
 800253c:	f7ff fe59 	bl	80021f2 <SD_SendCmd>
 8002540:	4603      	mov	r3, r0
 8002542:	75fb      	strb	r3, [r7, #23]
        if (r1 == 0) //
 8002544:	7dfb      	ldrb	r3, [r7, #23]
 8002546:	2b00      	cmp	r3, #0
 8002548:	d138      	bne.n	80025bc <SD_WriteDisk+0xa8>
        {
            r1 = SD_SendBlock(buf, 0xFE); //512
 800254a:	21fe      	movs	r1, #254	; 0xfe
 800254c:	68f8      	ldr	r0, [r7, #12]
 800254e:	f7ff fe14 	bl	800217a <SD_SendBlock>
 8002552:	4603      	mov	r3, r0
 8002554:	75fb      	strb	r3, [r7, #23]
 8002556:	e031      	b.n	80025bc <SD_WriteDisk+0xa8>
        }
    }
    else
    {
        if (SD_Type != SD_TYPE_MMC)
 8002558:	4b1c      	ldr	r3, [pc, #112]	; (80025cc <SD_WriteDisk+0xb8>)
 800255a:	781b      	ldrb	r3, [r3, #0]
 800255c:	2b01      	cmp	r3, #1
 800255e:	d00a      	beq.n	8002576 <SD_WriteDisk+0x62>
        {
            SD_SendCmd(CMD55, 0, 0X01);
 8002560:	2201      	movs	r2, #1
 8002562:	2100      	movs	r1, #0
 8002564:	2037      	movs	r0, #55	; 0x37
 8002566:	f7ff fe44 	bl	80021f2 <SD_SendCmd>
            SD_SendCmd(CMD23, cnt, 0X01); //
 800256a:	79fb      	ldrb	r3, [r7, #7]
 800256c:	2201      	movs	r2, #1
 800256e:	4619      	mov	r1, r3
 8002570:	2017      	movs	r0, #23
 8002572:	f7ff fe3e 	bl	80021f2 <SD_SendCmd>
        }
        r1 = SD_SendCmd(CMD25, sector, 0X01); //
 8002576:	2201      	movs	r2, #1
 8002578:	68b9      	ldr	r1, [r7, #8]
 800257a:	2019      	movs	r0, #25
 800257c:	f7ff fe39 	bl	80021f2 <SD_SendCmd>
 8002580:	4603      	mov	r3, r0
 8002582:	75fb      	strb	r3, [r7, #23]
        if (r1 == 0)
 8002584:	7dfb      	ldrb	r3, [r7, #23]
 8002586:	2b00      	cmp	r3, #0
 8002588:	d118      	bne.n	80025bc <SD_WriteDisk+0xa8>
        {
            do
            {
                r1 = SD_SendBlock(buf, 0xFC); //512
 800258a:	21fc      	movs	r1, #252	; 0xfc
 800258c:	68f8      	ldr	r0, [r7, #12]
 800258e:	f7ff fdf4 	bl	800217a <SD_SendBlock>
 8002592:	4603      	mov	r3, r0
 8002594:	75fb      	strb	r3, [r7, #23]
                buf += 512;
 8002596:	68fb      	ldr	r3, [r7, #12]
 8002598:	f503 7300 	add.w	r3, r3, #512	; 0x200
 800259c:	60fb      	str	r3, [r7, #12]
            }
            while (--cnt && r1 == 0);
 800259e:	79fb      	ldrb	r3, [r7, #7]
 80025a0:	3b01      	subs	r3, #1
 80025a2:	71fb      	strb	r3, [r7, #7]
 80025a4:	79fb      	ldrb	r3, [r7, #7]
 80025a6:	2b00      	cmp	r3, #0
 80025a8:	d002      	beq.n	80025b0 <SD_WriteDisk+0x9c>
 80025aa:	7dfb      	ldrb	r3, [r7, #23]
 80025ac:	2b00      	cmp	r3, #0
 80025ae:	d0ec      	beq.n	800258a <SD_WriteDisk+0x76>
            r1 = SD_SendBlock(0, 0xFD); //512
 80025b0:	21fd      	movs	r1, #253	; 0xfd
 80025b2:	2000      	movs	r0, #0
 80025b4:	f7ff fde1 	bl	800217a <SD_SendBlock>
 80025b8:	4603      	mov	r3, r0
 80025ba:	75fb      	strb	r3, [r7, #23]
        }
    }
    SD_DisSelect();//
 80025bc:	f7ff fd56 	bl	800206c <SD_DisSelect>
    return r1;//
 80025c0:	7dfb      	ldrb	r3, [r7, #23]
}
 80025c2:	4618      	mov	r0, r3
 80025c4:	3718      	adds	r7, #24
 80025c6:	46bd      	mov	sp, r7
 80025c8:	bd80      	pop	{r7, pc}
 80025ca:	bf00      	nop
 80025cc:	20000624 	.word	0x20000624

080025d0 <HAL_MspInit>:
/* USER CODE END 0 */
/**
  * Initializes the Global MSP.
  */
void HAL_MspInit(void)
{
 80025d0:	b480      	push	{r7}
 80025d2:	b083      	sub	sp, #12
 80025d4:	af00      	add	r7, sp, #0
  /* USER CODE BEGIN MspInit 0 */

  /* USER CODE END MspInit 0 */

  __HAL_RCC_SYSCFG_CLK_ENABLE();
 80025d6:	2300      	movs	r3, #0
 80025d8:	607b      	str	r3, [r7, #4]
 80025da:	4b10      	ldr	r3, [pc, #64]	; (800261c <HAL_MspInit+0x4c>)
 80025dc:	6c5b      	ldr	r3, [r3, #68]	; 0x44
 80025de:	4a0f      	ldr	r2, [pc, #60]	; (800261c <HAL_MspInit+0x4c>)
 80025e0:	f443 4380 	orr.w	r3, r3, #16384	; 0x4000
 80025e4:	6453      	str	r3, [r2, #68]	; 0x44
 80025e6:	4b0d      	ldr	r3, [pc, #52]	; (800261c <HAL_MspInit+0x4c>)
 80025e8:	6c5b      	ldr	r3, [r3, #68]	; 0x44
 80025ea:	f403 4380 	and.w	r3, r3, #16384	; 0x4000
 80025ee:	607b      	str	r3, [r7, #4]
 80025f0:	687b      	ldr	r3, [r7, #4]
  __HAL_RCC_PWR_CLK_ENABLE();
 80025f2:	2300      	movs	r3, #0
 80025f4:	603b      	str	r3, [r7, #0]
 80025f6:	4b09      	ldr	r3, [pc, #36]	; (800261c <HAL_MspInit+0x4c>)
 80025f8:	6c1b      	ldr	r3, [r3, #64]	; 0x40
 80025fa:	4a08      	ldr	r2, [pc, #32]	; (800261c <HAL_MspInit+0x4c>)
 80025fc:	f043 5380 	orr.w	r3, r3, #268435456	; 0x10000000
 8002600:	6413      	str	r3, [r2, #64]	; 0x40
 8002602:	4b06      	ldr	r3, [pc, #24]	; (800261c <HAL_MspInit+0x4c>)
 8002604:	6c1b      	ldr	r3, [r3, #64]	; 0x40
 8002606:	f003 5380 	and.w	r3, r3, #268435456	; 0x10000000
 800260a:	603b      	str	r3, [r7, #0]
 800260c:	683b      	ldr	r3, [r7, #0]
  /* System interrupt init*/

  /* USER CODE BEGIN MspInit 1 */

  /* USER CODE END MspInit 1 */
}
 800260e:	bf00      	nop
 8002610:	370c      	adds	r7, #12
 8002612:	46bd      	mov	sp, r7
 8002614:	f85d 7b04 	ldr.w	r7, [sp], #4
 8002618:	4770      	bx	lr
 800261a:	bf00      	nop
 800261c:	40023800 	.word	0x40023800

08002620 <HAL_I2C_MspInit>:
* This function configures the hardware resources used in this example
* @param hi2c: I2C handle pointer
* @retval None
*/
void HAL_I2C_MspInit(I2C_HandleTypeDef* hi2c)
{
 8002620:	b580      	push	{r7, lr}
 8002622:	b08a      	sub	sp, #40	; 0x28
 8002624:	af00      	add	r7, sp, #0
 8002626:	6078      	str	r0, [r7, #4]
  GPIO_InitTypeDef GPIO_InitStruct = {0};
 8002628:	f107 0314 	add.w	r3, r7, #20
 800262c:	2200      	movs	r2, #0
 800262e:	601a      	str	r2, [r3, #0]
 8002630:	605a      	str	r2, [r3, #4]
 8002632:	609a      	str	r2, [r3, #8]
 8002634:	60da      	str	r2, [r3, #12]
 8002636:	611a      	str	r2, [r3, #16]
  if(hi2c->Instance==I2C1)
 8002638:	687b      	ldr	r3, [r7, #4]
 800263a:	681b      	ldr	r3, [r3, #0]
 800263c:	4a19      	ldr	r2, [pc, #100]	; (80026a4 <HAL_I2C_MspInit+0x84>)
 800263e:	4293      	cmp	r3, r2
 8002640:	d12b      	bne.n	800269a <HAL_I2C_MspInit+0x7a>
  {
  /* USER CODE BEGIN I2C1_MspInit 0 */

  /* USER CODE END I2C1_MspInit 0 */

    __HAL_RCC_GPIOB_CLK_ENABLE();
 8002642:	2300      	movs	r3, #0
 8002644:	613b      	str	r3, [r7, #16]
 8002646:	4b18      	ldr	r3, [pc, #96]	; (80026a8 <HAL_I2C_MspInit+0x88>)
 8002648:	6b1b      	ldr	r3, [r3, #48]	; 0x30
 800264a:	4a17      	ldr	r2, [pc, #92]	; (80026a8 <HAL_I2C_MspInit+0x88>)
 800264c:	f043 0302 	orr.w	r3, r3, #2
 8002650:	6313      	str	r3, [r2, #48]	; 0x30
 8002652:	4b15      	ldr	r3, [pc, #84]	; (80026a8 <HAL_I2C_MspInit+0x88>)
 8002654:	6b1b      	ldr	r3, [r3, #48]	; 0x30
 8002656:	f003 0302 	and.w	r3, r3, #2
 800265a:	613b      	str	r3, [r7, #16]
 800265c:	693b      	ldr	r3, [r7, #16]
    /**I2C1 GPIO Configuration
    PB6     ------> I2C1_SCL
    PB7     ------> I2C1_SDA
    */
    GPIO_InitStruct.Pin = GPIO_PIN_6|GPIO_PIN_7;
 800265e:	23c0      	movs	r3, #192	; 0xc0
 8002660:	617b      	str	r3, [r7, #20]
    GPIO_InitStruct.Mode = GPIO_MODE_AF_OD;
 8002662:	2312      	movs	r3, #18
 8002664:	61bb      	str	r3, [r7, #24]
    GPIO_InitStruct.Pull = GPIO_NOPULL;
 8002666:	2300      	movs	r3, #0
 8002668:	61fb      	str	r3, [r7, #28]
    GPIO_InitStruct.Speed = GPIO_SPEED_FREQ_VERY_HIGH;
 800266a:	2303      	movs	r3, #3
 800266c:	623b      	str	r3, [r7, #32]
    GPIO_InitStruct.Alternate = GPIO_AF4_I2C1;
 800266e:	2304      	movs	r3, #4
 8002670:	627b      	str	r3, [r7, #36]	; 0x24
    HAL_GPIO_Init(GPIOB, &GPIO_InitStruct);
 8002672:	f107 0314 	add.w	r3, r7, #20
 8002676:	4619      	mov	r1, r3
 8002678:	480c      	ldr	r0, [pc, #48]	; (80026ac <HAL_I2C_MspInit+0x8c>)
 800267a:	f000 fbc3 	bl	8002e04 <HAL_GPIO_Init>

    /* Peripheral clock enable */
    __HAL_RCC_I2C1_CLK_ENABLE();
 800267e:	2300      	movs	r3, #0
 8002680:	60fb      	str	r3, [r7, #12]
 8002682:	4b09      	ldr	r3, [pc, #36]	; (80026a8 <HAL_I2C_MspInit+0x88>)
 8002684:	6c1b      	ldr	r3, [r3, #64]	; 0x40
 8002686:	4a08      	ldr	r2, [pc, #32]	; (80026a8 <HAL_I2C_MspInit+0x88>)
 8002688:	f443 1300 	orr.w	r3, r3, #2097152	; 0x200000
 800268c:	6413      	str	r3, [r2, #64]	; 0x40
 800268e:	4b06      	ldr	r3, [pc, #24]	; (80026a8 <HAL_I2C_MspInit+0x88>)
 8002690:	6c1b      	ldr	r3, [r3, #64]	; 0x40
 8002692:	f403 1300 	and.w	r3, r3, #2097152	; 0x200000
 8002696:	60fb      	str	r3, [r7, #12]
 8002698:	68fb      	ldr	r3, [r7, #12]
  /* USER CODE BEGIN I2C1_MspInit 1 */

  /* USER CODE END I2C1_MspInit 1 */
  }

}
 800269a:	bf00      	nop
 800269c:	3728      	adds	r7, #40	; 0x28
 800269e:	46bd      	mov	sp, r7
 80026a0:	bd80      	pop	{r7, pc}
 80026a2:	bf00      	nop
 80026a4:	40005400 	.word	0x40005400
 80026a8:	40023800 	.word	0x40023800
 80026ac:	40020400 	.word	0x40020400

080026b0 <HAL_SPI_MspInit>:
* This function configures the hardware resources used in this example
* @param hspi: SPI handle pointer
* @retval None
*/
void HAL_SPI_MspInit(SPI_HandleTypeDef* hspi)
{
 80026b0:	b580      	push	{r7, lr}
 80026b2:	b08a      	sub	sp, #40	; 0x28
 80026b4:	af00      	add	r7, sp, #0
 80026b6:	6078      	str	r0, [r7, #4]
  GPIO_InitTypeDef GPIO_InitStruct = {0};
 80026b8:	f107 0314 	add.w	r3, r7, #20
 80026bc:	2200      	movs	r2, #0
 80026be:	601a      	str	r2, [r3, #0]
 80026c0:	605a      	str	r2, [r3, #4]
 80026c2:	609a      	str	r2, [r3, #8]
 80026c4:	60da      	str	r2, [r3, #12]
 80026c6:	611a      	str	r2, [r3, #16]
  if(hspi->Instance==SPI1)
 80026c8:	687b      	ldr	r3, [r7, #4]
 80026ca:	681b      	ldr	r3, [r3, #0]
 80026cc:	4a19      	ldr	r2, [pc, #100]	; (8002734 <HAL_SPI_MspInit+0x84>)
 80026ce:	4293      	cmp	r3, r2
 80026d0:	d12b      	bne.n	800272a <HAL_SPI_MspInit+0x7a>
  {
  /* USER CODE BEGIN SPI1_MspInit 0 */

  /* USER CODE END SPI1_MspInit 0 */
    /* Peripheral clock enable */
    __HAL_RCC_SPI1_CLK_ENABLE();
 80026d2:	2300      	movs	r3, #0
 80026d4:	613b      	str	r3, [r7, #16]
 80026d6:	4b18      	ldr	r3, [pc, #96]	; (8002738 <HAL_SPI_MspInit+0x88>)
 80026d8:	6c5b      	ldr	r3, [r3, #68]	; 0x44
 80026da:	4a17      	ldr	r2, [pc, #92]	; (8002738 <HAL_SPI_MspInit+0x88>)
 80026dc:	f443 5380 	orr.w	r3, r3, #4096	; 0x1000
 80026e0:	6453      	str	r3, [r2, #68]	; 0x44
 80026e2:	4b15      	ldr	r3, [pc, #84]	; (8002738 <HAL_SPI_MspInit+0x88>)
 80026e4:	6c5b      	ldr	r3, [r3, #68]	; 0x44
 80026e6:	f403 5380 	and.w	r3, r3, #4096	; 0x1000
 80026ea:	613b      	str	r3, [r7, #16]
 80026ec:	693b      	ldr	r3, [r7, #16]

    __HAL_RCC_GPIOA_CLK_ENABLE();
 80026ee:	2300      	movs	r3, #0
 80026f0:	60fb      	str	r3, [r7, #12]
 80026f2:	4b11      	ldr	r3, [pc, #68]	; (8002738 <HAL_SPI_MspInit+0x88>)
 80026f4:	6b1b      	ldr	r3, [r3, #48]	; 0x30
 80026f6:	4a10      	ldr	r2, [pc, #64]	; (8002738 <HAL_SPI_MspInit+0x88>)
 80026f8:	f043 0301 	orr.w	r3, r3, #1
 80026fc:	6313      	str	r3, [r2, #48]	; 0x30
 80026fe:	4b0e      	ldr	r3, [pc, #56]	; (8002738 <HAL_SPI_MspInit+0x88>)
 8002700:	6b1b      	ldr	r3, [r3, #48]	; 0x30
 8002702:	f003 0301 	and.w	r3, r3, #1
 8002706:	60fb      	str	r3, [r7, #12]
 8002708:	68fb      	ldr	r3, [r7, #12]
    /**SPI1 GPIO Configuration
    PA5     ------> SPI1_SCK
    PA6     ------> SPI1_MISO
    PA7     ------> SPI1_MOSI
    */
    GPIO_InitStruct.Pin = GPIO_PIN_5|GPIO_PIN_6|GPIO_PIN_7;
 800270a:	23e0      	movs	r3, #224	; 0xe0
 800270c:	617b      	str	r3, [r7, #20]
    GPIO_InitStruct.Mode = GPIO_MODE_AF_PP;
 800270e:	2302      	movs	r3, #2
 8002710:	61bb      	str	r3, [r7, #24]
    GPIO_InitStruct.Pull = GPIO_NOPULL;
 8002712:	2300      	movs	r3, #0
 8002714:	61fb      	str	r3, [r7, #28]
    GPIO_InitStruct.Speed = GPIO_SPEED_FREQ_VERY_HIGH;
 8002716:	2303      	movs	r3, #3
 8002718:	623b      	str	r3, [r7, #32]
    GPIO_InitStruct.Alternate = GPIO_AF5_SPI1;
 800271a:	2305      	movs	r3, #5
 800271c:	627b      	str	r3, [r7, #36]	; 0x24
    HAL_GPIO_Init(GPIOA, &GPIO_InitStruct);
 800271e:	f107 0314 	add.w	r3, r7, #20
 8002722:	4619      	mov	r1, r3
 8002724:	4805      	ldr	r0, [pc, #20]	; (800273c <HAL_SPI_MspInit+0x8c>)
 8002726:	f000 fb6d 	bl	8002e04 <HAL_GPIO_Init>
  /* USER CODE BEGIN SPI1_MspInit 1 */

  /* USER CODE END SPI1_MspInit 1 */
  }

}
 800272a:	bf00      	nop
 800272c:	3728      	adds	r7, #40	; 0x28
 800272e:	46bd      	mov	sp, r7
 8002730:	bd80      	pop	{r7, pc}
 8002732:	bf00      	nop
 8002734:	40013000 	.word	0x40013000
 8002738:	40023800 	.word	0x40023800
 800273c:	40020000 	.word	0x40020000

08002740 <HAL_SPI_MspDeInit>:
* This function freeze the hardware resources used in this example
* @param hspi: SPI handle pointer
* @retval None
*/
void HAL_SPI_MspDeInit(SPI_HandleTypeDef* hspi)
{
 8002740:	b580      	push	{r7, lr}
 8002742:	b082      	sub	sp, #8
 8002744:	af00      	add	r7, sp, #0
 8002746:	6078      	str	r0, [r7, #4]
  if(hspi->Instance==SPI1)
 8002748:	687b      	ldr	r3, [r7, #4]
 800274a:	681b      	ldr	r3, [r3, #0]
 800274c:	4a08      	ldr	r2, [pc, #32]	; (8002770 <HAL_SPI_MspDeInit+0x30>)
 800274e:	4293      	cmp	r3, r2
 8002750:	d109      	bne.n	8002766 <HAL_SPI_MspDeInit+0x26>
  {
  /* USER CODE BEGIN SPI1_MspDeInit 0 */

  /* USER CODE END SPI1_MspDeInit 0 */
    /* Peripheral clock disable */
    __HAL_RCC_SPI1_CLK_DISABLE();
 8002752:	4b08      	ldr	r3, [pc, #32]	; (8002774 <HAL_SPI_MspDeInit+0x34>)
 8002754:	6c5b      	ldr	r3, [r3, #68]	; 0x44
 8002756:	4a07      	ldr	r2, [pc, #28]	; (8002774 <HAL_SPI_MspDeInit+0x34>)
 8002758:	f423 5380 	bic.w	r3, r3, #4096	; 0x1000
 800275c:	6453      	str	r3, [r2, #68]	; 0x44
    /**SPI1 GPIO Configuration
    PA5     ------> SPI1_SCK
    PA6     ------> SPI1_MISO
    PA7     ------> SPI1_MOSI
    */
    HAL_GPIO_DeInit(GPIOA, GPIO_PIN_5|GPIO_PIN_6|GPIO_PIN_7);
 800275e:	21e0      	movs	r1, #224	; 0xe0
 8002760:	4805      	ldr	r0, [pc, #20]	; (8002778 <HAL_SPI_MspDeInit+0x38>)
 8002762:	f000 fceb 	bl	800313c <HAL_GPIO_DeInit>
  /* USER CODE BEGIN SPI1_MspDeInit 1 */

  /* USER CODE END SPI1_MspDeInit 1 */
  }

}
 8002766:	bf00      	nop
 8002768:	3708      	adds	r7, #8
 800276a:	46bd      	mov	sp, r7
 800276c:	bd80      	pop	{r7, pc}
 800276e:	bf00      	nop
 8002770:	40013000 	.word	0x40013000
 8002774:	40023800 	.word	0x40023800
 8002778:	40020000 	.word	0x40020000

0800277c <HAL_UART_MspInit>:
* This function configures the hardware resources used in this example
* @param huart: UART handle pointer
* @retval None
*/
void HAL_UART_MspInit(UART_HandleTypeDef* huart)
{
 800277c:	b580      	push	{r7, lr}
 800277e:	b08a      	sub	sp, #40	; 0x28
 8002780:	af00      	add	r7, sp, #0
 8002782:	6078      	str	r0, [r7, #4]
  GPIO_InitTypeDef GPIO_InitStruct = {0};
 8002784:	f107 0314 	add.w	r3, r7, #20
 8002788:	2200      	movs	r2, #0
 800278a:	601a      	str	r2, [r3, #0]
 800278c:	605a      	str	r2, [r3, #4]
 800278e:	609a      	str	r2, [r3, #8]
 8002790:	60da      	str	r2, [r3, #12]
 8002792:	611a      	str	r2, [r3, #16]
  if(huart->Instance==USART2)
 8002794:	687b      	ldr	r3, [r7, #4]
 8002796:	681b      	ldr	r3, [r3, #0]
 8002798:	4a19      	ldr	r2, [pc, #100]	; (8002800 <HAL_UART_MspInit+0x84>)
 800279a:	4293      	cmp	r3, r2
 800279c:	d12b      	bne.n	80027f6 <HAL_UART_MspInit+0x7a>
  {
  /* USER CODE BEGIN USART2_MspInit 0 */

  /* USER CODE END USART2_MspInit 0 */
    /* Peripheral clock enable */
    __HAL_RCC_USART2_CLK_ENABLE();
 800279e:	2300      	movs	r3, #0
 80027a0:	613b      	str	r3, [r7, #16]
 80027a2:	4b18      	ldr	r3, [pc, #96]	; (8002804 <HAL_UART_MspInit+0x88>)
 80027a4:	6c1b      	ldr	r3, [r3, #64]	; 0x40
 80027a6:	4a17      	ldr	r2, [pc, #92]	; (8002804 <HAL_UART_MspInit+0x88>)
 80027a8:	f443 3300 	orr.w	r3, r3, #131072	; 0x20000
 80027ac:	6413      	str	r3, [r2, #64]	; 0x40
 80027ae:	4b15      	ldr	r3, [pc, #84]	; (8002804 <HAL_UART_MspInit+0x88>)
 80027b0:	6c1b      	ldr	r3, [r3, #64]	; 0x40
 80027b2:	f403 3300 	and.w	r3, r3, #131072	; 0x20000
 80027b6:	613b      	str	r3, [r7, #16]
 80027b8:	693b      	ldr	r3, [r7, #16]

    __HAL_RCC_GPIOA_CLK_ENABLE();
 80027ba:	2300      	movs	r3, #0
 80027bc:	60fb      	str	r3, [r7, #12]
 80027be:	4b11      	ldr	r3, [pc, #68]	; (8002804 <HAL_UART_MspInit+0x88>)
 80027c0:	6b1b      	ldr	r3, [r3, #48]	; 0x30
 80027c2:	4a10      	ldr	r2, [pc, #64]	; (8002804 <HAL_UART_MspInit+0x88>)
 80027c4:	f043 0301 	orr.w	r3, r3, #1
 80027c8:	6313      	str	r3, [r2, #48]	; 0x30
 80027ca:	4b0e      	ldr	r3, [pc, #56]	; (8002804 <HAL_UART_MspInit+0x88>)
 80027cc:	6b1b      	ldr	r3, [r3, #48]	; 0x30
 80027ce:	f003 0301 	and.w	r3, r3, #1
 80027d2:	60fb      	str	r3, [r7, #12]
 80027d4:	68fb      	ldr	r3, [r7, #12]
    /**USART2 GPIO Configuration
    PA2     ------> USART2_TX
    PA3     ------> USART2_RX
    */
    GPIO_InitStruct.Pin = GPIO_PIN_2|GPIO_PIN_3;
 80027d6:	230c      	movs	r3, #12
 80027d8:	617b      	str	r3, [r7, #20]
    GPIO_InitStruct.Mode = GPIO_MODE_AF_PP;
 80027da:	2302      	movs	r3, #2
 80027dc:	61bb      	str	r3, [r7, #24]
    GPIO_InitStruct.Pull = GPIO_NOPULL;
 80027de:	2300      	movs	r3, #0
 80027e0:	61fb      	str	r3, [r7, #28]
    GPIO_InitStruct.Speed = GPIO_SPEED_FREQ_VERY_HIGH;
 80027e2:	2303      	movs	r3, #3
 80027e4:	623b      	str	r3, [r7, #32]
    GPIO_InitStruct.Alternate = GPIO_AF7_USART2;
 80027e6:	2307      	movs	r3, #7
 80027e8:	627b      	str	r3, [r7, #36]	; 0x24
    HAL_GPIO_Init(GPIOA, &GPIO_InitStruct);
 80027ea:	f107 0314 	add.w	r3, r7, #20
 80027ee:	4619      	mov	r1, r3
 80027f0:	4805      	ldr	r0, [pc, #20]	; (8002808 <HAL_UART_MspInit+0x8c>)
 80027f2:	f000 fb07 	bl	8002e04 <HAL_GPIO_Init>
  /* USER CODE BEGIN USART2_MspInit 1 */

  /* USER CODE END USART2_MspInit 1 */
  }

}
 80027f6:	bf00      	nop
 80027f8:	3728      	adds	r7, #40	; 0x28
 80027fa:	46bd      	mov	sp, r7
 80027fc:	bd80      	pop	{r7, pc}
 80027fe:	bf00      	nop
 8002800:	40004400 	.word	0x40004400
 8002804:	40023800 	.word	0x40023800
 8002808:	40020000 	.word	0x40020000

0800280c <HAL_InitTick>:
  *         reset by HAL_Init() or at any time when clock is configured, by HAL_RCC_ClockConfig().
  * @param  TickPriority: Tick interrupt priority.
  * @retval HAL status
  */
HAL_StatusTypeDef HAL_InitTick(uint32_t TickPriority)
{
 800280c:	b580      	push	{r7, lr}
 800280e:	b08c      	sub	sp, #48	; 0x30
 8002810:	af00      	add	r7, sp, #0
 8002812:	6078      	str	r0, [r7, #4]
  RCC_ClkInitTypeDef    clkconfig;
  uint32_t              uwTimclock = 0;
 8002814:	2300      	movs	r3, #0
 8002816:	62fb      	str	r3, [r7, #44]	; 0x2c
  uint32_t              uwPrescalerValue = 0;
 8002818:	2300      	movs	r3, #0
 800281a:	62bb      	str	r3, [r7, #40]	; 0x28
  uint32_t              pFLatency;
  /*Configure the TIM7 IRQ priority */
  HAL_NVIC_SetPriority(TIM7_IRQn, TickPriority ,0);
 800281c:	2200      	movs	r2, #0
 800281e:	6879      	ldr	r1, [r7, #4]
 8002820:	2037      	movs	r0, #55	; 0x37
 8002822:	f000 fac5 	bl	8002db0 <HAL_NVIC_SetPriority>

  /* Enable the TIM7 global Interrupt */
  HAL_NVIC_EnableIRQ(TIM7_IRQn);
 8002826:	2037      	movs	r0, #55	; 0x37
 8002828:	f000 fade 	bl	8002de8 <HAL_NVIC_EnableIRQ>

  /* Enable TIM7 clock */
  __HAL_RCC_TIM7_CLK_ENABLE();
 800282c:	2300      	movs	r3, #0
 800282e:	60fb      	str	r3, [r7, #12]
 8002830:	4b1e      	ldr	r3, [pc, #120]	; (80028ac <HAL_InitTick+0xa0>)
 8002832:	6c1b      	ldr	r3, [r3, #64]	; 0x40
 8002834:	4a1d      	ldr	r2, [pc, #116]	; (80028ac <HAL_InitTick+0xa0>)
 8002836:	f043 0320 	orr.w	r3, r3, #32
 800283a:	6413      	str	r3, [r2, #64]	; 0x40
 800283c:	4b1b      	ldr	r3, [pc, #108]	; (80028ac <HAL_InitTick+0xa0>)
 800283e:	6c1b      	ldr	r3, [r3, #64]	; 0x40
 8002840:	f003 0320 	and.w	r3, r3, #32
 8002844:	60fb      	str	r3, [r7, #12]
 8002846:	68fb      	ldr	r3, [r7, #12]

  /* Get clock configuration */
  HAL_RCC_GetClockConfig(&clkconfig, &pFLatency);
 8002848:	f107 0210 	add.w	r2, r7, #16
 800284c:	f107 0314 	add.w	r3, r7, #20
 8002850:	4611      	mov	r1, r2
 8002852:	4618      	mov	r0, r3
 8002854:	f001 fe44 	bl	80044e0 <HAL_RCC_GetClockConfig>

  /* Compute TIM7 clock */
  uwTimclock = HAL_RCC_GetPCLK1Freq();
 8002858:	f001 fe1a 	bl	8004490 <HAL_RCC_GetPCLK1Freq>
 800285c:	62f8      	str	r0, [r7, #44]	; 0x2c
  /* Compute the prescaler value to have TIM7 counter clock equal to 1MHz */
  uwPrescalerValue = (uint32_t) ((uwTimclock / 1000000U) - 1U);
 800285e:	6afb      	ldr	r3, [r7, #44]	; 0x2c
 8002860:	4a13      	ldr	r2, [pc, #76]	; (80028b0 <HAL_InitTick+0xa4>)
 8002862:	fba2 2303 	umull	r2, r3, r2, r3
 8002866:	0c9b      	lsrs	r3, r3, #18
 8002868:	3b01      	subs	r3, #1
 800286a:	62bb      	str	r3, [r7, #40]	; 0x28

  /* Initialize TIM7 */
  htim7.Instance = TIM7;
 800286c:	4b11      	ldr	r3, [pc, #68]	; (80028b4 <HAL_InitTick+0xa8>)
 800286e:	4a12      	ldr	r2, [pc, #72]	; (80028b8 <HAL_InitTick+0xac>)
 8002870:	601a      	str	r2, [r3, #0]
  + Period = [(TIM7CLK/1000) - 1]. to have a (1/1000) s time base.
  + Prescaler = (uwTimclock/1000000 - 1) to have a 1MHz counter clock.
  + ClockDivision = 0
  + Counter direction = Up
  */
  htim7.Init.Period = (1000000U / 1000U) - 1U;
 8002872:	4b10      	ldr	r3, [pc, #64]	; (80028b4 <HAL_InitTick+0xa8>)
 8002874:	f240 32e7 	movw	r2, #999	; 0x3e7
 8002878:	60da      	str	r2, [r3, #12]
  htim7.Init.Prescaler = uwPrescalerValue;
 800287a:	4a0e      	ldr	r2, [pc, #56]	; (80028b4 <HAL_InitTick+0xa8>)
 800287c:	6abb      	ldr	r3, [r7, #40]	; 0x28
 800287e:	6053      	str	r3, [r2, #4]
  htim7.Init.ClockDivision = 0;
 8002880:	4b0c      	ldr	r3, [pc, #48]	; (80028b4 <HAL_InitTick+0xa8>)
 8002882:	2200      	movs	r2, #0
 8002884:	611a      	str	r2, [r3, #16]
  htim7.Init.CounterMode = TIM_COUNTERMODE_UP;
 8002886:	4b0b      	ldr	r3, [pc, #44]	; (80028b4 <HAL_InitTick+0xa8>)
 8002888:	2200      	movs	r2, #0
 800288a:	609a      	str	r2, [r3, #8]

  if(HAL_TIM_Base_Init(&htim7) == HAL_OK)
 800288c:	4809      	ldr	r0, [pc, #36]	; (80028b4 <HAL_InitTick+0xa8>)
 800288e:	f002 f977 	bl	8004b80 <HAL_TIM_Base_Init>
 8002892:	4603      	mov	r3, r0
 8002894:	2b00      	cmp	r3, #0
 8002896:	d104      	bne.n	80028a2 <HAL_InitTick+0x96>
  {
    /* Start the TIM time Base generation in interrupt mode */
    return HAL_TIM_Base_Start_IT(&htim7);
 8002898:	4806      	ldr	r0, [pc, #24]	; (80028b4 <HAL_InitTick+0xa8>)
 800289a:	f002 f9cb 	bl	8004c34 <HAL_TIM_Base_Start_IT>
 800289e:	4603      	mov	r3, r0
 80028a0:	e000      	b.n	80028a4 <HAL_InitTick+0x98>
  }

  /* Return function status */
  return HAL_ERROR;
 80028a2:	2301      	movs	r3, #1
}
 80028a4:	4618      	mov	r0, r3
 80028a6:	3730      	adds	r7, #48	; 0x30
 80028a8:	46bd      	mov	sp, r7
 80028aa:	bd80      	pop	{r7, pc}
 80028ac:	40023800 	.word	0x40023800
 80028b0:	431bde83 	.word	0x431bde83
 80028b4:	20000628 	.word	0x20000628
 80028b8:	40001400 	.word	0x40001400

080028bc <NMI_Handler>:
/******************************************************************************/
/**
  * @brief This function handles Non maskable interrupt.
  */
void NMI_Handler(void)
{
 80028bc:	b480      	push	{r7}
 80028be:	af00      	add	r7, sp, #0
  /* USER CODE BEGIN NonMaskableInt_IRQn 0 */

  /* USER CODE END NonMaskableInt_IRQn 0 */
  /* USER CODE BEGIN NonMaskableInt_IRQn 1 */
  while (1)
 80028c0:	e7fe      	b.n	80028c0 <NMI_Handler+0x4>

080028c2 <HardFault_Handler>:

/**
  * @brief This function handles Hard fault interrupt.
  */
void HardFault_Handler(void)
{
 80028c2:	b480      	push	{r7}
 80028c4:	af00      	add	r7, sp, #0
  /* USER CODE BEGIN HardFault_IRQn 0 */

  /* USER CODE END HardFault_IRQn 0 */
  while (1)
 80028c6:	e7fe      	b.n	80028c6 <HardFault_Handler+0x4>

080028c8 <MemManage_Handler>:

/**
  * @brief This function handles Memory management fault.
  */
void MemManage_Handler(void)
{
 80028c8:	b480      	push	{r7}
 80028ca:	af00      	add	r7, sp, #0
  /* USER CODE BEGIN MemoryManagement_IRQn 0 */

  /* USER CODE END MemoryManagement_IRQn 0 */
  while (1)
 80028cc:	e7fe      	b.n	80028cc <MemManage_Handler+0x4>

080028ce <BusFault_Handler>:

/**
  * @brief This function handles Pre-fetch fault, memory access fault.
  */
void BusFault_Handler(void)
{
 80028ce:	b480      	push	{r7}
 80028d0:	af00      	add	r7, sp, #0
  /* USER CODE BEGIN BusFault_IRQn 0 */

  /* USER CODE END BusFault_IRQn 0 */
  while (1)
 80028d2:	e7fe      	b.n	80028d2 <BusFault_Handler+0x4>

080028d4 <UsageFault_Handler>:

/**
  * @brief This function handles Undefined instruction or illegal state.
  */
void UsageFault_Handler(void)
{
 80028d4:	b480      	push	{r7}
 80028d6:	af00      	add	r7, sp, #0
  /* USER CODE BEGIN UsageFault_IRQn 0 */

  /* USER CODE END UsageFault_IRQn 0 */
  while (1)
 80028d8:	e7fe      	b.n	80028d8 <UsageFault_Handler+0x4>

080028da <DebugMon_Handler>:

/**
  * @brief This function handles Debug monitor.
  */
void DebugMon_Handler(void)
{
 80028da:	b480      	push	{r7}
 80028dc:	af00      	add	r7, sp, #0

  /* USER CODE END DebugMonitor_IRQn 0 */
  /* USER CODE BEGIN DebugMonitor_IRQn 1 */

  /* USER CODE END DebugMonitor_IRQn 1 */
}
 80028de:	bf00      	nop
 80028e0:	46bd      	mov	sp, r7
 80028e2:	f85d 7b04 	ldr.w	r7, [sp], #4
 80028e6:	4770      	bx	lr

080028e8 <EXTI0_IRQHandler>:

/**
  * @brief This function handles EXTI line0 interrupt.
  */
void EXTI0_IRQHandler(void)
{
 80028e8:	b580      	push	{r7, lr}
 80028ea:	af00      	add	r7, sp, #0
  /* USER CODE BEGIN EXTI0_IRQn 0 */

  /* USER CODE END EXTI0_IRQn 0 */
  HAL_GPIO_EXTI_IRQHandler(GPIO_PIN_0);
 80028ec:	2001      	movs	r0, #1
 80028ee:	f000 fd3b 	bl	8003368 <HAL_GPIO_EXTI_IRQHandler>
  /* USER CODE BEGIN EXTI0_IRQn 1 */

  /* USER CODE END EXTI0_IRQn 1 */
}
 80028f2:	bf00      	nop
 80028f4:	bd80      	pop	{r7, pc}

080028f6 <EXTI1_IRQHandler>:

/**
  * @brief This function handles EXTI line1 interrupt.
  */
void EXTI1_IRQHandler(void)
{
 80028f6:	b580      	push	{r7, lr}
 80028f8:	af00      	add	r7, sp, #0
  /* USER CODE BEGIN EXTI1_IRQn 0 */

  /* USER CODE END EXTI1_IRQn 0 */
  HAL_GPIO_EXTI_IRQHandler(GPIO_PIN_1);
 80028fa:	2002      	movs	r0, #2
 80028fc:	f000 fd34 	bl	8003368 <HAL_GPIO_EXTI_IRQHandler>
  /* USER CODE BEGIN EXTI1_IRQn 1 */

  /* USER CODE END EXTI1_IRQn 1 */
}
 8002900:	bf00      	nop
 8002902:	bd80      	pop	{r7, pc}

08002904 <EXTI2_IRQHandler>:

/**
  * @brief This function handles EXTI line2 interrupt.
  */
void EXTI2_IRQHandler(void)
{
 8002904:	b580      	push	{r7, lr}
 8002906:	af00      	add	r7, sp, #0
  /* USER CODE BEGIN EXTI2_IRQn 0 */

  /* USER CODE END EXTI2_IRQn 0 */
  HAL_GPIO_EXTI_IRQHandler(GPIO_PIN_2);
 8002908:	2004      	movs	r0, #4
 800290a:	f000 fd2d 	bl	8003368 <HAL_GPIO_EXTI_IRQHandler>
  /* USER CODE BEGIN EXTI2_IRQn 1 */

  /* USER CODE END EXTI2_IRQn 1 */
}
 800290e:	bf00      	nop
 8002910:	bd80      	pop	{r7, pc}

08002912 <EXTI3_IRQHandler>:

/**
  * @brief This function handles EXTI line3 interrupt.
  */
void EXTI3_IRQHandler(void)
{
 8002912:	b580      	push	{r7, lr}
 8002914:	af00      	add	r7, sp, #0
  /* USER CODE BEGIN EXTI3_IRQn 0 */

  /* USER CODE END EXTI3_IRQn 0 */
  HAL_GPIO_EXTI_IRQHandler(GPIO_PIN_3);
 8002916:	2008      	movs	r0, #8
 8002918:	f000 fd26 	bl	8003368 <HAL_GPIO_EXTI_IRQHandler>
  /* USER CODE BEGIN EXTI3_IRQn 1 */

  /* USER CODE END EXTI3_IRQn 1 */
}
 800291c:	bf00      	nop
 800291e:	bd80      	pop	{r7, pc}

08002920 <EXTI4_IRQHandler>:

/**
  * @brief This function handles EXTI line4 interrupt.
  */
void EXTI4_IRQHandler(void)
{
 8002920:	b580      	push	{r7, lr}
 8002922:	af00      	add	r7, sp, #0
  /* USER CODE BEGIN EXTI4_IRQn 0 */

  /* USER CODE END EXTI4_IRQn 0 */
  HAL_GPIO_EXTI_IRQHandler(GPIO_PIN_4);
 8002924:	2010      	movs	r0, #16
 8002926:	f000 fd1f 	bl	8003368 <HAL_GPIO_EXTI_IRQHandler>
  /* USER CODE BEGIN EXTI4_IRQn 1 */

  /* USER CODE END EXTI4_IRQn 1 */
}
 800292a:	bf00      	nop
 800292c:	bd80      	pop	{r7, pc}
	...

08002930 <TIM7_IRQHandler>:

/**
  * @brief This function handles TIM7 global interrupt.
  */
void TIM7_IRQHandler(void)
{
 8002930:	b580      	push	{r7, lr}
 8002932:	af00      	add	r7, sp, #0
  /* USER CODE BEGIN TIM7_IRQn 0 */

  /* USER CODE END TIM7_IRQn 0 */
  HAL_TIM_IRQHandler(&htim7);
 8002934:	4802      	ldr	r0, [pc, #8]	; (8002940 <TIM7_IRQHandler+0x10>)
 8002936:	f002 f9ed 	bl	8004d14 <HAL_TIM_IRQHandler>
  /* USER CODE BEGIN TIM7_IRQn 1 */

  /* USER CODE END TIM7_IRQn 1 */
}
 800293a:	bf00      	nop
 800293c:	bd80      	pop	{r7, pc}
 800293e:	bf00      	nop
 8002940:	20000628 	.word	0x20000628

08002944 <_sbrk>:
 *
 * @param incr Memory size
 * @return Pointer to allocated memory
 */
void *_sbrk(ptrdiff_t incr)
{
 8002944:	b580      	push	{r7, lr}
 8002946:	b086      	sub	sp, #24
 8002948:	af00      	add	r7, sp, #0
 800294a:	6078      	str	r0, [r7, #4]
  extern uint8_t _end; /* Symbol defined in the linker script */
  extern uint8_t _estack; /* Symbol defined in the linker script */
  extern uint32_t _Min_Stack_Size; /* Symbol defined in the linker script */
  const uint32_t stack_limit = (uint32_t)&_estack - (uint32_t)&_Min_Stack_Size;
 800294c:	4a14      	ldr	r2, [pc, #80]	; (80029a0 <_sbrk+0x5c>)
 800294e:	4b15      	ldr	r3, [pc, #84]	; (80029a4 <_sbrk+0x60>)
 8002950:	1ad3      	subs	r3, r2, r3
 8002952:	617b      	str	r3, [r7, #20]
  const uint8_t *max_heap = (uint8_t *)stack_limit;
 8002954:	697b      	ldr	r3, [r7, #20]
 8002956:	613b      	str	r3, [r7, #16]
  uint8_t *prev_heap_end;

  /* Initialize heap end at first call */
  if (NULL == __sbrk_heap_end)
 8002958:	4b13      	ldr	r3, [pc, #76]	; (80029a8 <_sbrk+0x64>)
 800295a:	681b      	ldr	r3, [r3, #0]
 800295c:	2b00      	cmp	r3, #0
 800295e:	d102      	bne.n	8002966 <_sbrk+0x22>
  {
    __sbrk_heap_end = &_end;
 8002960:	4b11      	ldr	r3, [pc, #68]	; (80029a8 <_sbrk+0x64>)
 8002962:	4a12      	ldr	r2, [pc, #72]	; (80029ac <_sbrk+0x68>)
 8002964:	601a      	str	r2, [r3, #0]
  }

  /* Protect heap from growing into the reserved MSP stack */
  if (__sbrk_heap_end + incr > max_heap)
 8002966:	4b10      	ldr	r3, [pc, #64]	; (80029a8 <_sbrk+0x64>)
 8002968:	681a      	ldr	r2, [r3, #0]
 800296a:	687b      	ldr	r3, [r7, #4]
 800296c:	4413      	add	r3, r2
 800296e:	693a      	ldr	r2, [r7, #16]
 8002970:	429a      	cmp	r2, r3
 8002972:	d207      	bcs.n	8002984 <_sbrk+0x40>
  {
    errno = ENOMEM;
 8002974:	f005 fa92 	bl	8007e9c <__errno>
 8002978:	4603      	mov	r3, r0
 800297a:	220c      	movs	r2, #12
 800297c:	601a      	str	r2, [r3, #0]
    return (void *)-1;
 800297e:	f04f 33ff 	mov.w	r3, #4294967295	; 0xffffffff
 8002982:	e009      	b.n	8002998 <_sbrk+0x54>
  }

  prev_heap_end = __sbrk_heap_end;
 8002984:	4b08      	ldr	r3, [pc, #32]	; (80029a8 <_sbrk+0x64>)
 8002986:	681b      	ldr	r3, [r3, #0]
 8002988:	60fb      	str	r3, [r7, #12]
  __sbrk_heap_end += incr;
 800298a:	4b07      	ldr	r3, [pc, #28]	; (80029a8 <_sbrk+0x64>)
 800298c:	681a      	ldr	r2, [r3, #0]
 800298e:	687b      	ldr	r3, [r7, #4]
 8002990:	4413      	add	r3, r2
 8002992:	4a05      	ldr	r2, [pc, #20]	; (80029a8 <_sbrk+0x64>)
 8002994:	6013      	str	r3, [r2, #0]

  return (void *)prev_heap_end;
 8002996:	68fb      	ldr	r3, [r7, #12]
}
 8002998:	4618      	mov	r0, r3
 800299a:	3718      	adds	r7, #24
 800299c:	46bd      	mov	sp, r7
 800299e:	bd80      	pop	{r7, pc}
 80029a0:	20020000 	.word	0x20020000
 80029a4:	00000400 	.word	0x00000400
 80029a8:	20000670 	.word	0x20000670
 80029ac:	20013508 	.word	0x20013508

080029b0 <SystemInit>:
  *         configuration.
  * @param  None
  * @retval None
  */
void SystemInit(void)
{
 80029b0:	b480      	push	{r7}
 80029b2:	af00      	add	r7, sp, #0
  /* FPU settings ------------------------------------------------------------*/
  #if (__FPU_PRESENT == 1) && (__FPU_USED == 1)
    SCB->CPACR |= ((3UL << 10*2)|(3UL << 11*2));  /* set CP10 and CP11 Full Access */
 80029b4:	4b06      	ldr	r3, [pc, #24]	; (80029d0 <SystemInit+0x20>)
 80029b6:	f8d3 3088 	ldr.w	r3, [r3, #136]	; 0x88
 80029ba:	4a05      	ldr	r2, [pc, #20]	; (80029d0 <SystemInit+0x20>)
 80029bc:	f443 0370 	orr.w	r3, r3, #15728640	; 0xf00000
 80029c0:	f8c2 3088 	str.w	r3, [r2, #136]	; 0x88

  /* Configure the Vector Table location -------------------------------------*/
#if defined(USER_VECT_TAB_ADDRESS)
  SCB->VTOR = VECT_TAB_BASE_ADDRESS | VECT_TAB_OFFSET; /* Vector Table Relocation in Internal SRAM */
#endif /* USER_VECT_TAB_ADDRESS */
}
 80029c4:	bf00      	nop
 80029c6:	46bd      	mov	sp, r7
 80029c8:	f85d 7b04 	ldr.w	r7, [sp], #4
 80029cc:	4770      	bx	lr
 80029ce:	bf00      	nop
 80029d0:	e000ed00 	.word	0xe000ed00

080029d4 <USER_initialize>:
  * @retval DSTATUS: Operation status
  */
DSTATUS USER_initialize (
    BYTE pdrv           /* Physical drive nmuber to identify the drive */
)
{
 80029d4:	b580      	push	{r7, lr}
 80029d6:	b0c2      	sub	sp, #264	; 0x108
 80029d8:	af00      	add	r7, sp, #0
 80029da:	4602      	mov	r2, r0
 80029dc:	f507 7384 	add.w	r3, r7, #264	; 0x108
 80029e0:	f2a3 1301 	subw	r3, r3, #257	; 0x101
 80029e4:	701a      	strb	r2, [r3, #0]
    /* USER CODE BEGIN INIT */
    Stat = STA_NOINIT;
 80029e6:	4b21      	ldr	r3, [pc, #132]	; (8002a6c <USER_initialize+0x98>)
 80029e8:	2201      	movs	r2, #1
 80029ea:	701a      	strb	r2, [r3, #0]

    char buf[256];
    sprintf(buf, "# SD Card Init ");
 80029ec:	f107 0308 	add.w	r3, r7, #8
 80029f0:	491f      	ldr	r1, [pc, #124]	; (8002a70 <USER_initialize+0x9c>)
 80029f2:	4618      	mov	r0, r3
 80029f4:	f005 fa92 	bl	8007f1c <siprintf>
    HAL_UART_Transmit(&huart2, (uint8_t*) buf, strlen(buf), 0xffff);
 80029f8:	f107 0308 	add.w	r3, r7, #8
 80029fc:	4618      	mov	r0, r3
 80029fe:	f7fd fbe7 	bl	80001d0 <strlen>
 8002a02:	4603      	mov	r3, r0
 8002a04:	b29a      	uxth	r2, r3
 8002a06:	f107 0108 	add.w	r1, r7, #8
 8002a0a:	f64f 73ff 	movw	r3, #65535	; 0xffff
 8002a0e:	4819      	ldr	r0, [pc, #100]	; (8002a74 <USER_initialize+0xa0>)
 8002a10:	f002 fbb1 	bl	8005176 <HAL_UART_Transmit>
    if(SD_Initialize() == 0)
 8002a14:	f7ff fc3e 	bl	8002294 <SD_Initialize>
 8002a18:	4603      	mov	r3, r0
 8002a1a:	2b00      	cmp	r3, #0
 8002a1c:	d102      	bne.n	8002a24 <USER_initialize+0x50>
    {
        Stat = RES_OK;
 8002a1e:	4b13      	ldr	r3, [pc, #76]	; (8002a6c <USER_initialize+0x98>)
 8002a20:	2200      	movs	r2, #0
 8002a22:	701a      	strb	r2, [r3, #0]
    }
    sprintf(buf, "%s!\r\n", Stat == RES_OK ? "Successfully" : "Failed");
 8002a24:	4b11      	ldr	r3, [pc, #68]	; (8002a6c <USER_initialize+0x98>)
 8002a26:	781b      	ldrb	r3, [r3, #0]
 8002a28:	b2db      	uxtb	r3, r3
 8002a2a:	2b00      	cmp	r3, #0
 8002a2c:	d101      	bne.n	8002a32 <USER_initialize+0x5e>
 8002a2e:	4a12      	ldr	r2, [pc, #72]	; (8002a78 <USER_initialize+0xa4>)
 8002a30:	e000      	b.n	8002a34 <USER_initialize+0x60>
 8002a32:	4a12      	ldr	r2, [pc, #72]	; (8002a7c <USER_initialize+0xa8>)
 8002a34:	f107 0308 	add.w	r3, r7, #8
 8002a38:	4911      	ldr	r1, [pc, #68]	; (8002a80 <USER_initialize+0xac>)
 8002a3a:	4618      	mov	r0, r3
 8002a3c:	f005 fa6e 	bl	8007f1c <siprintf>
    HAL_UART_Transmit(&huart2, (uint8_t*) buf, strlen(buf), 0xffff);
 8002a40:	f107 0308 	add.w	r3, r7, #8
 8002a44:	4618      	mov	r0, r3
 8002a46:	f7fd fbc3 	bl	80001d0 <strlen>
 8002a4a:	4603      	mov	r3, r0
 8002a4c:	b29a      	uxth	r2, r3
 8002a4e:	f107 0108 	add.w	r1, r7, #8
 8002a52:	f64f 73ff 	movw	r3, #65535	; 0xffff
 8002a56:	4807      	ldr	r0, [pc, #28]	; (8002a74 <USER_initialize+0xa0>)
 8002a58:	f002 fb8d 	bl	8005176 <HAL_UART_Transmit>

    return Stat;
 8002a5c:	4b03      	ldr	r3, [pc, #12]	; (8002a6c <USER_initialize+0x98>)
 8002a5e:	781b      	ldrb	r3, [r3, #0]
 8002a60:	b2db      	uxtb	r3, r3
    /* USER CODE END INIT */
}
 8002a62:	4618      	mov	r0, r3
 8002a64:	f507 7784 	add.w	r7, r7, #264	; 0x108
 8002a68:	46bd      	mov	sp, r7
 8002a6a:	bd80      	pop	{r7, pc}
 8002a6c:	20000028 	.word	0x20000028
 8002a70:	08008a48 	.word	0x08008a48
 8002a74:	200005d8 	.word	0x200005d8
 8002a78:	08008a58 	.word	0x08008a58
 8002a7c:	08008a68 	.word	0x08008a68
 8002a80:	08008a70 	.word	0x08008a70

08002a84 <USER_status>:
  * @retval DSTATUS: Operation status
  */
DSTATUS USER_status (
    BYTE pdrv       /* Physical drive number to identify the drive */
)
{
 8002a84:	b480      	push	{r7}
 8002a86:	b083      	sub	sp, #12
 8002a88:	af00      	add	r7, sp, #0
 8002a8a:	4603      	mov	r3, r0
 8002a8c:	71fb      	strb	r3, [r7, #7]
    /* USER CODE BEGIN STATUS */
    return RES_OK;
 8002a8e:	2300      	movs	r3, #0
    /* USER CODE END STATUS */
}
 8002a90:	4618      	mov	r0, r3
 8002a92:	370c      	adds	r7, #12
 8002a94:	46bd      	mov	sp, r7
 8002a96:	f85d 7b04 	ldr.w	r7, [sp], #4
 8002a9a:	4770      	bx	lr

08002a9c <USER_read>:
    BYTE pdrv,      /* Physical drive nmuber to identify the drive */
    BYTE *buff,     /* Data buffer to store read data */
    DWORD sector,   /* Sector address in LBA */
    UINT count      /* Number of sectors to read */
)
{
 8002a9c:	b580      	push	{r7, lr}
 8002a9e:	b084      	sub	sp, #16
 8002aa0:	af00      	add	r7, sp, #0
 8002aa2:	60b9      	str	r1, [r7, #8]
 8002aa4:	607a      	str	r2, [r7, #4]
 8002aa6:	603b      	str	r3, [r7, #0]
 8002aa8:	4603      	mov	r3, r0
 8002aaa:	73fb      	strb	r3, [r7, #15]
    /* USER CODE BEGIN READ */
    return SD_ReadDisk(buff, sector, count) == 0 ? RES_OK : RES_ERROR;
 8002aac:	683b      	ldr	r3, [r7, #0]
 8002aae:	b2db      	uxtb	r3, r3
 8002ab0:	461a      	mov	r2, r3
 8002ab2:	6879      	ldr	r1, [r7, #4]
 8002ab4:	68b8      	ldr	r0, [r7, #8]
 8002ab6:	f7ff fce1 	bl	800247c <SD_ReadDisk>
 8002aba:	4603      	mov	r3, r0
 8002abc:	2b00      	cmp	r3, #0
 8002abe:	bf14      	ite	ne
 8002ac0:	2301      	movne	r3, #1
 8002ac2:	2300      	moveq	r3, #0
 8002ac4:	b2db      	uxtb	r3, r3
    /* USER CODE END READ */
}
 8002ac6:	4618      	mov	r0, r3
 8002ac8:	3710      	adds	r7, #16
 8002aca:	46bd      	mov	sp, r7
 8002acc:	bd80      	pop	{r7, pc}

08002ace <USER_write>:
    BYTE pdrv,          /* Physical drive nmuber to identify the drive */
    const BYTE *buff,   /* Data to be written */
    DWORD sector,       /* Sector address in LBA */
    UINT count          /* Number of sectors to write */
)
{
 8002ace:	b580      	push	{r7, lr}
 8002ad0:	b084      	sub	sp, #16
 8002ad2:	af00      	add	r7, sp, #0
 8002ad4:	60b9      	str	r1, [r7, #8]
 8002ad6:	607a      	str	r2, [r7, #4]
 8002ad8:	603b      	str	r3, [r7, #0]
 8002ada:	4603      	mov	r3, r0
 8002adc:	73fb      	strb	r3, [r7, #15]
    /* USER CODE BEGIN WRITE */
    /* USER CODE HERE */
    return SD_WriteDisk((uint8_t *)buff, sector, count) == 0 ? RES_OK : RES_ERROR;;
 8002ade:	683b      	ldr	r3, [r7, #0]
 8002ae0:	b2db      	uxtb	r3, r3
 8002ae2:	461a      	mov	r2, r3
 8002ae4:	6879      	ldr	r1, [r7, #4]
 8002ae6:	68b8      	ldr	r0, [r7, #8]
 8002ae8:	f7ff fd14 	bl	8002514 <SD_WriteDisk>
 8002aec:	4603      	mov	r3, r0
 8002aee:	2b00      	cmp	r3, #0
 8002af0:	bf14      	ite	ne
 8002af2:	2301      	movne	r3, #1
 8002af4:	2300      	moveq	r3, #0
 8002af6:	b2db      	uxtb	r3, r3
    /* USER CODE END WRITE */
}
 8002af8:	4618      	mov	r0, r3
 8002afa:	3710      	adds	r7, #16
 8002afc:	46bd      	mov	sp, r7
 8002afe:	bd80      	pop	{r7, pc}

08002b00 <USER_ioctl>:
DRESULT USER_ioctl (
    BYTE pdrv,      /* Physical drive nmuber (0..) */
    BYTE cmd,       /* Control code */
    void *buff      /* Buffer to send/receive control data */
)
{
 8002b00:	b480      	push	{r7}
 8002b02:	b083      	sub	sp, #12
 8002b04:	af00      	add	r7, sp, #0
 8002b06:	4603      	mov	r3, r0
 8002b08:	603a      	str	r2, [r7, #0]
 8002b0a:	71fb      	strb	r3, [r7, #7]
 8002b0c:	460b      	mov	r3, r1
 8002b0e:	71bb      	strb	r3, [r7, #6]
    /* USER CODE BEGIN IOCTL */
    return RES_OK;
 8002b10:	2300      	movs	r3, #0
    /* USER CODE END IOCTL */
}
 8002b12:	4618      	mov	r0, r3
 8002b14:	370c      	adds	r7, #12
 8002b16:	46bd      	mov	sp, r7
 8002b18:	f85d 7b04 	ldr.w	r7, [sp], #4
 8002b1c:	4770      	bx	lr
	...

08002b20 <Reset_Handler>:

    .section  .text.Reset_Handler
  .weak  Reset_Handler
  .type  Reset_Handler, %function
Reset_Handler:  
  ldr   sp, =_estack     /* set stack pointer */
 8002b20:	f8df d034 	ldr.w	sp, [pc, #52]	; 8002b58 <LoopFillZerobss+0x12>

/* Copy the data segment initializers from flash to SRAM */  
  ldr r0, =_sdata
 8002b24:	480d      	ldr	r0, [pc, #52]	; (8002b5c <LoopFillZerobss+0x16>)
  ldr r1, =_edata
 8002b26:	490e      	ldr	r1, [pc, #56]	; (8002b60 <LoopFillZerobss+0x1a>)
  ldr r2, =_sidata
 8002b28:	4a0e      	ldr	r2, [pc, #56]	; (8002b64 <LoopFillZerobss+0x1e>)
  movs r3, #0
 8002b2a:	2300      	movs	r3, #0
  b LoopCopyDataInit
 8002b2c:	e002      	b.n	8002b34 <LoopCopyDataInit>

08002b2e <CopyDataInit>:

CopyDataInit:
  ldr r4, [r2, r3]
 8002b2e:	58d4      	ldr	r4, [r2, r3]
  str r4, [r0, r3]
 8002b30:	50c4      	str	r4, [r0, r3]
  adds r3, r3, #4
 8002b32:	3304      	adds	r3, #4

08002b34 <LoopCopyDataInit>:

LoopCopyDataInit:
  adds r4, r0, r3
 8002b34:	18c4      	adds	r4, r0, r3
  cmp r4, r1
 8002b36:	428c      	cmp	r4, r1
  bcc CopyDataInit
 8002b38:	d3f9      	bcc.n	8002b2e <CopyDataInit>
  
/* Zero fill the bss segment. */
  ldr r2, =_sbss
 8002b3a:	4a0b      	ldr	r2, [pc, #44]	; (8002b68 <LoopFillZerobss+0x22>)
  ldr r4, =_ebss
 8002b3c:	4c0b      	ldr	r4, [pc, #44]	; (8002b6c <LoopFillZerobss+0x26>)
  movs r3, #0
 8002b3e:	2300      	movs	r3, #0
  b LoopFillZerobss
 8002b40:	e001      	b.n	8002b46 <LoopFillZerobss>

08002b42 <FillZerobss>:

FillZerobss:
  str  r3, [r2]
 8002b42:	6013      	str	r3, [r2, #0]
  adds r2, r2, #4
 8002b44:	3204      	adds	r2, #4

08002b46 <LoopFillZerobss>:

LoopFillZerobss:
  cmp r2, r4
 8002b46:	42a2      	cmp	r2, r4
  bcc FillZerobss
 8002b48:	d3fb      	bcc.n	8002b42 <FillZerobss>

/* Call the clock system initialization function.*/
  bl  SystemInit   
 8002b4a:	f7ff ff31 	bl	80029b0 <SystemInit>
/* Call static constructors */
    bl __libc_init_array
 8002b4e:	f005 f9ab 	bl	8007ea8 <__libc_init_array>
/* Call the application's entry point.*/
  bl  main
 8002b52:	f7fe feed 	bl	8001930 <main>
  bx  lr    
 8002b56:	4770      	bx	lr
  ldr   sp, =_estack     /* set stack pointer */
 8002b58:	20020000 	.word	0x20020000
  ldr r0, =_sdata
 8002b5c:	20000000 	.word	0x20000000
  ldr r1, =_edata
 8002b60:	200000b0 	.word	0x200000b0
  ldr r2, =_sidata
 8002b64:	08008ccc 	.word	0x08008ccc
  ldr r2, =_sbss
 8002b68:	200000b0 	.word	0x200000b0
  ldr r4, =_ebss
 8002b6c:	20013504 	.word	0x20013504

08002b70 <ADC_IRQHandler>:
 * @retval None       
*/
    .section  .text.Default_Handler,"ax",%progbits
Default_Handler:
Infinite_Loop:
  b  Infinite_Loop
 8002b70:	e7fe      	b.n	8002b70 <ADC_IRQHandler>
	...

08002b74 <HAL_Init>:
  *         need to ensure that the SysTick time base is always set to 1 millisecond
  *         to have correct HAL operation.
  * @retval HAL status
  */
HAL_StatusTypeDef HAL_Init(void)
{
 8002b74:	b580      	push	{r7, lr}
 8002b76:	af00      	add	r7, sp, #0
  /* Configure Flash prefetch, Instruction cache, Data cache */ 
#if (INSTRUCTION_CACHE_ENABLE != 0U)
  __HAL_FLASH_INSTRUCTION_CACHE_ENABLE();
 8002b78:	4b0e      	ldr	r3, [pc, #56]	; (8002bb4 <HAL_Init+0x40>)
 8002b7a:	681b      	ldr	r3, [r3, #0]
 8002b7c:	4a0d      	ldr	r2, [pc, #52]	; (8002bb4 <HAL_Init+0x40>)
 8002b7e:	f443 7300 	orr.w	r3, r3, #512	; 0x200
 8002b82:	6013      	str	r3, [r2, #0]
#endif /* INSTRUCTION_CACHE_ENABLE */

#if (DATA_CACHE_ENABLE != 0U)
  __HAL_FLASH_DATA_CACHE_ENABLE();
 8002b84:	4b0b      	ldr	r3, [pc, #44]	; (8002bb4 <HAL_Init+0x40>)
 8002b86:	681b      	ldr	r3, [r3, #0]
 8002b88:	4a0a      	ldr	r2, [pc, #40]	; (8002bb4 <HAL_Init+0x40>)
 8002b8a:	f443 6380 	orr.w	r3, r3, #1024	; 0x400
 8002b8e:	6013      	str	r3, [r2, #0]
#endif /* DATA_CACHE_ENABLE */

#if (PREFETCH_ENABLE != 0U)
  __HAL_FLASH_PREFETCH_BUFFER_ENABLE();
 8002b90:	4b08      	ldr	r3, [pc, #32]	; (8002bb4 <HAL_Init+0x40>)
 8002b92:	681b      	ldr	r3, [r3, #0]
 8002b94:	4a07      	ldr	r2, [pc, #28]	; (8002bb4 <HAL_Init+0x40>)
 8002b96:	f443 7380 	orr.w	r3, r3, #256	; 0x100
 8002b9a:	6013      	str	r3, [r2, #0]
#endif /* PREFETCH_ENABLE */

  /* Set Interrupt Group Priority */
  HAL_NVIC_SetPriorityGrouping(NVIC_PRIORITYGROUP_4);
 8002b9c:	2003      	movs	r0, #3
 8002b9e:	f000 f8fc 	bl	8002d9a <HAL_NVIC_SetPriorityGrouping>

  /* Use systick as time base source and configure 1ms tick (default clock after Reset is HSI) */
  HAL_InitTick(TICK_INT_PRIORITY);
 8002ba2:	200f      	movs	r0, #15
 8002ba4:	f7ff fe32 	bl	800280c <HAL_InitTick>

  /* Init the low level hardware */
  HAL_MspInit();
 8002ba8:	f7ff fd12 	bl	80025d0 <HAL_MspInit>

  /* Return function status */
  return HAL_OK;
 8002bac:	2300      	movs	r3, #0
}
 8002bae:	4618      	mov	r0, r3
 8002bb0:	bd80      	pop	{r7, pc}
 8002bb2:	bf00      	nop
 8002bb4:	40023c00 	.word	0x40023c00

08002bb8 <HAL_IncTick>:
 * @note This function is declared as __weak to be overwritten in case of other 
  *      implementations in user file.
  * @retval None
  */
__weak void HAL_IncTick(void)
{
 8002bb8:	b480      	push	{r7}
 8002bba:	af00      	add	r7, sp, #0
  uwTick += uwTickFreq;
 8002bbc:	4b06      	ldr	r3, [pc, #24]	; (8002bd8 <HAL_IncTick+0x20>)
 8002bbe:	781b      	ldrb	r3, [r3, #0]
 8002bc0:	461a      	mov	r2, r3
 8002bc2:	4b06      	ldr	r3, [pc, #24]	; (8002bdc <HAL_IncTick+0x24>)
 8002bc4:	681b      	ldr	r3, [r3, #0]
 8002bc6:	4413      	add	r3, r2
 8002bc8:	4a04      	ldr	r2, [pc, #16]	; (8002bdc <HAL_IncTick+0x24>)
 8002bca:	6013      	str	r3, [r2, #0]
}
 8002bcc:	bf00      	nop
 8002bce:	46bd      	mov	sp, r7
 8002bd0:	f85d 7b04 	ldr.w	r7, [sp], #4
 8002bd4:	4770      	bx	lr
 8002bd6:	bf00      	nop
 8002bd8:	20000044 	.word	0x20000044
 8002bdc:	20000674 	.word	0x20000674

08002be0 <HAL_GetTick>:
  * @note This function is declared as __weak to be overwritten in case of other 
  *       implementations in user file.
  * @retval tick value
  */
__weak uint32_t HAL_GetTick(void)
{
 8002be0:	b480      	push	{r7}
 8002be2:	af00      	add	r7, sp, #0
  return uwTick;
 8002be4:	4b03      	ldr	r3, [pc, #12]	; (8002bf4 <HAL_GetTick+0x14>)
 8002be6:	681b      	ldr	r3, [r3, #0]
}
 8002be8:	4618      	mov	r0, r3
 8002bea:	46bd      	mov	sp, r7
 8002bec:	f85d 7b04 	ldr.w	r7, [sp], #4
 8002bf0:	4770      	bx	lr
 8002bf2:	bf00      	nop
 8002bf4:	20000674 	.word	0x20000674

08002bf8 <HAL_Delay>:
  *       implementations in user file.
  * @param Delay specifies the delay time length, in milliseconds.
  * @retval None
  */
__weak void HAL_Delay(uint32_t Delay)
{
 8002bf8:	b580      	push	{r7, lr}
 8002bfa:	b084      	sub	sp, #16
 8002bfc:	af00      	add	r7, sp, #0
 8002bfe:	6078      	str	r0, [r7, #4]
  uint32_t tickstart = HAL_GetTick();
 8002c00:	f7ff ffee 	bl	8002be0 <HAL_GetTick>
 8002c04:	60b8      	str	r0, [r7, #8]
  uint32_t wait = Delay;
 8002c06:	687b      	ldr	r3, [r7, #4]
 8002c08:	60fb      	str	r3, [r7, #12]

  /* Add a freq to guarantee minimum wait */
  if (wait < HAL_MAX_DELAY)
 8002c0a:	68fb      	ldr	r3, [r7, #12]
 8002c0c:	f1b3 3fff 	cmp.w	r3, #4294967295	; 0xffffffff
 8002c10:	d005      	beq.n	8002c1e <HAL_Delay+0x26>
  {
    wait += (uint32_t)(uwTickFreq);
 8002c12:	4b0a      	ldr	r3, [pc, #40]	; (8002c3c <HAL_Delay+0x44>)
 8002c14:	781b      	ldrb	r3, [r3, #0]
 8002c16:	461a      	mov	r2, r3
 8002c18:	68fb      	ldr	r3, [r7, #12]
 8002c1a:	4413      	add	r3, r2
 8002c1c:	60fb      	str	r3, [r7, #12]
  }

  while((HAL_GetTick() - tickstart) < wait)
 8002c1e:	bf00      	nop
 8002c20:	f7ff ffde 	bl	8002be0 <HAL_GetTick>
 8002c24:	4602      	mov	r2, r0
 8002c26:	68bb      	ldr	r3, [r7, #8]
 8002c28:	1ad3      	subs	r3, r2, r3
 8002c2a:	68fa      	ldr	r2, [r7, #12]
 8002c2c:	429a      	cmp	r2, r3
 8002c2e:	d8f7      	bhi.n	8002c20 <HAL_Delay+0x28>
  {
  }
}
 8002c30:	bf00      	nop
 8002c32:	bf00      	nop
 8002c34:	3710      	adds	r7, #16
 8002c36:	46bd      	mov	sp, r7
 8002c38:	bd80      	pop	{r7, pc}
 8002c3a:	bf00      	nop
 8002c3c:	20000044 	.word	0x20000044

08002c40 <__NVIC_SetPriorityGrouping>:
           In case of a conflict between priority grouping and available
           priority bits (__NVIC_PRIO_BITS), the smallest possible priority group is set.
  \param [in]      PriorityGroup  Priority grouping field.
 */
__STATIC_INLINE void __NVIC_SetPriorityGrouping(uint32_t PriorityGroup)
{
 8002c40:	b480      	push	{r7}
 8002c42:	b085      	sub	sp, #20
 8002c44:	af00      	add	r7, sp, #0
 8002c46:	6078      	str	r0, [r7, #4]
  uint32_t reg_value;
  uint32_t PriorityGroupTmp = (PriorityGroup & (uint32_t)0x07UL);             /* only values 0..7 are used          */
 8002c48:	687b      	ldr	r3, [r7, #4]
 8002c4a:	f003 0307 	and.w	r3, r3, #7
 8002c4e:	60fb      	str	r3, [r7, #12]

  reg_value  =  SCB->AIRCR;                                                   /* read old register configuration    */
 8002c50:	4b0c      	ldr	r3, [pc, #48]	; (8002c84 <__NVIC_SetPriorityGrouping+0x44>)
 8002c52:	68db      	ldr	r3, [r3, #12]
 8002c54:	60bb      	str	r3, [r7, #8]
  reg_value &= ~((uint32_t)(SCB_AIRCR_VECTKEY_Msk | SCB_AIRCR_PRIGROUP_Msk)); /* clear bits to change               */
 8002c56:	68ba      	ldr	r2, [r7, #8]
 8002c58:	f64f 03ff 	movw	r3, #63743	; 0xf8ff
 8002c5c:	4013      	ands	r3, r2
 8002c5e:	60bb      	str	r3, [r7, #8]
  reg_value  =  (reg_value                                   |
                ((uint32_t)0x5FAUL << SCB_AIRCR_VECTKEY_Pos) |
                (PriorityGroupTmp << SCB_AIRCR_PRIGROUP_Pos)  );              /* Insert write key and priority group */
 8002c60:	68fb      	ldr	r3, [r7, #12]
 8002c62:	021a      	lsls	r2, r3, #8
                ((uint32_t)0x5FAUL << SCB_AIRCR_VECTKEY_Pos) |
 8002c64:	68bb      	ldr	r3, [r7, #8]
 8002c66:	4313      	orrs	r3, r2
  reg_value  =  (reg_value                                   |
 8002c68:	f043 63bf 	orr.w	r3, r3, #100139008	; 0x5f80000
 8002c6c:	f443 3300 	orr.w	r3, r3, #131072	; 0x20000
 8002c70:	60bb      	str	r3, [r7, #8]
  SCB->AIRCR =  reg_value;
 8002c72:	4a04      	ldr	r2, [pc, #16]	; (8002c84 <__NVIC_SetPriorityGrouping+0x44>)
 8002c74:	68bb      	ldr	r3, [r7, #8]
 8002c76:	60d3      	str	r3, [r2, #12]
}
 8002c78:	bf00      	nop
 8002c7a:	3714      	adds	r7, #20
 8002c7c:	46bd      	mov	sp, r7
 8002c7e:	f85d 7b04 	ldr.w	r7, [sp], #4
 8002c82:	4770      	bx	lr
 8002c84:	e000ed00 	.word	0xe000ed00

08002c88 <__NVIC_GetPriorityGrouping>:
  \brief   Get Priority Grouping
  \details Reads the priority grouping field from the NVIC Interrupt Controller.
  \return                Priority grouping field (SCB->AIRCR [10:8] PRIGROUP field).
 */
__STATIC_INLINE uint32_t __NVIC_GetPriorityGrouping(void)
{
 8002c88:	b480      	push	{r7}
 8002c8a:	af00      	add	r7, sp, #0
  return ((uint32_t)((SCB->AIRCR & SCB_AIRCR_PRIGROUP_Msk) >> SCB_AIRCR_PRIGROUP_Pos));
 8002c8c:	4b04      	ldr	r3, [pc, #16]	; (8002ca0 <__NVIC_GetPriorityGrouping+0x18>)
 8002c8e:	68db      	ldr	r3, [r3, #12]
 8002c90:	0a1b      	lsrs	r3, r3, #8
 8002c92:	f003 0307 	and.w	r3, r3, #7
}
 8002c96:	4618      	mov	r0, r3
 8002c98:	46bd      	mov	sp, r7
 8002c9a:	f85d 7b04 	ldr.w	r7, [sp], #4
 8002c9e:	4770      	bx	lr
 8002ca0:	e000ed00 	.word	0xe000ed00

08002ca4 <__NVIC_EnableIRQ>:
  \details Enables a device specific interrupt in the NVIC interrupt controller.
  \param [in]      IRQn  Device specific interrupt number.
  \note    IRQn must not be negative.
 */
__STATIC_INLINE void __NVIC_EnableIRQ(IRQn_Type IRQn)
{
 8002ca4:	b480      	push	{r7}
 8002ca6:	b083      	sub	sp, #12
 8002ca8:	af00      	add	r7, sp, #0
 8002caa:	4603      	mov	r3, r0
 8002cac:	71fb      	strb	r3, [r7, #7]
  if ((int32_t)(IRQn) >= 0)
 8002cae:	f997 3007 	ldrsb.w	r3, [r7, #7]
 8002cb2:	2b00      	cmp	r3, #0
 8002cb4:	db0b      	blt.n	8002cce <__NVIC_EnableIRQ+0x2a>
  {
    NVIC->ISER[(((uint32_t)IRQn) >> 5UL)] = (uint32_t)(1UL << (((uint32_t)IRQn) & 0x1FUL));
 8002cb6:	79fb      	ldrb	r3, [r7, #7]
 8002cb8:	f003 021f 	and.w	r2, r3, #31
 8002cbc:	4907      	ldr	r1, [pc, #28]	; (8002cdc <__NVIC_EnableIRQ+0x38>)
 8002cbe:	f997 3007 	ldrsb.w	r3, [r7, #7]
 8002cc2:	095b      	lsrs	r3, r3, #5
 8002cc4:	2001      	movs	r0, #1
 8002cc6:	fa00 f202 	lsl.w	r2, r0, r2
 8002cca:	f841 2023 	str.w	r2, [r1, r3, lsl #2]
  }
}
 8002cce:	bf00      	nop
 8002cd0:	370c      	adds	r7, #12
 8002cd2:	46bd      	mov	sp, r7
 8002cd4:	f85d 7b04 	ldr.w	r7, [sp], #4
 8002cd8:	4770      	bx	lr
 8002cda:	bf00      	nop
 8002cdc:	e000e100 	.word	0xe000e100

08002ce0 <__NVIC_SetPriority>:
  \param [in]      IRQn  Interrupt number.
  \param [in]  priority  Priority to set.
  \note    The priority cannot be set for every processor exception.
 */
__STATIC_INLINE void __NVIC_SetPriority(IRQn_Type IRQn, uint32_t priority)
{
 8002ce0:	b480      	push	{r7}
 8002ce2:	b083      	sub	sp, #12
 8002ce4:	af00      	add	r7, sp, #0
 8002ce6:	4603      	mov	r3, r0
 8002ce8:	6039      	str	r1, [r7, #0]
 8002cea:	71fb      	strb	r3, [r7, #7]
  if ((int32_t)(IRQn) >= 0)
 8002cec:	f997 3007 	ldrsb.w	r3, [r7, #7]
 8002cf0:	2b00      	cmp	r3, #0
 8002cf2:	db0a      	blt.n	8002d0a <__NVIC_SetPriority+0x2a>
  {
    NVIC->IP[((uint32_t)IRQn)]               = (uint8_t)((priority << (8U - __NVIC_PRIO_BITS)) & (uint32_t)0xFFUL);
 8002cf4:	683b      	ldr	r3, [r7, #0]
 8002cf6:	b2da      	uxtb	r2, r3
 8002cf8:	490c      	ldr	r1, [pc, #48]	; (8002d2c <__NVIC_SetPriority+0x4c>)
 8002cfa:	f997 3007 	ldrsb.w	r3, [r7, #7]
 8002cfe:	0112      	lsls	r2, r2, #4
 8002d00:	b2d2      	uxtb	r2, r2
 8002d02:	440b      	add	r3, r1
 8002d04:	f883 2300 	strb.w	r2, [r3, #768]	; 0x300
  }
  else
  {
    SCB->SHP[(((uint32_t)IRQn) & 0xFUL)-4UL] = (uint8_t)((priority << (8U - __NVIC_PRIO_BITS)) & (uint32_t)0xFFUL);
  }
}
 8002d08:	e00a      	b.n	8002d20 <__NVIC_SetPriority+0x40>
    SCB->SHP[(((uint32_t)IRQn) & 0xFUL)-4UL] = (uint8_t)((priority << (8U - __NVIC_PRIO_BITS)) & (uint32_t)0xFFUL);
 8002d0a:	683b      	ldr	r3, [r7, #0]
 8002d0c:	b2da      	uxtb	r2, r3
 8002d0e:	4908      	ldr	r1, [pc, #32]	; (8002d30 <__NVIC_SetPriority+0x50>)
 8002d10:	79fb      	ldrb	r3, [r7, #7]
 8002d12:	f003 030f 	and.w	r3, r3, #15
 8002d16:	3b04      	subs	r3, #4
 8002d18:	0112      	lsls	r2, r2, #4
 8002d1a:	b2d2      	uxtb	r2, r2
 8002d1c:	440b      	add	r3, r1
 8002d1e:	761a      	strb	r2, [r3, #24]
}
 8002d20:	bf00      	nop
 8002d22:	370c      	adds	r7, #12
 8002d24:	46bd      	mov	sp, r7
 8002d26:	f85d 7b04 	ldr.w	r7, [sp], #4
 8002d2a:	4770      	bx	lr
 8002d2c:	e000e100 	.word	0xe000e100
 8002d30:	e000ed00 	.word	0xe000ed00

08002d34 <NVIC_EncodePriority>:
  \param [in]   PreemptPriority  Preemptive priority value (starting from 0).
  \param [in]       SubPriority  Subpriority value (starting from 0).
  \return                        Encoded priority. Value can be used in the function \ref NVIC_SetPriority().
 */
__STATIC_INLINE uint32_t NVIC_EncodePriority (uint32_t PriorityGroup, uint32_t PreemptPriority, uint32_t SubPriority)
{
 8002d34:	b480      	push	{r7}
 8002d36:	b089      	sub	sp, #36	; 0x24
 8002d38:	af00      	add	r7, sp, #0
 8002d3a:	60f8      	str	r0, [r7, #12]
 8002d3c:	60b9      	str	r1, [r7, #8]
 8002d3e:	607a      	str	r2, [r7, #4]
  uint32_t PriorityGroupTmp = (PriorityGroup & (uint32_t)0x07UL);   /* only values 0..7 are used          */
 8002d40:	68fb      	ldr	r3, [r7, #12]
 8002d42:	f003 0307 	and.w	r3, r3, #7
 8002d46:	61fb      	str	r3, [r7, #28]
  uint32_t PreemptPriorityBits;
  uint32_t SubPriorityBits;

  PreemptPriorityBits = ((7UL - PriorityGroupTmp) > (uint32_t)(__NVIC_PRIO_BITS)) ? (uint32_t)(__NVIC_PRIO_BITS) : (uint32_t)(7UL - PriorityGroupTmp);
 8002d48:	69fb      	ldr	r3, [r7, #28]
 8002d4a:	f1c3 0307 	rsb	r3, r3, #7
 8002d4e:	2b04      	cmp	r3, #4
 8002d50:	bf28      	it	cs
 8002d52:	2304      	movcs	r3, #4
 8002d54:	61bb      	str	r3, [r7, #24]
  SubPriorityBits     = ((PriorityGroupTmp + (uint32_t)(__NVIC_PRIO_BITS)) < (uint32_t)7UL) ? (uint32_t)0UL : (uint32_t)((PriorityGroupTmp - 7UL) + (uint32_t)(__NVIC_PRIO_BITS));
 8002d56:	69fb      	ldr	r3, [r7, #28]
 8002d58:	3304      	adds	r3, #4
 8002d5a:	2b06      	cmp	r3, #6
 8002d5c:	d902      	bls.n	8002d64 <NVIC_EncodePriority+0x30>
 8002d5e:	69fb      	ldr	r3, [r7, #28]
 8002d60:	3b03      	subs	r3, #3
 8002d62:	e000      	b.n	8002d66 <NVIC_EncodePriority+0x32>
 8002d64:	2300      	movs	r3, #0
 8002d66:	617b      	str	r3, [r7, #20]

  return (
           ((PreemptPriority & (uint32_t)((1UL << (PreemptPriorityBits)) - 1UL)) << SubPriorityBits) |
 8002d68:	f04f 32ff 	mov.w	r2, #4294967295	; 0xffffffff
 8002d6c:	69bb      	ldr	r3, [r7, #24]
 8002d6e:	fa02 f303 	lsl.w	r3, r2, r3
 8002d72:	43da      	mvns	r2, r3
 8002d74:	68bb      	ldr	r3, [r7, #8]
 8002d76:	401a      	ands	r2, r3
 8002d78:	697b      	ldr	r3, [r7, #20]
 8002d7a:	409a      	lsls	r2, r3
           ((SubPriority     & (uint32_t)((1UL << (SubPriorityBits    )) - 1UL)))
 8002d7c:	f04f 31ff 	mov.w	r1, #4294967295	; 0xffffffff
 8002d80:	697b      	ldr	r3, [r7, #20]
 8002d82:	fa01 f303 	lsl.w	r3, r1, r3
 8002d86:	43d9      	mvns	r1, r3
 8002d88:	687b      	ldr	r3, [r7, #4]
 8002d8a:	400b      	ands	r3, r1
           ((PreemptPriority & (uint32_t)((1UL << (PreemptPriorityBits)) - 1UL)) << SubPriorityBits) |
 8002d8c:	4313      	orrs	r3, r2
         );
}
 8002d8e:	4618      	mov	r0, r3
 8002d90:	3724      	adds	r7, #36	; 0x24
 8002d92:	46bd      	mov	sp, r7
 8002d94:	f85d 7b04 	ldr.w	r7, [sp], #4
 8002d98:	4770      	bx	lr

08002d9a <HAL_NVIC_SetPriorityGrouping>:
  * @note   When the NVIC_PriorityGroup_0 is selected, IRQ preemption is no more possible. 
  *         The pending IRQ priority will be managed only by the subpriority. 
  * @retval None
  */
void HAL_NVIC_SetPriorityGrouping(uint32_t PriorityGroup)
{
 8002d9a:	b580      	push	{r7, lr}
 8002d9c:	b082      	sub	sp, #8
 8002d9e:	af00      	add	r7, sp, #0
 8002da0:	6078      	str	r0, [r7, #4]
  /* Check the parameters */
  assert_param(IS_NVIC_PRIORITY_GROUP(PriorityGroup));
  
  /* Set the PRIGROUP[10:8] bits according to the PriorityGroup parameter value */
  NVIC_SetPriorityGrouping(PriorityGroup);
 8002da2:	6878      	ldr	r0, [r7, #4]
 8002da4:	f7ff ff4c 	bl	8002c40 <__NVIC_SetPriorityGrouping>
}
 8002da8:	bf00      	nop
 8002daa:	3708      	adds	r7, #8
 8002dac:	46bd      	mov	sp, r7
 8002dae:	bd80      	pop	{r7, pc}

08002db0 <HAL_NVIC_SetPriority>:
  *         This parameter can be a value between 0 and 15
  *         A lower priority value indicates a higher priority.          
  * @retval None
  */
void HAL_NVIC_SetPriority(IRQn_Type IRQn, uint32_t PreemptPriority, uint32_t SubPriority)
{ 
 8002db0:	b580      	push	{r7, lr}
 8002db2:	b086      	sub	sp, #24
 8002db4:	af00      	add	r7, sp, #0
 8002db6:	4603      	mov	r3, r0
 8002db8:	60b9      	str	r1, [r7, #8]
 8002dba:	607a      	str	r2, [r7, #4]
 8002dbc:	73fb      	strb	r3, [r7, #15]
  uint32_t prioritygroup = 0x00U;
 8002dbe:	2300      	movs	r3, #0
 8002dc0:	617b      	str	r3, [r7, #20]
  
  /* Check the parameters */
  assert_param(IS_NVIC_SUB_PRIORITY(SubPriority));
  assert_param(IS_NVIC_PREEMPTION_PRIORITY(PreemptPriority));
  
  prioritygroup = NVIC_GetPriorityGrouping();
 8002dc2:	f7ff ff61 	bl	8002c88 <__NVIC_GetPriorityGrouping>
 8002dc6:	6178      	str	r0, [r7, #20]
  
  NVIC_SetPriority(IRQn, NVIC_EncodePriority(prioritygroup, PreemptPriority, SubPriority));
 8002dc8:	687a      	ldr	r2, [r7, #4]
 8002dca:	68b9      	ldr	r1, [r7, #8]
 8002dcc:	6978      	ldr	r0, [r7, #20]
 8002dce:	f7ff ffb1 	bl	8002d34 <NVIC_EncodePriority>
 8002dd2:	4602      	mov	r2, r0
 8002dd4:	f997 300f 	ldrsb.w	r3, [r7, #15]
 8002dd8:	4611      	mov	r1, r2
 8002dda:	4618      	mov	r0, r3
 8002ddc:	f7ff ff80 	bl	8002ce0 <__NVIC_SetPriority>
}
 8002de0:	bf00      	nop
 8002de2:	3718      	adds	r7, #24
 8002de4:	46bd      	mov	sp, r7
 8002de6:	bd80      	pop	{r7, pc}

08002de8 <HAL_NVIC_EnableIRQ>:
  *         This parameter can be an enumerator of IRQn_Type enumeration
  *         (For the complete STM32 Devices IRQ Channels list, please refer to the appropriate CMSIS device file (stm32f4xxxx.h))
  * @retval None
  */
void HAL_NVIC_EnableIRQ(IRQn_Type IRQn)
{
 8002de8:	b580      	push	{r7, lr}
 8002dea:	b082      	sub	sp, #8
 8002dec:	af00      	add	r7, sp, #0
 8002dee:	4603      	mov	r3, r0
 8002df0:	71fb      	strb	r3, [r7, #7]
  /* Check the parameters */
  assert_param(IS_NVIC_DEVICE_IRQ(IRQn));
  
  /* Enable interrupt */
  NVIC_EnableIRQ(IRQn);
 8002df2:	f997 3007 	ldrsb.w	r3, [r7, #7]
 8002df6:	4618      	mov	r0, r3
 8002df8:	f7ff ff54 	bl	8002ca4 <__NVIC_EnableIRQ>
}
 8002dfc:	bf00      	nop
 8002dfe:	3708      	adds	r7, #8
 8002e00:	46bd      	mov	sp, r7
 8002e02:	bd80      	pop	{r7, pc}

08002e04 <HAL_GPIO_Init>:
  * @param  GPIO_Init pointer to a GPIO_InitTypeDef structure that contains
  *         the configuration information for the specified GPIO peripheral.
  * @retval None
  */
void HAL_GPIO_Init(GPIO_TypeDef  *GPIOx, GPIO_InitTypeDef *GPIO_Init)
{
 8002e04:	b480      	push	{r7}
 8002e06:	b089      	sub	sp, #36	; 0x24
 8002e08:	af00      	add	r7, sp, #0
 8002e0a:	6078      	str	r0, [r7, #4]
 8002e0c:	6039      	str	r1, [r7, #0]
  uint32_t position;
  uint32_t ioposition = 0x00U;
 8002e0e:	2300      	movs	r3, #0
 8002e10:	617b      	str	r3, [r7, #20]
  uint32_t iocurrent = 0x00U;
 8002e12:	2300      	movs	r3, #0
 8002e14:	613b      	str	r3, [r7, #16]
  uint32_t temp = 0x00U;
 8002e16:	2300      	movs	r3, #0
 8002e18:	61bb      	str	r3, [r7, #24]
  assert_param(IS_GPIO_ALL_INSTANCE(GPIOx));
  assert_param(IS_GPIO_PIN(GPIO_Init->Pin));
  assert_param(IS_GPIO_MODE(GPIO_Init->Mode));

  /* Configure the port pins */
  for(position = 0U; position < GPIO_NUMBER; position++)
 8002e1a:	2300      	movs	r3, #0
 8002e1c:	61fb      	str	r3, [r7, #28]
 8002e1e:	e16b      	b.n	80030f8 <HAL_GPIO_Init+0x2f4>
  {
    /* Get the IO position */
    ioposition = 0x01U << position;
 8002e20:	2201      	movs	r2, #1
 8002e22:	69fb      	ldr	r3, [r7, #28]
 8002e24:	fa02 f303 	lsl.w	r3, r2, r3
 8002e28:	617b      	str	r3, [r7, #20]
    /* Get the current IO position */
    iocurrent = (uint32_t)(GPIO_Init->Pin) & ioposition;
 8002e2a:	683b      	ldr	r3, [r7, #0]
 8002e2c:	681b      	ldr	r3, [r3, #0]
 8002e2e:	697a      	ldr	r2, [r7, #20]
 8002e30:	4013      	ands	r3, r2
 8002e32:	613b      	str	r3, [r7, #16]

    if(iocurrent == ioposition)
 8002e34:	693a      	ldr	r2, [r7, #16]
 8002e36:	697b      	ldr	r3, [r7, #20]
 8002e38:	429a      	cmp	r2, r3
 8002e3a:	f040 815a 	bne.w	80030f2 <HAL_GPIO_Init+0x2ee>
    {
      /*--------------------- GPIO Mode Configuration ------------------------*/
      /* In case of Output or Alternate function mode selection */
      if(((GPIO_Init->Mode & GPIO_MODE) == MODE_OUTPUT) || \
 8002e3e:	683b      	ldr	r3, [r7, #0]
 8002e40:	685b      	ldr	r3, [r3, #4]
 8002e42:	f003 0303 	and.w	r3, r3, #3
 8002e46:	2b01      	cmp	r3, #1
 8002e48:	d005      	beq.n	8002e56 <HAL_GPIO_Init+0x52>
          (GPIO_Init->Mode & GPIO_MODE) == MODE_AF)
 8002e4a:	683b      	ldr	r3, [r7, #0]
 8002e4c:	685b      	ldr	r3, [r3, #4]
 8002e4e:	f003 0303 	and.w	r3, r3, #3
      if(((GPIO_Init->Mode & GPIO_MODE) == MODE_OUTPUT) || \
 8002e52:	2b02      	cmp	r3, #2
 8002e54:	d130      	bne.n	8002eb8 <HAL_GPIO_Init+0xb4>
      {
        /* Check the Speed parameter */
        assert_param(IS_GPIO_SPEED(GPIO_Init->Speed));
        /* Configure the IO Speed */
        temp = GPIOx->OSPEEDR; 
 8002e56:	687b      	ldr	r3, [r7, #4]
 8002e58:	689b      	ldr	r3, [r3, #8]
 8002e5a:	61bb      	str	r3, [r7, #24]
        temp &= ~(GPIO_OSPEEDER_OSPEEDR0 << (position * 2U));
 8002e5c:	69fb      	ldr	r3, [r7, #28]
 8002e5e:	005b      	lsls	r3, r3, #1
 8002e60:	2203      	movs	r2, #3
 8002e62:	fa02 f303 	lsl.w	r3, r2, r3
 8002e66:	43db      	mvns	r3, r3
 8002e68:	69ba      	ldr	r2, [r7, #24]
 8002e6a:	4013      	ands	r3, r2
 8002e6c:	61bb      	str	r3, [r7, #24]
        temp |= (GPIO_Init->Speed << (position * 2U));
 8002e6e:	683b      	ldr	r3, [r7, #0]
 8002e70:	68da      	ldr	r2, [r3, #12]
 8002e72:	69fb      	ldr	r3, [r7, #28]
 8002e74:	005b      	lsls	r3, r3, #1
 8002e76:	fa02 f303 	lsl.w	r3, r2, r3
 8002e7a:	69ba      	ldr	r2, [r7, #24]
 8002e7c:	4313      	orrs	r3, r2
 8002e7e:	61bb      	str	r3, [r7, #24]
        GPIOx->OSPEEDR = temp;
 8002e80:	687b      	ldr	r3, [r7, #4]
 8002e82:	69ba      	ldr	r2, [r7, #24]
 8002e84:	609a      	str	r2, [r3, #8]

        /* Configure the IO Output Type */
        temp = GPIOx->OTYPER;
 8002e86:	687b      	ldr	r3, [r7, #4]
 8002e88:	685b      	ldr	r3, [r3, #4]
 8002e8a:	61bb      	str	r3, [r7, #24]
        temp &= ~(GPIO_OTYPER_OT_0 << position) ;
 8002e8c:	2201      	movs	r2, #1
 8002e8e:	69fb      	ldr	r3, [r7, #28]
 8002e90:	fa02 f303 	lsl.w	r3, r2, r3
 8002e94:	43db      	mvns	r3, r3
 8002e96:	69ba      	ldr	r2, [r7, #24]
 8002e98:	4013      	ands	r3, r2
 8002e9a:	61bb      	str	r3, [r7, #24]
        temp |= (((GPIO_Init->Mode & OUTPUT_TYPE) >> OUTPUT_TYPE_Pos) << position);
 8002e9c:	683b      	ldr	r3, [r7, #0]
 8002e9e:	685b      	ldr	r3, [r3, #4]
 8002ea0:	091b      	lsrs	r3, r3, #4
 8002ea2:	f003 0201 	and.w	r2, r3, #1
 8002ea6:	69fb      	ldr	r3, [r7, #28]
 8002ea8:	fa02 f303 	lsl.w	r3, r2, r3
 8002eac:	69ba      	ldr	r2, [r7, #24]
 8002eae:	4313      	orrs	r3, r2
 8002eb0:	61bb      	str	r3, [r7, #24]
        GPIOx->OTYPER = temp;
 8002eb2:	687b      	ldr	r3, [r7, #4]
 8002eb4:	69ba      	ldr	r2, [r7, #24]
 8002eb6:	605a      	str	r2, [r3, #4]
       }

      if((GPIO_Init->Mode & GPIO_MODE) != MODE_ANALOG)
 8002eb8:	683b      	ldr	r3, [r7, #0]
 8002eba:	685b      	ldr	r3, [r3, #4]
 8002ebc:	f003 0303 	and.w	r3, r3, #3
 8002ec0:	2b03      	cmp	r3, #3
 8002ec2:	d017      	beq.n	8002ef4 <HAL_GPIO_Init+0xf0>
      {
        /* Check the parameters */
        assert_param(IS_GPIO_PULL(GPIO_Init->Pull));
        
        /* Activate the Pull-up or Pull down resistor for the current IO */
        temp = GPIOx->PUPDR;
 8002ec4:	687b      	ldr	r3, [r7, #4]
 8002ec6:	68db      	ldr	r3, [r3, #12]
 8002ec8:	61bb      	str	r3, [r7, #24]
        temp &= ~(GPIO_PUPDR_PUPDR0 << (position * 2U));
 8002eca:	69fb      	ldr	r3, [r7, #28]
 8002ecc:	005b      	lsls	r3, r3, #1
 8002ece:	2203      	movs	r2, #3
 8002ed0:	fa02 f303 	lsl.w	r3, r2, r3
 8002ed4:	43db      	mvns	r3, r3
 8002ed6:	69ba      	ldr	r2, [r7, #24]
 8002ed8:	4013      	ands	r3, r2
 8002eda:	61bb      	str	r3, [r7, #24]
        temp |= ((GPIO_Init->Pull) << (position * 2U));
 8002edc:	683b      	ldr	r3, [r7, #0]
 8002ede:	689a      	ldr	r2, [r3, #8]
 8002ee0:	69fb      	ldr	r3, [r7, #28]
 8002ee2:	005b      	lsls	r3, r3, #1
 8002ee4:	fa02 f303 	lsl.w	r3, r2, r3
 8002ee8:	69ba      	ldr	r2, [r7, #24]
 8002eea:	4313      	orrs	r3, r2
 8002eec:	61bb      	str	r3, [r7, #24]
        GPIOx->PUPDR = temp;
 8002eee:	687b      	ldr	r3, [r7, #4]
 8002ef0:	69ba      	ldr	r2, [r7, #24]
 8002ef2:	60da      	str	r2, [r3, #12]
      }

      /* In case of Alternate function mode selection */
      if((GPIO_Init->Mode & GPIO_MODE) == MODE_AF)
 8002ef4:	683b      	ldr	r3, [r7, #0]
 8002ef6:	685b      	ldr	r3, [r3, #4]
 8002ef8:	f003 0303 	and.w	r3, r3, #3
 8002efc:	2b02      	cmp	r3, #2
 8002efe:	d123      	bne.n	8002f48 <HAL_GPIO_Init+0x144>
      {
        /* Check the Alternate function parameter */
        assert_param(IS_GPIO_AF(GPIO_Init->Alternate));
        /* Configure Alternate function mapped with the current IO */
        temp = GPIOx->AFR[position >> 3U];
 8002f00:	69fb      	ldr	r3, [r7, #28]
 8002f02:	08da      	lsrs	r2, r3, #3
 8002f04:	687b      	ldr	r3, [r7, #4]
 8002f06:	3208      	adds	r2, #8
 8002f08:	f853 3022 	ldr.w	r3, [r3, r2, lsl #2]
 8002f0c:	61bb      	str	r3, [r7, #24]
        temp &= ~(0xFU << ((uint32_t)(position & 0x07U) * 4U)) ;
 8002f0e:	69fb      	ldr	r3, [r7, #28]
 8002f10:	f003 0307 	and.w	r3, r3, #7
 8002f14:	009b      	lsls	r3, r3, #2
 8002f16:	220f      	movs	r2, #15
 8002f18:	fa02 f303 	lsl.w	r3, r2, r3
 8002f1c:	43db      	mvns	r3, r3
 8002f1e:	69ba      	ldr	r2, [r7, #24]
 8002f20:	4013      	ands	r3, r2
 8002f22:	61bb      	str	r3, [r7, #24]
        temp |= ((uint32_t)(GPIO_Init->Alternate) << (((uint32_t)position & 0x07U) * 4U));
 8002f24:	683b      	ldr	r3, [r7, #0]
 8002f26:	691a      	ldr	r2, [r3, #16]
 8002f28:	69fb      	ldr	r3, [r7, #28]
 8002f2a:	f003 0307 	and.w	r3, r3, #7
 8002f2e:	009b      	lsls	r3, r3, #2
 8002f30:	fa02 f303 	lsl.w	r3, r2, r3
 8002f34:	69ba      	ldr	r2, [r7, #24]
 8002f36:	4313      	orrs	r3, r2
 8002f38:	61bb      	str	r3, [r7, #24]
        GPIOx->AFR[position >> 3U] = temp;
 8002f3a:	69fb      	ldr	r3, [r7, #28]
 8002f3c:	08da      	lsrs	r2, r3, #3
 8002f3e:	687b      	ldr	r3, [r7, #4]
 8002f40:	3208      	adds	r2, #8
 8002f42:	69b9      	ldr	r1, [r7, #24]
 8002f44:	f843 1022 	str.w	r1, [r3, r2, lsl #2]
      }

      /* Configure IO Direction mode (Input, Output, Alternate or Analog) */
      temp = GPIOx->MODER;
 8002f48:	687b      	ldr	r3, [r7, #4]
 8002f4a:	681b      	ldr	r3, [r3, #0]
 8002f4c:	61bb      	str	r3, [r7, #24]
      temp &= ~(GPIO_MODER_MODER0 << (position * 2U));
 8002f4e:	69fb      	ldr	r3, [r7, #28]
 8002f50:	005b      	lsls	r3, r3, #1
 8002f52:	2203      	movs	r2, #3
 8002f54:	fa02 f303 	lsl.w	r3, r2, r3
 8002f58:	43db      	mvns	r3, r3
 8002f5a:	69ba      	ldr	r2, [r7, #24]
 8002f5c:	4013      	ands	r3, r2
 8002f5e:	61bb      	str	r3, [r7, #24]
      temp |= ((GPIO_Init->Mode & GPIO_MODE) << (position * 2U));
 8002f60:	683b      	ldr	r3, [r7, #0]
 8002f62:	685b      	ldr	r3, [r3, #4]
 8002f64:	f003 0203 	and.w	r2, r3, #3
 8002f68:	69fb      	ldr	r3, [r7, #28]
 8002f6a:	005b      	lsls	r3, r3, #1
 8002f6c:	fa02 f303 	lsl.w	r3, r2, r3
 8002f70:	69ba      	ldr	r2, [r7, #24]
 8002f72:	4313      	orrs	r3, r2
 8002f74:	61bb      	str	r3, [r7, #24]
      GPIOx->MODER = temp;
 8002f76:	687b      	ldr	r3, [r7, #4]
 8002f78:	69ba      	ldr	r2, [r7, #24]
 8002f7a:	601a      	str	r2, [r3, #0]

      /*--------------------- EXTI Mode Configuration ------------------------*/
      /* Configure the External Interrupt or event for the current IO */
      if((GPIO_Init->Mode & EXTI_MODE) != 0x00U)
 8002f7c:	683b      	ldr	r3, [r7, #0]
 8002f7e:	685b      	ldr	r3, [r3, #4]
 8002f80:	f403 3340 	and.w	r3, r3, #196608	; 0x30000
 8002f84:	2b00      	cmp	r3, #0
 8002f86:	f000 80b4 	beq.w	80030f2 <HAL_GPIO_Init+0x2ee>
      {
        /* Enable SYSCFG Clock */
        __HAL_RCC_SYSCFG_CLK_ENABLE();
 8002f8a:	2300      	movs	r3, #0
 8002f8c:	60fb      	str	r3, [r7, #12]
 8002f8e:	4b60      	ldr	r3, [pc, #384]	; (8003110 <HAL_GPIO_Init+0x30c>)
 8002f90:	6c5b      	ldr	r3, [r3, #68]	; 0x44
 8002f92:	4a5f      	ldr	r2, [pc, #380]	; (8003110 <HAL_GPIO_Init+0x30c>)
 8002f94:	f443 4380 	orr.w	r3, r3, #16384	; 0x4000
 8002f98:	6453      	str	r3, [r2, #68]	; 0x44
 8002f9a:	4b5d      	ldr	r3, [pc, #372]	; (8003110 <HAL_GPIO_Init+0x30c>)
 8002f9c:	6c5b      	ldr	r3, [r3, #68]	; 0x44
 8002f9e:	f403 4380 	and.w	r3, r3, #16384	; 0x4000
 8002fa2:	60fb      	str	r3, [r7, #12]
 8002fa4:	68fb      	ldr	r3, [r7, #12]

        temp = SYSCFG->EXTICR[position >> 2U];
 8002fa6:	4a5b      	ldr	r2, [pc, #364]	; (8003114 <HAL_GPIO_Init+0x310>)
 8002fa8:	69fb      	ldr	r3, [r7, #28]
 8002faa:	089b      	lsrs	r3, r3, #2
 8002fac:	3302      	adds	r3, #2
 8002fae:	f852 3023 	ldr.w	r3, [r2, r3, lsl #2]
 8002fb2:	61bb      	str	r3, [r7, #24]
        temp &= ~(0x0FU << (4U * (position & 0x03U)));
 8002fb4:	69fb      	ldr	r3, [r7, #28]
 8002fb6:	f003 0303 	and.w	r3, r3, #3
 8002fba:	009b      	lsls	r3, r3, #2
 8002fbc:	220f      	movs	r2, #15
 8002fbe:	fa02 f303 	lsl.w	r3, r2, r3
 8002fc2:	43db      	mvns	r3, r3
 8002fc4:	69ba      	ldr	r2, [r7, #24]
 8002fc6:	4013      	ands	r3, r2
 8002fc8:	61bb      	str	r3, [r7, #24]
        temp |= ((uint32_t)(GPIO_GET_INDEX(GPIOx)) << (4U * (position & 0x03U)));
 8002fca:	687b      	ldr	r3, [r7, #4]
 8002fcc:	4a52      	ldr	r2, [pc, #328]	; (8003118 <HAL_GPIO_Init+0x314>)
 8002fce:	4293      	cmp	r3, r2
 8002fd0:	d02b      	beq.n	800302a <HAL_GPIO_Init+0x226>
 8002fd2:	687b      	ldr	r3, [r7, #4]
 8002fd4:	4a51      	ldr	r2, [pc, #324]	; (800311c <HAL_GPIO_Init+0x318>)
 8002fd6:	4293      	cmp	r3, r2
 8002fd8:	d025      	beq.n	8003026 <HAL_GPIO_Init+0x222>
 8002fda:	687b      	ldr	r3, [r7, #4]
 8002fdc:	4a50      	ldr	r2, [pc, #320]	; (8003120 <HAL_GPIO_Init+0x31c>)
 8002fde:	4293      	cmp	r3, r2
 8002fe0:	d01f      	beq.n	8003022 <HAL_GPIO_Init+0x21e>
 8002fe2:	687b      	ldr	r3, [r7, #4]
 8002fe4:	4a4f      	ldr	r2, [pc, #316]	; (8003124 <HAL_GPIO_Init+0x320>)
 8002fe6:	4293      	cmp	r3, r2
 8002fe8:	d019      	beq.n	800301e <HAL_GPIO_Init+0x21a>
 8002fea:	687b      	ldr	r3, [r7, #4]
 8002fec:	4a4e      	ldr	r2, [pc, #312]	; (8003128 <HAL_GPIO_Init+0x324>)
 8002fee:	4293      	cmp	r3, r2
 8002ff0:	d013      	beq.n	800301a <HAL_GPIO_Init+0x216>
 8002ff2:	687b      	ldr	r3, [r7, #4]
 8002ff4:	4a4d      	ldr	r2, [pc, #308]	; (800312c <HAL_GPIO_Init+0x328>)
 8002ff6:	4293      	cmp	r3, r2
 8002ff8:	d00d      	beq.n	8003016 <HAL_GPIO_Init+0x212>
 8002ffa:	687b      	ldr	r3, [r7, #4]
 8002ffc:	4a4c      	ldr	r2, [pc, #304]	; (8003130 <HAL_GPIO_Init+0x32c>)
 8002ffe:	4293      	cmp	r3, r2
 8003000:	d007      	beq.n	8003012 <HAL_GPIO_Init+0x20e>
 8003002:	687b      	ldr	r3, [r7, #4]
 8003004:	4a4b      	ldr	r2, [pc, #300]	; (8003134 <HAL_GPIO_Init+0x330>)
 8003006:	4293      	cmp	r3, r2
 8003008:	d101      	bne.n	800300e <HAL_GPIO_Init+0x20a>
 800300a:	2307      	movs	r3, #7
 800300c:	e00e      	b.n	800302c <HAL_GPIO_Init+0x228>
 800300e:	2308      	movs	r3, #8
 8003010:	e00c      	b.n	800302c <HAL_GPIO_Init+0x228>
 8003012:	2306      	movs	r3, #6
 8003014:	e00a      	b.n	800302c <HAL_GPIO_Init+0x228>
 8003016:	2305      	movs	r3, #5
 8003018:	e008      	b.n	800302c <HAL_GPIO_Init+0x228>
 800301a:	2304      	movs	r3, #4
 800301c:	e006      	b.n	800302c <HAL_GPIO_Init+0x228>
 800301e:	2303      	movs	r3, #3
 8003020:	e004      	b.n	800302c <HAL_GPIO_Init+0x228>
 8003022:	2302      	movs	r3, #2
 8003024:	e002      	b.n	800302c <HAL_GPIO_Init+0x228>
 8003026:	2301      	movs	r3, #1
 8003028:	e000      	b.n	800302c <HAL_GPIO_Init+0x228>
 800302a:	2300      	movs	r3, #0
 800302c:	69fa      	ldr	r2, [r7, #28]
 800302e:	f002 0203 	and.w	r2, r2, #3
 8003032:	0092      	lsls	r2, r2, #2
 8003034:	4093      	lsls	r3, r2
 8003036:	69ba      	ldr	r2, [r7, #24]
 8003038:	4313      	orrs	r3, r2
 800303a:	61bb      	str	r3, [r7, #24]
        SYSCFG->EXTICR[position >> 2U] = temp;
 800303c:	4935      	ldr	r1, [pc, #212]	; (8003114 <HAL_GPIO_Init+0x310>)
 800303e:	69fb      	ldr	r3, [r7, #28]
 8003040:	089b      	lsrs	r3, r3, #2
 8003042:	3302      	adds	r3, #2
 8003044:	69ba      	ldr	r2, [r7, #24]
 8003046:	f841 2023 	str.w	r2, [r1, r3, lsl #2]

        /* Clear Rising Falling edge configuration */
        temp = EXTI->RTSR;
 800304a:	4b3b      	ldr	r3, [pc, #236]	; (8003138 <HAL_GPIO_Init+0x334>)
 800304c:	689b      	ldr	r3, [r3, #8]
 800304e:	61bb      	str	r3, [r7, #24]
        temp &= ~((uint32_t)iocurrent);
 8003050:	693b      	ldr	r3, [r7, #16]
 8003052:	43db      	mvns	r3, r3
 8003054:	69ba      	ldr	r2, [r7, #24]
 8003056:	4013      	ands	r3, r2
 8003058:	61bb      	str	r3, [r7, #24]
        if((GPIO_Init->Mode & TRIGGER_RISING) != 0x00U)
 800305a:	683b      	ldr	r3, [r7, #0]
 800305c:	685b      	ldr	r3, [r3, #4]
 800305e:	f403 1380 	and.w	r3, r3, #1048576	; 0x100000
 8003062:	2b00      	cmp	r3, #0
 8003064:	d003      	beq.n	800306e <HAL_GPIO_Init+0x26a>
        {
          temp |= iocurrent;
 8003066:	69ba      	ldr	r2, [r7, #24]
 8003068:	693b      	ldr	r3, [r7, #16]
 800306a:	4313      	orrs	r3, r2
 800306c:	61bb      	str	r3, [r7, #24]
        }
        EXTI->RTSR = temp;
 800306e:	4a32      	ldr	r2, [pc, #200]	; (8003138 <HAL_GPIO_Init+0x334>)
 8003070:	69bb      	ldr	r3, [r7, #24]
 8003072:	6093      	str	r3, [r2, #8]

        temp = EXTI->FTSR;
 8003074:	4b30      	ldr	r3, [pc, #192]	; (8003138 <HAL_GPIO_Init+0x334>)
 8003076:	68db      	ldr	r3, [r3, #12]
 8003078:	61bb      	str	r3, [r7, #24]
        temp &= ~((uint32_t)iocurrent);
 800307a:	693b      	ldr	r3, [r7, #16]
 800307c:	43db      	mvns	r3, r3
 800307e:	69ba      	ldr	r2, [r7, #24]
 8003080:	4013      	ands	r3, r2
 8003082:	61bb      	str	r3, [r7, #24]
        if((GPIO_Init->Mode & TRIGGER_FALLING) != 0x00U)
 8003084:	683b      	ldr	r3, [r7, #0]
 8003086:	685b      	ldr	r3, [r3, #4]
 8003088:	f403 1300 	and.w	r3, r3, #2097152	; 0x200000
 800308c:	2b00      	cmp	r3, #0
 800308e:	d003      	beq.n	8003098 <HAL_GPIO_Init+0x294>
        {
          temp |= iocurrent;
 8003090:	69ba      	ldr	r2, [r7, #24]
 8003092:	693b      	ldr	r3, [r7, #16]
 8003094:	4313      	orrs	r3, r2
 8003096:	61bb      	str	r3, [r7, #24]
        }
        EXTI->FTSR = temp;
 8003098:	4a27      	ldr	r2, [pc, #156]	; (8003138 <HAL_GPIO_Init+0x334>)
 800309a:	69bb      	ldr	r3, [r7, #24]
 800309c:	60d3      	str	r3, [r2, #12]

        temp = EXTI->EMR;
 800309e:	4b26      	ldr	r3, [pc, #152]	; (8003138 <HAL_GPIO_Init+0x334>)
 80030a0:	685b      	ldr	r3, [r3, #4]
 80030a2:	61bb      	str	r3, [r7, #24]
        temp &= ~((uint32_t)iocurrent);
 80030a4:	693b      	ldr	r3, [r7, #16]
 80030a6:	43db      	mvns	r3, r3
 80030a8:	69ba      	ldr	r2, [r7, #24]
 80030aa:	4013      	ands	r3, r2
 80030ac:	61bb      	str	r3, [r7, #24]
        if((GPIO_Init->Mode & EXTI_EVT) != 0x00U)
 80030ae:	683b      	ldr	r3, [r7, #0]
 80030b0:	685b      	ldr	r3, [r3, #4]
 80030b2:	f403 3300 	and.w	r3, r3, #131072	; 0x20000
 80030b6:	2b00      	cmp	r3, #0
 80030b8:	d003      	beq.n	80030c2 <HAL_GPIO_Init+0x2be>
        {
          temp |= iocurrent;
 80030ba:	69ba      	ldr	r2, [r7, #24]
 80030bc:	693b      	ldr	r3, [r7, #16]
 80030be:	4313      	orrs	r3, r2
 80030c0:	61bb      	str	r3, [r7, #24]
        }
        EXTI->EMR = temp;
 80030c2:	4a1d      	ldr	r2, [pc, #116]	; (8003138 <HAL_GPIO_Init+0x334>)
 80030c4:	69bb      	ldr	r3, [r7, #24]
 80030c6:	6053      	str	r3, [r2, #4]

        /* Clear EXTI line configuration */
        temp = EXTI->IMR;
 80030c8:	4b1b      	ldr	r3, [pc, #108]	; (8003138 <HAL_GPIO_Init+0x334>)
 80030ca:	681b      	ldr	r3, [r3, #0]
 80030cc:	61bb      	str	r3, [r7, #24]
        temp &= ~((uint32_t)iocurrent);
 80030ce:	693b      	ldr	r3, [r7, #16]
 80030d0:	43db      	mvns	r3, r3
 80030d2:	69ba      	ldr	r2, [r7, #24]
 80030d4:	4013      	ands	r3, r2
 80030d6:	61bb      	str	r3, [r7, #24]
        if((GPIO_Init->Mode & EXTI_IT) != 0x00U)
 80030d8:	683b      	ldr	r3, [r7, #0]
 80030da:	685b      	ldr	r3, [r3, #4]
 80030dc:	f403 3380 	and.w	r3, r3, #65536	; 0x10000
 80030e0:	2b00      	cmp	r3, #0
 80030e2:	d003      	beq.n	80030ec <HAL_GPIO_Init+0x2e8>
        {
          temp |= iocurrent;
 80030e4:	69ba      	ldr	r2, [r7, #24]
 80030e6:	693b      	ldr	r3, [r7, #16]
 80030e8:	4313      	orrs	r3, r2
 80030ea:	61bb      	str	r3, [r7, #24]
        }
        EXTI->IMR = temp;
 80030ec:	4a12      	ldr	r2, [pc, #72]	; (8003138 <HAL_GPIO_Init+0x334>)
 80030ee:	69bb      	ldr	r3, [r7, #24]
 80030f0:	6013      	str	r3, [r2, #0]
  for(position = 0U; position < GPIO_NUMBER; position++)
 80030f2:	69fb      	ldr	r3, [r7, #28]
 80030f4:	3301      	adds	r3, #1
 80030f6:	61fb      	str	r3, [r7, #28]
 80030f8:	69fb      	ldr	r3, [r7, #28]
 80030fa:	2b0f      	cmp	r3, #15
 80030fc:	f67f ae90 	bls.w	8002e20 <HAL_GPIO_Init+0x1c>
      }
    }
  }
}
 8003100:	bf00      	nop
 8003102:	bf00      	nop
 8003104:	3724      	adds	r7, #36	; 0x24
 8003106:	46bd      	mov	sp, r7
 8003108:	f85d 7b04 	ldr.w	r7, [sp], #4
 800310c:	4770      	bx	lr
 800310e:	bf00      	nop
 8003110:	40023800 	.word	0x40023800
 8003114:	40013800 	.word	0x40013800
 8003118:	40020000 	.word	0x40020000
 800311c:	40020400 	.word	0x40020400
 8003120:	40020800 	.word	0x40020800
 8003124:	40020c00 	.word	0x40020c00
 8003128:	40021000 	.word	0x40021000
 800312c:	40021400 	.word	0x40021400
 8003130:	40021800 	.word	0x40021800
 8003134:	40021c00 	.word	0x40021c00
 8003138:	40013c00 	.word	0x40013c00

0800313c <HAL_GPIO_DeInit>:
  * @param  GPIO_Pin specifies the port bit to be written.
  *          This parameter can be one of GPIO_PIN_x where x can be (0..15).
  * @retval None
  */
void HAL_GPIO_DeInit(GPIO_TypeDef  *GPIOx, uint32_t GPIO_Pin)
{
 800313c:	b480      	push	{r7}
 800313e:	b087      	sub	sp, #28
 8003140:	af00      	add	r7, sp, #0
 8003142:	6078      	str	r0, [r7, #4]
 8003144:	6039      	str	r1, [r7, #0]
  uint32_t position;
  uint32_t ioposition = 0x00U;
 8003146:	2300      	movs	r3, #0
 8003148:	613b      	str	r3, [r7, #16]
  uint32_t iocurrent = 0x00U;
 800314a:	2300      	movs	r3, #0
 800314c:	60fb      	str	r3, [r7, #12]
  uint32_t tmp = 0x00U;
 800314e:	2300      	movs	r3, #0
 8003150:	60bb      	str	r3, [r7, #8]

  /* Check the parameters */
  assert_param(IS_GPIO_ALL_INSTANCE(GPIOx));
  
  /* Configure the port pins */
  for(position = 0U; position < GPIO_NUMBER; position++)
 8003152:	2300      	movs	r3, #0
 8003154:	617b      	str	r3, [r7, #20]
 8003156:	e0cd      	b.n	80032f4 <HAL_GPIO_DeInit+0x1b8>
  {
    /* Get the IO position */
    ioposition = 0x01U << position;
 8003158:	2201      	movs	r2, #1
 800315a:	697b      	ldr	r3, [r7, #20]
 800315c:	fa02 f303 	lsl.w	r3, r2, r3
 8003160:	613b      	str	r3, [r7, #16]
    /* Get the current IO position */
    iocurrent = (GPIO_Pin) & ioposition;
 8003162:	683a      	ldr	r2, [r7, #0]
 8003164:	693b      	ldr	r3, [r7, #16]
 8003166:	4013      	ands	r3, r2
 8003168:	60fb      	str	r3, [r7, #12]

    if(iocurrent == ioposition)
 800316a:	68fa      	ldr	r2, [r7, #12]
 800316c:	693b      	ldr	r3, [r7, #16]
 800316e:	429a      	cmp	r2, r3
 8003170:	f040 80bd 	bne.w	80032ee <HAL_GPIO_DeInit+0x1b2>
    {
      /*------------------------- EXTI Mode Configuration --------------------*/
      tmp = SYSCFG->EXTICR[position >> 2U];
 8003174:	4a65      	ldr	r2, [pc, #404]	; (800330c <HAL_GPIO_DeInit+0x1d0>)
 8003176:	697b      	ldr	r3, [r7, #20]
 8003178:	089b      	lsrs	r3, r3, #2
 800317a:	3302      	adds	r3, #2
 800317c:	f852 3023 	ldr.w	r3, [r2, r3, lsl #2]
 8003180:	60bb      	str	r3, [r7, #8]
      tmp &= (0x0FU << (4U * (position & 0x03U)));
 8003182:	697b      	ldr	r3, [r7, #20]
 8003184:	f003 0303 	and.w	r3, r3, #3
 8003188:	009b      	lsls	r3, r3, #2
 800318a:	220f      	movs	r2, #15
 800318c:	fa02 f303 	lsl.w	r3, r2, r3
 8003190:	68ba      	ldr	r2, [r7, #8]
 8003192:	4013      	ands	r3, r2
 8003194:	60bb      	str	r3, [r7, #8]
      if(tmp == ((uint32_t)(GPIO_GET_INDEX(GPIOx)) << (4U * (position & 0x03U))))
 8003196:	687b      	ldr	r3, [r7, #4]
 8003198:	4a5d      	ldr	r2, [pc, #372]	; (8003310 <HAL_GPIO_DeInit+0x1d4>)
 800319a:	4293      	cmp	r3, r2
 800319c:	d02b      	beq.n	80031f6 <HAL_GPIO_DeInit+0xba>
 800319e:	687b      	ldr	r3, [r7, #4]
 80031a0:	4a5c      	ldr	r2, [pc, #368]	; (8003314 <HAL_GPIO_DeInit+0x1d8>)
 80031a2:	4293      	cmp	r3, r2
 80031a4:	d025      	beq.n	80031f2 <HAL_GPIO_DeInit+0xb6>
 80031a6:	687b      	ldr	r3, [r7, #4]
 80031a8:	4a5b      	ldr	r2, [pc, #364]	; (8003318 <HAL_GPIO_DeInit+0x1dc>)
 80031aa:	4293      	cmp	r3, r2
 80031ac:	d01f      	beq.n	80031ee <HAL_GPIO_DeInit+0xb2>
 80031ae:	687b      	ldr	r3, [r7, #4]
 80031b0:	4a5a      	ldr	r2, [pc, #360]	; (800331c <HAL_GPIO_DeInit+0x1e0>)
 80031b2:	4293      	cmp	r3, r2
 80031b4:	d019      	beq.n	80031ea <HAL_GPIO_DeInit+0xae>
 80031b6:	687b      	ldr	r3, [r7, #4]
 80031b8:	4a59      	ldr	r2, [pc, #356]	; (8003320 <HAL_GPIO_DeInit+0x1e4>)
 80031ba:	4293      	cmp	r3, r2
 80031bc:	d013      	beq.n	80031e6 <HAL_GPIO_DeInit+0xaa>
 80031be:	687b      	ldr	r3, [r7, #4]
 80031c0:	4a58      	ldr	r2, [pc, #352]	; (8003324 <HAL_GPIO_DeInit+0x1e8>)
 80031c2:	4293      	cmp	r3, r2
 80031c4:	d00d      	beq.n	80031e2 <HAL_GPIO_DeInit+0xa6>
 80031c6:	687b      	ldr	r3, [r7, #4]
 80031c8:	4a57      	ldr	r2, [pc, #348]	; (8003328 <HAL_GPIO_DeInit+0x1ec>)
 80031ca:	4293      	cmp	r3, r2
 80031cc:	d007      	beq.n	80031de <HAL_GPIO_DeInit+0xa2>
 80031ce:	687b      	ldr	r3, [r7, #4]
 80031d0:	4a56      	ldr	r2, [pc, #344]	; (800332c <HAL_GPIO_DeInit+0x1f0>)
 80031d2:	4293      	cmp	r3, r2
 80031d4:	d101      	bne.n	80031da <HAL_GPIO_DeInit+0x9e>
 80031d6:	2307      	movs	r3, #7
 80031d8:	e00e      	b.n	80031f8 <HAL_GPIO_DeInit+0xbc>
 80031da:	2308      	movs	r3, #8
 80031dc:	e00c      	b.n	80031f8 <HAL_GPIO_DeInit+0xbc>
 80031de:	2306      	movs	r3, #6
 80031e0:	e00a      	b.n	80031f8 <HAL_GPIO_DeInit+0xbc>
 80031e2:	2305      	movs	r3, #5
 80031e4:	e008      	b.n	80031f8 <HAL_GPIO_DeInit+0xbc>
 80031e6:	2304      	movs	r3, #4
 80031e8:	e006      	b.n	80031f8 <HAL_GPIO_DeInit+0xbc>
 80031ea:	2303      	movs	r3, #3
 80031ec:	e004      	b.n	80031f8 <HAL_GPIO_DeInit+0xbc>
 80031ee:	2302      	movs	r3, #2
 80031f0:	e002      	b.n	80031f8 <HAL_GPIO_DeInit+0xbc>
 80031f2:	2301      	movs	r3, #1
 80031f4:	e000      	b.n	80031f8 <HAL_GPIO_DeInit+0xbc>
 80031f6:	2300      	movs	r3, #0
 80031f8:	697a      	ldr	r2, [r7, #20]
 80031fa:	f002 0203 	and.w	r2, r2, #3
 80031fe:	0092      	lsls	r2, r2, #2
 8003200:	4093      	lsls	r3, r2
 8003202:	68ba      	ldr	r2, [r7, #8]
 8003204:	429a      	cmp	r2, r3
 8003206:	d132      	bne.n	800326e <HAL_GPIO_DeInit+0x132>
      {
        /* Clear EXTI line configuration */
        EXTI->IMR &= ~((uint32_t)iocurrent);
 8003208:	4b49      	ldr	r3, [pc, #292]	; (8003330 <HAL_GPIO_DeInit+0x1f4>)
 800320a:	681a      	ldr	r2, [r3, #0]
 800320c:	68fb      	ldr	r3, [r7, #12]
 800320e:	43db      	mvns	r3, r3
 8003210:	4947      	ldr	r1, [pc, #284]	; (8003330 <HAL_GPIO_DeInit+0x1f4>)
 8003212:	4013      	ands	r3, r2
 8003214:	600b      	str	r3, [r1, #0]
        EXTI->EMR &= ~((uint32_t)iocurrent);
 8003216:	4b46      	ldr	r3, [pc, #280]	; (8003330 <HAL_GPIO_DeInit+0x1f4>)
 8003218:	685a      	ldr	r2, [r3, #4]
 800321a:	68fb      	ldr	r3, [r7, #12]
 800321c:	43db      	mvns	r3, r3
 800321e:	4944      	ldr	r1, [pc, #272]	; (8003330 <HAL_GPIO_DeInit+0x1f4>)
 8003220:	4013      	ands	r3, r2
 8003222:	604b      	str	r3, [r1, #4]
        
        /* Clear Rising Falling edge configuration */
        EXTI->FTSR &= ~((uint32_t)iocurrent);
 8003224:	4b42      	ldr	r3, [pc, #264]	; (8003330 <HAL_GPIO_DeInit+0x1f4>)
 8003226:	68da      	ldr	r2, [r3, #12]
 8003228:	68fb      	ldr	r3, [r7, #12]
 800322a:	43db      	mvns	r3, r3
 800322c:	4940      	ldr	r1, [pc, #256]	; (8003330 <HAL_GPIO_DeInit+0x1f4>)
 800322e:	4013      	ands	r3, r2
 8003230:	60cb      	str	r3, [r1, #12]
        EXTI->RTSR &= ~((uint32_t)iocurrent);
 8003232:	4b3f      	ldr	r3, [pc, #252]	; (8003330 <HAL_GPIO_DeInit+0x1f4>)
 8003234:	689a      	ldr	r2, [r3, #8]
 8003236:	68fb      	ldr	r3, [r7, #12]
 8003238:	43db      	mvns	r3, r3
 800323a:	493d      	ldr	r1, [pc, #244]	; (8003330 <HAL_GPIO_DeInit+0x1f4>)
 800323c:	4013      	ands	r3, r2
 800323e:	608b      	str	r3, [r1, #8]

        /* Configure the External Interrupt or event for the current IO */
        tmp = 0x0FU << (4U * (position & 0x03U));
 8003240:	697b      	ldr	r3, [r7, #20]
 8003242:	f003 0303 	and.w	r3, r3, #3
 8003246:	009b      	lsls	r3, r3, #2
 8003248:	220f      	movs	r2, #15
 800324a:	fa02 f303 	lsl.w	r3, r2, r3
 800324e:	60bb      	str	r3, [r7, #8]
        SYSCFG->EXTICR[position >> 2U] &= ~tmp;
 8003250:	4a2e      	ldr	r2, [pc, #184]	; (800330c <HAL_GPIO_DeInit+0x1d0>)
 8003252:	697b      	ldr	r3, [r7, #20]
 8003254:	089b      	lsrs	r3, r3, #2
 8003256:	3302      	adds	r3, #2
 8003258:	f852 1023 	ldr.w	r1, [r2, r3, lsl #2]
 800325c:	68bb      	ldr	r3, [r7, #8]
 800325e:	43da      	mvns	r2, r3
 8003260:	482a      	ldr	r0, [pc, #168]	; (800330c <HAL_GPIO_DeInit+0x1d0>)
 8003262:	697b      	ldr	r3, [r7, #20]
 8003264:	089b      	lsrs	r3, r3, #2
 8003266:	400a      	ands	r2, r1
 8003268:	3302      	adds	r3, #2
 800326a:	f840 2023 	str.w	r2, [r0, r3, lsl #2]
      }

      /*------------------------- GPIO Mode Configuration --------------------*/
      /* Configure IO Direction in Input Floating Mode */
      GPIOx->MODER &= ~(GPIO_MODER_MODER0 << (position * 2U));
 800326e:	687b      	ldr	r3, [r7, #4]
 8003270:	681a      	ldr	r2, [r3, #0]
 8003272:	697b      	ldr	r3, [r7, #20]
 8003274:	005b      	lsls	r3, r3, #1
 8003276:	2103      	movs	r1, #3
 8003278:	fa01 f303 	lsl.w	r3, r1, r3
 800327c:	43db      	mvns	r3, r3
 800327e:	401a      	ands	r2, r3
 8003280:	687b      	ldr	r3, [r7, #4]
 8003282:	601a      	str	r2, [r3, #0]

      /* Configure the default Alternate Function in current IO */
      GPIOx->AFR[position >> 3U] &= ~(0xFU << ((uint32_t)(position & 0x07U) * 4U)) ;
 8003284:	697b      	ldr	r3, [r7, #20]
 8003286:	08da      	lsrs	r2, r3, #3
 8003288:	687b      	ldr	r3, [r7, #4]
 800328a:	3208      	adds	r2, #8
 800328c:	f853 1022 	ldr.w	r1, [r3, r2, lsl #2]
 8003290:	697b      	ldr	r3, [r7, #20]
 8003292:	f003 0307 	and.w	r3, r3, #7
 8003296:	009b      	lsls	r3, r3, #2
 8003298:	220f      	movs	r2, #15
 800329a:	fa02 f303 	lsl.w	r3, r2, r3
 800329e:	43db      	mvns	r3, r3
 80032a0:	697a      	ldr	r2, [r7, #20]
 80032a2:	08d2      	lsrs	r2, r2, #3
 80032a4:	4019      	ands	r1, r3
 80032a6:	687b      	ldr	r3, [r7, #4]
 80032a8:	3208      	adds	r2, #8
 80032aa:	f843 1022 	str.w	r1, [r3, r2, lsl #2]

      /* Deactivate the Pull-up and Pull-down resistor for the current IO */
      GPIOx->PUPDR &= ~(GPIO_PUPDR_PUPDR0 << (position * 2U));
 80032ae:	687b      	ldr	r3, [r7, #4]
 80032b0:	68da      	ldr	r2, [r3, #12]
 80032b2:	697b      	ldr	r3, [r7, #20]
 80032b4:	005b      	lsls	r3, r3, #1
 80032b6:	2103      	movs	r1, #3
 80032b8:	fa01 f303 	lsl.w	r3, r1, r3
 80032bc:	43db      	mvns	r3, r3
 80032be:	401a      	ands	r2, r3
 80032c0:	687b      	ldr	r3, [r7, #4]
 80032c2:	60da      	str	r2, [r3, #12]

      /* Configure the default value IO Output Type */
      GPIOx->OTYPER  &= ~(GPIO_OTYPER_OT_0 << position) ;
 80032c4:	687b      	ldr	r3, [r7, #4]
 80032c6:	685a      	ldr	r2, [r3, #4]
 80032c8:	2101      	movs	r1, #1
 80032ca:	697b      	ldr	r3, [r7, #20]
 80032cc:	fa01 f303 	lsl.w	r3, r1, r3
 80032d0:	43db      	mvns	r3, r3
 80032d2:	401a      	ands	r2, r3
 80032d4:	687b      	ldr	r3, [r7, #4]
 80032d6:	605a      	str	r2, [r3, #4]

      /* Configure the default value for IO Speed */
      GPIOx->OSPEEDR &= ~(GPIO_OSPEEDER_OSPEEDR0 << (position * 2U));
 80032d8:	687b      	ldr	r3, [r7, #4]
 80032da:	689a      	ldr	r2, [r3, #8]
 80032dc:	697b      	ldr	r3, [r7, #20]
 80032de:	005b      	lsls	r3, r3, #1
 80032e0:	2103      	movs	r1, #3
 80032e2:	fa01 f303 	lsl.w	r3, r1, r3
 80032e6:	43db      	mvns	r3, r3
 80032e8:	401a      	ands	r2, r3
 80032ea:	687b      	ldr	r3, [r7, #4]
 80032ec:	609a      	str	r2, [r3, #8]
  for(position = 0U; position < GPIO_NUMBER; position++)
 80032ee:	697b      	ldr	r3, [r7, #20]
 80032f0:	3301      	adds	r3, #1
 80032f2:	617b      	str	r3, [r7, #20]
 80032f4:	697b      	ldr	r3, [r7, #20]
 80032f6:	2b0f      	cmp	r3, #15
 80032f8:	f67f af2e 	bls.w	8003158 <HAL_GPIO_DeInit+0x1c>
    }
  }
}
 80032fc:	bf00      	nop
 80032fe:	bf00      	nop
 8003300:	371c      	adds	r7, #28
 8003302:	46bd      	mov	sp, r7
 8003304:	f85d 7b04 	ldr.w	r7, [sp], #4
 8003308:	4770      	bx	lr
 800330a:	bf00      	nop
 800330c:	40013800 	.word	0x40013800
 8003310:	40020000 	.word	0x40020000
 8003314:	40020400 	.word	0x40020400
 8003318:	40020800 	.word	0x40020800
 800331c:	40020c00 	.word	0x40020c00
 8003320:	40021000 	.word	0x40021000
 8003324:	40021400 	.word	0x40021400
 8003328:	40021800 	.word	0x40021800
 800332c:	40021c00 	.word	0x40021c00
 8003330:	40013c00 	.word	0x40013c00

08003334 <HAL_GPIO_WritePin>:
  *            @arg GPIO_PIN_RESET: to clear the port pin
  *            @arg GPIO_PIN_SET: to set the port pin
  * @retval None
  */
void HAL_GPIO_WritePin(GPIO_TypeDef* GPIOx, uint16_t GPIO_Pin, GPIO_PinState PinState)
{
 8003334:	b480      	push	{r7}
 8003336:	b083      	sub	sp, #12
 8003338:	af00      	add	r7, sp, #0
 800333a:	6078      	str	r0, [r7, #4]
 800333c:	460b      	mov	r3, r1
 800333e:	807b      	strh	r3, [r7, #2]
 8003340:	4613      	mov	r3, r2
 8003342:	707b      	strb	r3, [r7, #1]
  /* Check the parameters */
  assert_param(IS_GPIO_PIN(GPIO_Pin));
  assert_param(IS_GPIO_PIN_ACTION(PinState));

  if(PinState != GPIO_PIN_RESET)
 8003344:	787b      	ldrb	r3, [r7, #1]
 8003346:	2b00      	cmp	r3, #0
 8003348:	d003      	beq.n	8003352 <HAL_GPIO_WritePin+0x1e>
  {
    GPIOx->BSRR = GPIO_Pin;
 800334a:	887a      	ldrh	r2, [r7, #2]
 800334c:	687b      	ldr	r3, [r7, #4]
 800334e:	619a      	str	r2, [r3, #24]
  }
  else
  {
    GPIOx->BSRR = (uint32_t)GPIO_Pin << 16U;
  }
}
 8003350:	e003      	b.n	800335a <HAL_GPIO_WritePin+0x26>
    GPIOx->BSRR = (uint32_t)GPIO_Pin << 16U;
 8003352:	887b      	ldrh	r3, [r7, #2]
 8003354:	041a      	lsls	r2, r3, #16
 8003356:	687b      	ldr	r3, [r7, #4]
 8003358:	619a      	str	r2, [r3, #24]
}
 800335a:	bf00      	nop
 800335c:	370c      	adds	r7, #12
 800335e:	46bd      	mov	sp, r7
 8003360:	f85d 7b04 	ldr.w	r7, [sp], #4
 8003364:	4770      	bx	lr
	...

08003368 <HAL_GPIO_EXTI_IRQHandler>:
  * @brief  This function handles EXTI interrupt request.
  * @param  GPIO_Pin Specifies the pins connected EXTI line
  * @retval None
  */
void HAL_GPIO_EXTI_IRQHandler(uint16_t GPIO_Pin)
{
 8003368:	b580      	push	{r7, lr}
 800336a:	b082      	sub	sp, #8
 800336c:	af00      	add	r7, sp, #0
 800336e:	4603      	mov	r3, r0
 8003370:	80fb      	strh	r3, [r7, #6]
  /* EXTI line interrupt detected */
  if(__HAL_GPIO_EXTI_GET_IT(GPIO_Pin) != RESET)
 8003372:	4b08      	ldr	r3, [pc, #32]	; (8003394 <HAL_GPIO_EXTI_IRQHandler+0x2c>)
 8003374:	695a      	ldr	r2, [r3, #20]
 8003376:	88fb      	ldrh	r3, [r7, #6]
 8003378:	4013      	ands	r3, r2
 800337a:	2b00      	cmp	r3, #0
 800337c:	d006      	beq.n	800338c <HAL_GPIO_EXTI_IRQHandler+0x24>
  {
    __HAL_GPIO_EXTI_CLEAR_IT(GPIO_Pin);
 800337e:	4a05      	ldr	r2, [pc, #20]	; (8003394 <HAL_GPIO_EXTI_IRQHandler+0x2c>)
 8003380:	88fb      	ldrh	r3, [r7, #6]
 8003382:	6153      	str	r3, [r2, #20]
    HAL_GPIO_EXTI_Callback(GPIO_Pin);
 8003384:	88fb      	ldrh	r3, [r7, #6]
 8003386:	4618      	mov	r0, r3
 8003388:	f7fe fc7a 	bl	8001c80 <HAL_GPIO_EXTI_Callback>
  }
}
 800338c:	bf00      	nop
 800338e:	3708      	adds	r7, #8
 8003390:	46bd      	mov	sp, r7
 8003392:	bd80      	pop	{r7, pc}
 8003394:	40013c00 	.word	0x40013c00

08003398 <HAL_I2C_Init>:
  * @param  hi2c Pointer to a I2C_HandleTypeDef structure that contains
  *                the configuration information for the specified I2C.
  * @retval HAL status
  */
HAL_StatusTypeDef HAL_I2C_Init(I2C_HandleTypeDef *hi2c)
{
 8003398:	b580      	push	{r7, lr}
 800339a:	b084      	sub	sp, #16
 800339c:	af00      	add	r7, sp, #0
 800339e:	6078      	str	r0, [r7, #4]
  uint32_t freqrange;
  uint32_t pclk1;

  /* Check the I2C handle allocation */
  if (hi2c == NULL)
 80033a0:	687b      	ldr	r3, [r7, #4]
 80033a2:	2b00      	cmp	r3, #0
 80033a4:	d101      	bne.n	80033aa <HAL_I2C_Init+0x12>
  {
    return HAL_ERROR;
 80033a6:	2301      	movs	r3, #1
 80033a8:	e12b      	b.n	8003602 <HAL_I2C_Init+0x26a>
  assert_param(IS_I2C_DUAL_ADDRESS(hi2c->Init.DualAddressMode));
  assert_param(IS_I2C_OWN_ADDRESS2(hi2c->Init.OwnAddress2));
  assert_param(IS_I2C_GENERAL_CALL(hi2c->Init.GeneralCallMode));
  assert_param(IS_I2C_NO_STRETCH(hi2c->Init.NoStretchMode));

  if (hi2c->State == HAL_I2C_STATE_RESET)
 80033aa:	687b      	ldr	r3, [r7, #4]
 80033ac:	f893 303d 	ldrb.w	r3, [r3, #61]	; 0x3d
 80033b0:	b2db      	uxtb	r3, r3
 80033b2:	2b00      	cmp	r3, #0
 80033b4:	d106      	bne.n	80033c4 <HAL_I2C_Init+0x2c>
  {
    /* Allocate lock resource and initialize it */
    hi2c->Lock = HAL_UNLOCKED;
 80033b6:	687b      	ldr	r3, [r7, #4]
 80033b8:	2200      	movs	r2, #0
 80033ba:	f883 203c 	strb.w	r2, [r3, #60]	; 0x3c

    /* Init the low level hardware : GPIO, CLOCK, NVIC */
    hi2c->MspInitCallback(hi2c);
#else
    /* Init the low level hardware : GPIO, CLOCK, NVIC */
    HAL_I2C_MspInit(hi2c);
 80033be:	6878      	ldr	r0, [r7, #4]
 80033c0:	f7ff f92e 	bl	8002620 <HAL_I2C_MspInit>
#endif /* USE_HAL_I2C_REGISTER_CALLBACKS */
  }

  hi2c->State = HAL_I2C_STATE_BUSY;
 80033c4:	687b      	ldr	r3, [r7, #4]
 80033c6:	2224      	movs	r2, #36	; 0x24
 80033c8:	f883 203d 	strb.w	r2, [r3, #61]	; 0x3d

  /* Disable the selected I2C peripheral */
  __HAL_I2C_DISABLE(hi2c);
 80033cc:	687b      	ldr	r3, [r7, #4]
 80033ce:	681b      	ldr	r3, [r3, #0]
 80033d0:	681a      	ldr	r2, [r3, #0]
 80033d2:	687b      	ldr	r3, [r7, #4]
 80033d4:	681b      	ldr	r3, [r3, #0]
 80033d6:	f022 0201 	bic.w	r2, r2, #1
 80033da:	601a      	str	r2, [r3, #0]

  /*Reset I2C*/
  hi2c->Instance->CR1 |= I2C_CR1_SWRST;
 80033dc:	687b      	ldr	r3, [r7, #4]
 80033de:	681b      	ldr	r3, [r3, #0]
 80033e0:	681a      	ldr	r2, [r3, #0]
 80033e2:	687b      	ldr	r3, [r7, #4]
 80033e4:	681b      	ldr	r3, [r3, #0]
 80033e6:	f442 4200 	orr.w	r2, r2, #32768	; 0x8000
 80033ea:	601a      	str	r2, [r3, #0]
  hi2c->Instance->CR1 &= ~I2C_CR1_SWRST;
 80033ec:	687b      	ldr	r3, [r7, #4]
 80033ee:	681b      	ldr	r3, [r3, #0]
 80033f0:	681a      	ldr	r2, [r3, #0]
 80033f2:	687b      	ldr	r3, [r7, #4]
 80033f4:	681b      	ldr	r3, [r3, #0]
 80033f6:	f422 4200 	bic.w	r2, r2, #32768	; 0x8000
 80033fa:	601a      	str	r2, [r3, #0]

  /* Get PCLK1 frequency */
  pclk1 = HAL_RCC_GetPCLK1Freq();
 80033fc:	f001 f848 	bl	8004490 <HAL_RCC_GetPCLK1Freq>
 8003400:	60f8      	str	r0, [r7, #12]

  /* Check the minimum allowed PCLK1 frequency */
  if (I2C_MIN_PCLK_FREQ(pclk1, hi2c->Init.ClockSpeed) == 1U)
 8003402:	687b      	ldr	r3, [r7, #4]
 8003404:	685b      	ldr	r3, [r3, #4]
 8003406:	4a81      	ldr	r2, [pc, #516]	; (800360c <HAL_I2C_Init+0x274>)
 8003408:	4293      	cmp	r3, r2
 800340a:	d807      	bhi.n	800341c <HAL_I2C_Init+0x84>
 800340c:	68fb      	ldr	r3, [r7, #12]
 800340e:	4a80      	ldr	r2, [pc, #512]	; (8003610 <HAL_I2C_Init+0x278>)
 8003410:	4293      	cmp	r3, r2
 8003412:	bf94      	ite	ls
 8003414:	2301      	movls	r3, #1
 8003416:	2300      	movhi	r3, #0
 8003418:	b2db      	uxtb	r3, r3
 800341a:	e006      	b.n	800342a <HAL_I2C_Init+0x92>
 800341c:	68fb      	ldr	r3, [r7, #12]
 800341e:	4a7d      	ldr	r2, [pc, #500]	; (8003614 <HAL_I2C_Init+0x27c>)
 8003420:	4293      	cmp	r3, r2
 8003422:	bf94      	ite	ls
 8003424:	2301      	movls	r3, #1
 8003426:	2300      	movhi	r3, #0
 8003428:	b2db      	uxtb	r3, r3
 800342a:	2b00      	cmp	r3, #0
 800342c:	d001      	beq.n	8003432 <HAL_I2C_Init+0x9a>
  {
    return HAL_ERROR;
 800342e:	2301      	movs	r3, #1
 8003430:	e0e7      	b.n	8003602 <HAL_I2C_Init+0x26a>
  }

  /* Calculate frequency range */
  freqrange = I2C_FREQRANGE(pclk1);
 8003432:	68fb      	ldr	r3, [r7, #12]
 8003434:	4a78      	ldr	r2, [pc, #480]	; (8003618 <HAL_I2C_Init+0x280>)
 8003436:	fba2 2303 	umull	r2, r3, r2, r3
 800343a:	0c9b      	lsrs	r3, r3, #18
 800343c:	60bb      	str	r3, [r7, #8]

  /*---------------------------- I2Cx CR2 Configuration ----------------------*/
  /* Configure I2Cx: Frequency range */
  MODIFY_REG(hi2c->Instance->CR2, I2C_CR2_FREQ, freqrange);
 800343e:	687b      	ldr	r3, [r7, #4]
 8003440:	681b      	ldr	r3, [r3, #0]
 8003442:	685b      	ldr	r3, [r3, #4]
 8003444:	f023 013f 	bic.w	r1, r3, #63	; 0x3f
 8003448:	687b      	ldr	r3, [r7, #4]
 800344a:	681b      	ldr	r3, [r3, #0]
 800344c:	68ba      	ldr	r2, [r7, #8]
 800344e:	430a      	orrs	r2, r1
 8003450:	605a      	str	r2, [r3, #4]

  /*---------------------------- I2Cx TRISE Configuration --------------------*/
  /* Configure I2Cx: Rise Time */
  MODIFY_REG(hi2c->Instance->TRISE, I2C_TRISE_TRISE, I2C_RISE_TIME(freqrange, hi2c->Init.ClockSpeed));
 8003452:	687b      	ldr	r3, [r7, #4]
 8003454:	681b      	ldr	r3, [r3, #0]
 8003456:	6a1b      	ldr	r3, [r3, #32]
 8003458:	f023 013f 	bic.w	r1, r3, #63	; 0x3f
 800345c:	687b      	ldr	r3, [r7, #4]
 800345e:	685b      	ldr	r3, [r3, #4]
 8003460:	4a6a      	ldr	r2, [pc, #424]	; (800360c <HAL_I2C_Init+0x274>)
 8003462:	4293      	cmp	r3, r2
 8003464:	d802      	bhi.n	800346c <HAL_I2C_Init+0xd4>
 8003466:	68bb      	ldr	r3, [r7, #8]
 8003468:	3301      	adds	r3, #1
 800346a:	e009      	b.n	8003480 <HAL_I2C_Init+0xe8>
 800346c:	68bb      	ldr	r3, [r7, #8]
 800346e:	f44f 7296 	mov.w	r2, #300	; 0x12c
 8003472:	fb02 f303 	mul.w	r3, r2, r3
 8003476:	4a69      	ldr	r2, [pc, #420]	; (800361c <HAL_I2C_Init+0x284>)
 8003478:	fba2 2303 	umull	r2, r3, r2, r3
 800347c:	099b      	lsrs	r3, r3, #6
 800347e:	3301      	adds	r3, #1
 8003480:	687a      	ldr	r2, [r7, #4]
 8003482:	6812      	ldr	r2, [r2, #0]
 8003484:	430b      	orrs	r3, r1
 8003486:	6213      	str	r3, [r2, #32]

  /*---------------------------- I2Cx CCR Configuration ----------------------*/
  /* Configure I2Cx: Speed */
  MODIFY_REG(hi2c->Instance->CCR, (I2C_CCR_FS | I2C_CCR_DUTY | I2C_CCR_CCR), I2C_SPEED(pclk1, hi2c->Init.ClockSpeed, hi2c->Init.DutyCycle));
 8003488:	687b      	ldr	r3, [r7, #4]
 800348a:	681b      	ldr	r3, [r3, #0]
 800348c:	69db      	ldr	r3, [r3, #28]
 800348e:	f423 424f 	bic.w	r2, r3, #52992	; 0xcf00
 8003492:	f022 02ff 	bic.w	r2, r2, #255	; 0xff
 8003496:	687b      	ldr	r3, [r7, #4]
 8003498:	685b      	ldr	r3, [r3, #4]
 800349a:	495c      	ldr	r1, [pc, #368]	; (800360c <HAL_I2C_Init+0x274>)
 800349c:	428b      	cmp	r3, r1
 800349e:	d819      	bhi.n	80034d4 <HAL_I2C_Init+0x13c>
 80034a0:	68fb      	ldr	r3, [r7, #12]
 80034a2:	1e59      	subs	r1, r3, #1
 80034a4:	687b      	ldr	r3, [r7, #4]
 80034a6:	685b      	ldr	r3, [r3, #4]
 80034a8:	005b      	lsls	r3, r3, #1
 80034aa:	fbb1 f3f3 	udiv	r3, r1, r3
 80034ae:	1c59      	adds	r1, r3, #1
 80034b0:	f640 73fc 	movw	r3, #4092	; 0xffc
 80034b4:	400b      	ands	r3, r1
 80034b6:	2b00      	cmp	r3, #0
 80034b8:	d00a      	beq.n	80034d0 <HAL_I2C_Init+0x138>
 80034ba:	68fb      	ldr	r3, [r7, #12]
 80034bc:	1e59      	subs	r1, r3, #1
 80034be:	687b      	ldr	r3, [r7, #4]
 80034c0:	685b      	ldr	r3, [r3, #4]
 80034c2:	005b      	lsls	r3, r3, #1
 80034c4:	fbb1 f3f3 	udiv	r3, r1, r3
 80034c8:	3301      	adds	r3, #1
 80034ca:	f3c3 030b 	ubfx	r3, r3, #0, #12
 80034ce:	e051      	b.n	8003574 <HAL_I2C_Init+0x1dc>
 80034d0:	2304      	movs	r3, #4
 80034d2:	e04f      	b.n	8003574 <HAL_I2C_Init+0x1dc>
 80034d4:	687b      	ldr	r3, [r7, #4]
 80034d6:	689b      	ldr	r3, [r3, #8]
 80034d8:	2b00      	cmp	r3, #0
 80034da:	d111      	bne.n	8003500 <HAL_I2C_Init+0x168>
 80034dc:	68fb      	ldr	r3, [r7, #12]
 80034de:	1e58      	subs	r0, r3, #1
 80034e0:	687b      	ldr	r3, [r7, #4]
 80034e2:	6859      	ldr	r1, [r3, #4]
 80034e4:	460b      	mov	r3, r1
 80034e6:	005b      	lsls	r3, r3, #1
 80034e8:	440b      	add	r3, r1
 80034ea:	fbb0 f3f3 	udiv	r3, r0, r3
 80034ee:	3301      	adds	r3, #1
 80034f0:	f3c3 030b 	ubfx	r3, r3, #0, #12
 80034f4:	2b00      	cmp	r3, #0
 80034f6:	bf0c      	ite	eq
 80034f8:	2301      	moveq	r3, #1
 80034fa:	2300      	movne	r3, #0
 80034fc:	b2db      	uxtb	r3, r3
 80034fe:	e012      	b.n	8003526 <HAL_I2C_Init+0x18e>
 8003500:	68fb      	ldr	r3, [r7, #12]
 8003502:	1e58      	subs	r0, r3, #1
 8003504:	687b      	ldr	r3, [r7, #4]
 8003506:	6859      	ldr	r1, [r3, #4]
 8003508:	460b      	mov	r3, r1
 800350a:	009b      	lsls	r3, r3, #2
 800350c:	440b      	add	r3, r1
 800350e:	0099      	lsls	r1, r3, #2
 8003510:	440b      	add	r3, r1
 8003512:	fbb0 f3f3 	udiv	r3, r0, r3
 8003516:	3301      	adds	r3, #1
 8003518:	f3c3 030b 	ubfx	r3, r3, #0, #12
 800351c:	2b00      	cmp	r3, #0
 800351e:	bf0c      	ite	eq
 8003520:	2301      	moveq	r3, #1
 8003522:	2300      	movne	r3, #0
 8003524:	b2db      	uxtb	r3, r3
 8003526:	2b00      	cmp	r3, #0
 8003528:	d001      	beq.n	800352e <HAL_I2C_Init+0x196>
 800352a:	2301      	movs	r3, #1
 800352c:	e022      	b.n	8003574 <HAL_I2C_Init+0x1dc>
 800352e:	687b      	ldr	r3, [r7, #4]
 8003530:	689b      	ldr	r3, [r3, #8]
 8003532:	2b00      	cmp	r3, #0
 8003534:	d10e      	bne.n	8003554 <HAL_I2C_Init+0x1bc>
 8003536:	68fb      	ldr	r3, [r7, #12]
 8003538:	1e58      	subs	r0, r3, #1
 800353a:	687b      	ldr	r3, [r7, #4]
 800353c:	6859      	ldr	r1, [r3, #4]
 800353e:	460b      	mov	r3, r1
 8003540:	005b      	lsls	r3, r3, #1
 8003542:	440b      	add	r3, r1
 8003544:	fbb0 f3f3 	udiv	r3, r0, r3
 8003548:	3301      	adds	r3, #1
 800354a:	f3c3 030b 	ubfx	r3, r3, #0, #12
 800354e:	f443 4300 	orr.w	r3, r3, #32768	; 0x8000
 8003552:	e00f      	b.n	8003574 <HAL_I2C_Init+0x1dc>
 8003554:	68fb      	ldr	r3, [r7, #12]
 8003556:	1e58      	subs	r0, r3, #1
 8003558:	687b      	ldr	r3, [r7, #4]
 800355a:	6859      	ldr	r1, [r3, #4]
 800355c:	460b      	mov	r3, r1
 800355e:	009b      	lsls	r3, r3, #2
 8003560:	440b      	add	r3, r1
 8003562:	0099      	lsls	r1, r3, #2
 8003564:	440b      	add	r3, r1
 8003566:	fbb0 f3f3 	udiv	r3, r0, r3
 800356a:	3301      	adds	r3, #1
 800356c:	f3c3 030b 	ubfx	r3, r3, #0, #12
 8003570:	f443 4340 	orr.w	r3, r3, #49152	; 0xc000
 8003574:	6879      	ldr	r1, [r7, #4]
 8003576:	6809      	ldr	r1, [r1, #0]
 8003578:	4313      	orrs	r3, r2
 800357a:	61cb      	str	r3, [r1, #28]

  /*---------------------------- I2Cx CR1 Configuration ----------------------*/
  /* Configure I2Cx: Generalcall and NoStretch mode */
  MODIFY_REG(hi2c->Instance->CR1, (I2C_CR1_ENGC | I2C_CR1_NOSTRETCH), (hi2c->Init.GeneralCallMode | hi2c->Init.NoStretchMode));
 800357c:	687b      	ldr	r3, [r7, #4]
 800357e:	681b      	ldr	r3, [r3, #0]
 8003580:	681b      	ldr	r3, [r3, #0]
 8003582:	f023 01c0 	bic.w	r1, r3, #192	; 0xc0
 8003586:	687b      	ldr	r3, [r7, #4]
 8003588:	69da      	ldr	r2, [r3, #28]
 800358a:	687b      	ldr	r3, [r7, #4]
 800358c:	6a1b      	ldr	r3, [r3, #32]
 800358e:	431a      	orrs	r2, r3
 8003590:	687b      	ldr	r3, [r7, #4]
 8003592:	681b      	ldr	r3, [r3, #0]
 8003594:	430a      	orrs	r2, r1
 8003596:	601a      	str	r2, [r3, #0]

  /*---------------------------- I2Cx OAR1 Configuration ---------------------*/
  /* Configure I2Cx: Own Address1 and addressing mode */
  MODIFY_REG(hi2c->Instance->OAR1, (I2C_OAR1_ADDMODE | I2C_OAR1_ADD8_9 | I2C_OAR1_ADD1_7 | I2C_OAR1_ADD0), (hi2c->Init.AddressingMode | hi2c->Init.OwnAddress1));
 8003598:	687b      	ldr	r3, [r7, #4]
 800359a:	681b      	ldr	r3, [r3, #0]
 800359c:	689b      	ldr	r3, [r3, #8]
 800359e:	f423 4303 	bic.w	r3, r3, #33536	; 0x8300
 80035a2:	f023 03ff 	bic.w	r3, r3, #255	; 0xff
 80035a6:	687a      	ldr	r2, [r7, #4]
 80035a8:	6911      	ldr	r1, [r2, #16]
 80035aa:	687a      	ldr	r2, [r7, #4]
 80035ac:	68d2      	ldr	r2, [r2, #12]
 80035ae:	4311      	orrs	r1, r2
 80035b0:	687a      	ldr	r2, [r7, #4]
 80035b2:	6812      	ldr	r2, [r2, #0]
 80035b4:	430b      	orrs	r3, r1
 80035b6:	6093      	str	r3, [r2, #8]

  /*---------------------------- I2Cx OAR2 Configuration ---------------------*/
  /* Configure I2Cx: Dual mode and Own Address2 */
  MODIFY_REG(hi2c->Instance->OAR2, (I2C_OAR2_ENDUAL | I2C_OAR2_ADD2), (hi2c->Init.DualAddressMode | hi2c->Init.OwnAddress2));
 80035b8:	687b      	ldr	r3, [r7, #4]
 80035ba:	681b      	ldr	r3, [r3, #0]
 80035bc:	68db      	ldr	r3, [r3, #12]
 80035be:	f023 01ff 	bic.w	r1, r3, #255	; 0xff
 80035c2:	687b      	ldr	r3, [r7, #4]
 80035c4:	695a      	ldr	r2, [r3, #20]
 80035c6:	687b      	ldr	r3, [r7, #4]
 80035c8:	699b      	ldr	r3, [r3, #24]
 80035ca:	431a      	orrs	r2, r3
 80035cc:	687b      	ldr	r3, [r7, #4]
 80035ce:	681b      	ldr	r3, [r3, #0]
 80035d0:	430a      	orrs	r2, r1
 80035d2:	60da      	str	r2, [r3, #12]

  /* Enable the selected I2C peripheral */
  __HAL_I2C_ENABLE(hi2c);
 80035d4:	687b      	ldr	r3, [r7, #4]
 80035d6:	681b      	ldr	r3, [r3, #0]
 80035d8:	681a      	ldr	r2, [r3, #0]
 80035da:	687b      	ldr	r3, [r7, #4]
 80035dc:	681b      	ldr	r3, [r3, #0]
 80035de:	f042 0201 	orr.w	r2, r2, #1
 80035e2:	601a      	str	r2, [r3, #0]

  hi2c->ErrorCode = HAL_I2C_ERROR_NONE;
 80035e4:	687b      	ldr	r3, [r7, #4]
 80035e6:	2200      	movs	r2, #0
 80035e8:	641a      	str	r2, [r3, #64]	; 0x40
  hi2c->State = HAL_I2C_STATE_READY;
 80035ea:	687b      	ldr	r3, [r7, #4]
 80035ec:	2220      	movs	r2, #32
 80035ee:	f883 203d 	strb.w	r2, [r3, #61]	; 0x3d
  hi2c->PreviousState = I2C_STATE_NONE;
 80035f2:	687b      	ldr	r3, [r7, #4]
 80035f4:	2200      	movs	r2, #0
 80035f6:	631a      	str	r2, [r3, #48]	; 0x30
  hi2c->Mode = HAL_I2C_MODE_NONE;
 80035f8:	687b      	ldr	r3, [r7, #4]
 80035fa:	2200      	movs	r2, #0
 80035fc:	f883 203e 	strb.w	r2, [r3, #62]	; 0x3e

  return HAL_OK;
 8003600:	2300      	movs	r3, #0
}
 8003602:	4618      	mov	r0, r3
 8003604:	3710      	adds	r7, #16
 8003606:	46bd      	mov	sp, r7
 8003608:	bd80      	pop	{r7, pc}
 800360a:	bf00      	nop
 800360c:	000186a0 	.word	0x000186a0
 8003610:	001e847f 	.word	0x001e847f
 8003614:	003d08ff 	.word	0x003d08ff
 8003618:	431bde83 	.word	0x431bde83
 800361c:	10624dd3 	.word	0x10624dd3

08003620 <HAL_I2C_Master_Transmit>:
  * @param  Size Amount of data to be sent
  * @param  Timeout Timeout duration
  * @retval HAL status
  */
HAL_StatusTypeDef HAL_I2C_Master_Transmit(I2C_HandleTypeDef *hi2c, uint16_t DevAddress, uint8_t *pData, uint16_t Size, uint32_t Timeout)
{
 8003620:	b580      	push	{r7, lr}
 8003622:	b088      	sub	sp, #32
 8003624:	af02      	add	r7, sp, #8
 8003626:	60f8      	str	r0, [r7, #12]
 8003628:	607a      	str	r2, [r7, #4]
 800362a:	461a      	mov	r2, r3
 800362c:	460b      	mov	r3, r1
 800362e:	817b      	strh	r3, [r7, #10]
 8003630:	4613      	mov	r3, r2
 8003632:	813b      	strh	r3, [r7, #8]
  /* Init tickstart for timeout management*/
  uint32_t tickstart = HAL_GetTick();
 8003634:	f7ff fad4 	bl	8002be0 <HAL_GetTick>
 8003638:	6178      	str	r0, [r7, #20]

  if (hi2c->State == HAL_I2C_STATE_READY)
 800363a:	68fb      	ldr	r3, [r7, #12]
 800363c:	f893 303d 	ldrb.w	r3, [r3, #61]	; 0x3d
 8003640:	b2db      	uxtb	r3, r3
 8003642:	2b20      	cmp	r3, #32
 8003644:	f040 80e0 	bne.w	8003808 <HAL_I2C_Master_Transmit+0x1e8>
  {
    /* Wait until BUSY flag is reset */
    if (I2C_WaitOnFlagUntilTimeout(hi2c, I2C_FLAG_BUSY, SET, I2C_TIMEOUT_BUSY_FLAG, tickstart) != HAL_OK)
 8003648:	697b      	ldr	r3, [r7, #20]
 800364a:	9300      	str	r3, [sp, #0]
 800364c:	2319      	movs	r3, #25
 800364e:	2201      	movs	r2, #1
 8003650:	4970      	ldr	r1, [pc, #448]	; (8003814 <HAL_I2C_Master_Transmit+0x1f4>)
 8003652:	68f8      	ldr	r0, [r7, #12]
 8003654:	f000 f964 	bl	8003920 <I2C_WaitOnFlagUntilTimeout>
 8003658:	4603      	mov	r3, r0
 800365a:	2b00      	cmp	r3, #0
 800365c:	d001      	beq.n	8003662 <HAL_I2C_Master_Transmit+0x42>
    {
      return HAL_BUSY;
 800365e:	2302      	movs	r3, #2
 8003660:	e0d3      	b.n	800380a <HAL_I2C_Master_Transmit+0x1ea>
    }

    /* Process Locked */
    __HAL_LOCK(hi2c);
 8003662:	68fb      	ldr	r3, [r7, #12]
 8003664:	f893 303c 	ldrb.w	r3, [r3, #60]	; 0x3c
 8003668:	2b01      	cmp	r3, #1
 800366a:	d101      	bne.n	8003670 <HAL_I2C_Master_Transmit+0x50>
 800366c:	2302      	movs	r3, #2
 800366e:	e0cc      	b.n	800380a <HAL_I2C_Master_Transmit+0x1ea>
 8003670:	68fb      	ldr	r3, [r7, #12]
 8003672:	2201      	movs	r2, #1
 8003674:	f883 203c 	strb.w	r2, [r3, #60]	; 0x3c

    /* Check if the I2C is already enabled */
    if ((hi2c->Instance->CR1 & I2C_CR1_PE) != I2C_CR1_PE)
 8003678:	68fb      	ldr	r3, [r7, #12]
 800367a:	681b      	ldr	r3, [r3, #0]
 800367c:	681b      	ldr	r3, [r3, #0]
 800367e:	f003 0301 	and.w	r3, r3, #1
 8003682:	2b01      	cmp	r3, #1
 8003684:	d007      	beq.n	8003696 <HAL_I2C_Master_Transmit+0x76>
    {
      /* Enable I2C peripheral */
      __HAL_I2C_ENABLE(hi2c);
 8003686:	68fb      	ldr	r3, [r7, #12]
 8003688:	681b      	ldr	r3, [r3, #0]
 800368a:	681a      	ldr	r2, [r3, #0]
 800368c:	68fb      	ldr	r3, [r7, #12]
 800368e:	681b      	ldr	r3, [r3, #0]
 8003690:	f042 0201 	orr.w	r2, r2, #1
 8003694:	601a      	str	r2, [r3, #0]
    }

    /* Disable Pos */
    CLEAR_BIT(hi2c->Instance->CR1, I2C_CR1_POS);
 8003696:	68fb      	ldr	r3, [r7, #12]
 8003698:	681b      	ldr	r3, [r3, #0]
 800369a:	681a      	ldr	r2, [r3, #0]
 800369c:	68fb      	ldr	r3, [r7, #12]
 800369e:	681b      	ldr	r3, [r3, #0]
 80036a0:	f422 6200 	bic.w	r2, r2, #2048	; 0x800
 80036a4:	601a      	str	r2, [r3, #0]

    hi2c->State       = HAL_I2C_STATE_BUSY_TX;
 80036a6:	68fb      	ldr	r3, [r7, #12]
 80036a8:	2221      	movs	r2, #33	; 0x21
 80036aa:	f883 203d 	strb.w	r2, [r3, #61]	; 0x3d
    hi2c->Mode        = HAL_I2C_MODE_MASTER;
 80036ae:	68fb      	ldr	r3, [r7, #12]
 80036b0:	2210      	movs	r2, #16
 80036b2:	f883 203e 	strb.w	r2, [r3, #62]	; 0x3e
    hi2c->ErrorCode   = HAL_I2C_ERROR_NONE;
 80036b6:	68fb      	ldr	r3, [r7, #12]
 80036b8:	2200      	movs	r2, #0
 80036ba:	641a      	str	r2, [r3, #64]	; 0x40

    /* Prepare transfer parameters */
    hi2c->pBuffPtr    = pData;
 80036bc:	68fb      	ldr	r3, [r7, #12]
 80036be:	687a      	ldr	r2, [r7, #4]
 80036c0:	625a      	str	r2, [r3, #36]	; 0x24
    hi2c->XferCount   = Size;
 80036c2:	68fb      	ldr	r3, [r7, #12]
 80036c4:	893a      	ldrh	r2, [r7, #8]
 80036c6:	855a      	strh	r2, [r3, #42]	; 0x2a
    hi2c->XferSize    = hi2c->XferCount;
 80036c8:	68fb      	ldr	r3, [r7, #12]
 80036ca:	8d5b      	ldrh	r3, [r3, #42]	; 0x2a
 80036cc:	b29a      	uxth	r2, r3
 80036ce:	68fb      	ldr	r3, [r7, #12]
 80036d0:	851a      	strh	r2, [r3, #40]	; 0x28
    hi2c->XferOptions = I2C_NO_OPTION_FRAME;
 80036d2:	68fb      	ldr	r3, [r7, #12]
 80036d4:	4a50      	ldr	r2, [pc, #320]	; (8003818 <HAL_I2C_Master_Transmit+0x1f8>)
 80036d6:	62da      	str	r2, [r3, #44]	; 0x2c

    /* Send Slave Address */
    if (I2C_MasterRequestWrite(hi2c, DevAddress, Timeout, tickstart) != HAL_OK)
 80036d8:	8979      	ldrh	r1, [r7, #10]
 80036da:	697b      	ldr	r3, [r7, #20]
 80036dc:	6a3a      	ldr	r2, [r7, #32]
 80036de:	68f8      	ldr	r0, [r7, #12]
 80036e0:	f000 f89c 	bl	800381c <I2C_MasterRequestWrite>
 80036e4:	4603      	mov	r3, r0
 80036e6:	2b00      	cmp	r3, #0
 80036e8:	d001      	beq.n	80036ee <HAL_I2C_Master_Transmit+0xce>
    {
      return HAL_ERROR;
 80036ea:	2301      	movs	r3, #1
 80036ec:	e08d      	b.n	800380a <HAL_I2C_Master_Transmit+0x1ea>
    }

    /* Clear ADDR flag */
    __HAL_I2C_CLEAR_ADDRFLAG(hi2c);
 80036ee:	2300      	movs	r3, #0
 80036f0:	613b      	str	r3, [r7, #16]
 80036f2:	68fb      	ldr	r3, [r7, #12]
 80036f4:	681b      	ldr	r3, [r3, #0]
 80036f6:	695b      	ldr	r3, [r3, #20]
 80036f8:	613b      	str	r3, [r7, #16]
 80036fa:	68fb      	ldr	r3, [r7, #12]
 80036fc:	681b      	ldr	r3, [r3, #0]
 80036fe:	699b      	ldr	r3, [r3, #24]
 8003700:	613b      	str	r3, [r7, #16]
 8003702:	693b      	ldr	r3, [r7, #16]

    while (hi2c->XferSize > 0U)
 8003704:	e066      	b.n	80037d4 <HAL_I2C_Master_Transmit+0x1b4>
    {
      /* Wait until TXE flag is set */
      if (I2C_WaitOnTXEFlagUntilTimeout(hi2c, Timeout, tickstart) != HAL_OK)
 8003706:	697a      	ldr	r2, [r7, #20]
 8003708:	6a39      	ldr	r1, [r7, #32]
 800370a:	68f8      	ldr	r0, [r7, #12]
 800370c:	f000 f9de 	bl	8003acc <I2C_WaitOnTXEFlagUntilTimeout>
 8003710:	4603      	mov	r3, r0
 8003712:	2b00      	cmp	r3, #0
 8003714:	d00d      	beq.n	8003732 <HAL_I2C_Master_Transmit+0x112>
      {
        if (hi2c->ErrorCode == HAL_I2C_ERROR_AF)
 8003716:	68fb      	ldr	r3, [r7, #12]
 8003718:	6c1b      	ldr	r3, [r3, #64]	; 0x40
 800371a:	2b04      	cmp	r3, #4
 800371c:	d107      	bne.n	800372e <HAL_I2C_Master_Transmit+0x10e>
        {
          /* Generate Stop */
          SET_BIT(hi2c->Instance->CR1, I2C_CR1_STOP);
 800371e:	68fb      	ldr	r3, [r7, #12]
 8003720:	681b      	ldr	r3, [r3, #0]
 8003722:	681a      	ldr	r2, [r3, #0]
 8003724:	68fb      	ldr	r3, [r7, #12]
 8003726:	681b      	ldr	r3, [r3, #0]
 8003728:	f442 7200 	orr.w	r2, r2, #512	; 0x200
 800372c:	601a      	str	r2, [r3, #0]
        }
        return HAL_ERROR;
 800372e:	2301      	movs	r3, #1
 8003730:	e06b      	b.n	800380a <HAL_I2C_Master_Transmit+0x1ea>
      }

      /* Write data to DR */
      hi2c->Instance->DR = *hi2c->pBuffPtr;
 8003732:	68fb      	ldr	r3, [r7, #12]
 8003734:	6a5b      	ldr	r3, [r3, #36]	; 0x24
 8003736:	781a      	ldrb	r2, [r3, #0]
 8003738:	68fb      	ldr	r3, [r7, #12]
 800373a:	681b      	ldr	r3, [r3, #0]
 800373c:	611a      	str	r2, [r3, #16]

      /* Increment Buffer pointer */
      hi2c->pBuffPtr++;
 800373e:	68fb      	ldr	r3, [r7, #12]
 8003740:	6a5b      	ldr	r3, [r3, #36]	; 0x24
 8003742:	1c5a      	adds	r2, r3, #1
 8003744:	68fb      	ldr	r3, [r7, #12]
 8003746:	625a      	str	r2, [r3, #36]	; 0x24

      /* Update counter */
      hi2c->XferCount--;
 8003748:	68fb      	ldr	r3, [r7, #12]
 800374a:	8d5b      	ldrh	r3, [r3, #42]	; 0x2a
 800374c:	b29b      	uxth	r3, r3
 800374e:	3b01      	subs	r3, #1
 8003750:	b29a      	uxth	r2, r3
 8003752:	68fb      	ldr	r3, [r7, #12]
 8003754:	855a      	strh	r2, [r3, #42]	; 0x2a
      hi2c->XferSize--;
 8003756:	68fb      	ldr	r3, [r7, #12]
 8003758:	8d1b      	ldrh	r3, [r3, #40]	; 0x28
 800375a:	3b01      	subs	r3, #1
 800375c:	b29a      	uxth	r2, r3
 800375e:	68fb      	ldr	r3, [r7, #12]
 8003760:	851a      	strh	r2, [r3, #40]	; 0x28

      if ((__HAL_I2C_GET_FLAG(hi2c, I2C_FLAG_BTF) == SET) && (hi2c->XferSize != 0U))
 8003762:	68fb      	ldr	r3, [r7, #12]
 8003764:	681b      	ldr	r3, [r3, #0]
 8003766:	695b      	ldr	r3, [r3, #20]
 8003768:	f003 0304 	and.w	r3, r3, #4
 800376c:	2b04      	cmp	r3, #4
 800376e:	d11b      	bne.n	80037a8 <HAL_I2C_Master_Transmit+0x188>
 8003770:	68fb      	ldr	r3, [r7, #12]
 8003772:	8d1b      	ldrh	r3, [r3, #40]	; 0x28
 8003774:	2b00      	cmp	r3, #0
 8003776:	d017      	beq.n	80037a8 <HAL_I2C_Master_Transmit+0x188>
      {
        /* Write data to DR */
        hi2c->Instance->DR = *hi2c->pBuffPtr;
 8003778:	68fb      	ldr	r3, [r7, #12]
 800377a:	6a5b      	ldr	r3, [r3, #36]	; 0x24
 800377c:	781a      	ldrb	r2, [r3, #0]
 800377e:	68fb      	ldr	r3, [r7, #12]
 8003780:	681b      	ldr	r3, [r3, #0]
 8003782:	611a      	str	r2, [r3, #16]

        /* Increment Buffer pointer */
        hi2c->pBuffPtr++;
 8003784:	68fb      	ldr	r3, [r7, #12]
 8003786:	6a5b      	ldr	r3, [r3, #36]	; 0x24
 8003788:	1c5a      	adds	r2, r3, #1
 800378a:	68fb      	ldr	r3, [r7, #12]
 800378c:	625a      	str	r2, [r3, #36]	; 0x24

        /* Update counter */
        hi2c->XferCount--;
 800378e:	68fb      	ldr	r3, [r7, #12]
 8003790:	8d5b      	ldrh	r3, [r3, #42]	; 0x2a
 8003792:	b29b      	uxth	r3, r3
 8003794:	3b01      	subs	r3, #1
 8003796:	b29a      	uxth	r2, r3
 8003798:	68fb      	ldr	r3, [r7, #12]
 800379a:	855a      	strh	r2, [r3, #42]	; 0x2a
        hi2c->XferSize--;
 800379c:	68fb      	ldr	r3, [r7, #12]
 800379e:	8d1b      	ldrh	r3, [r3, #40]	; 0x28
 80037a0:	3b01      	subs	r3, #1
 80037a2:	b29a      	uxth	r2, r3
 80037a4:	68fb      	ldr	r3, [r7, #12]
 80037a6:	851a      	strh	r2, [r3, #40]	; 0x28
      }

      /* Wait until BTF flag is set */
      if (I2C_WaitOnBTFFlagUntilTimeout(hi2c, Timeout, tickstart) != HAL_OK)
 80037a8:	697a      	ldr	r2, [r7, #20]
 80037aa:	6a39      	ldr	r1, [r7, #32]
 80037ac:	68f8      	ldr	r0, [r7, #12]
 80037ae:	f000 f9ce 	bl	8003b4e <I2C_WaitOnBTFFlagUntilTimeout>
 80037b2:	4603      	mov	r3, r0
 80037b4:	2b00      	cmp	r3, #0
 80037b6:	d00d      	beq.n	80037d4 <HAL_I2C_Master_Transmit+0x1b4>
      {
        if (hi2c->ErrorCode == HAL_I2C_ERROR_AF)
 80037b8:	68fb      	ldr	r3, [r7, #12]
 80037ba:	6c1b      	ldr	r3, [r3, #64]	; 0x40
 80037bc:	2b04      	cmp	r3, #4
 80037be:	d107      	bne.n	80037d0 <HAL_I2C_Master_Transmit+0x1b0>
        {
          /* Generate Stop */
          SET_BIT(hi2c->Instance->CR1, I2C_CR1_STOP);
 80037c0:	68fb      	ldr	r3, [r7, #12]
 80037c2:	681b      	ldr	r3, [r3, #0]
 80037c4:	681a      	ldr	r2, [r3, #0]
 80037c6:	68fb      	ldr	r3, [r7, #12]
 80037c8:	681b      	ldr	r3, [r3, #0]
 80037ca:	f442 7200 	orr.w	r2, r2, #512	; 0x200
 80037ce:	601a      	str	r2, [r3, #0]
        }
        return HAL_ERROR;
 80037d0:	2301      	movs	r3, #1
 80037d2:	e01a      	b.n	800380a <HAL_I2C_Master_Transmit+0x1ea>
    while (hi2c->XferSize > 0U)
 80037d4:	68fb      	ldr	r3, [r7, #12]
 80037d6:	8d1b      	ldrh	r3, [r3, #40]	; 0x28
 80037d8:	2b00      	cmp	r3, #0
 80037da:	d194      	bne.n	8003706 <HAL_I2C_Master_Transmit+0xe6>
      }
    }

    /* Generate Stop */
    SET_BIT(hi2c->Instance->CR1, I2C_CR1_STOP);
 80037dc:	68fb      	ldr	r3, [r7, #12]
 80037de:	681b      	ldr	r3, [r3, #0]
 80037e0:	681a      	ldr	r2, [r3, #0]
 80037e2:	68fb      	ldr	r3, [r7, #12]
 80037e4:	681b      	ldr	r3, [r3, #0]
 80037e6:	f442 7200 	orr.w	r2, r2, #512	; 0x200
 80037ea:	601a      	str	r2, [r3, #0]

    hi2c->State = HAL_I2C_STATE_READY;
 80037ec:	68fb      	ldr	r3, [r7, #12]
 80037ee:	2220      	movs	r2, #32
 80037f0:	f883 203d 	strb.w	r2, [r3, #61]	; 0x3d
    hi2c->Mode = HAL_I2C_MODE_NONE;
 80037f4:	68fb      	ldr	r3, [r7, #12]
 80037f6:	2200      	movs	r2, #0
 80037f8:	f883 203e 	strb.w	r2, [r3, #62]	; 0x3e

    /* Process Unlocked */
    __HAL_UNLOCK(hi2c);
 80037fc:	68fb      	ldr	r3, [r7, #12]
 80037fe:	2200      	movs	r2, #0
 8003800:	f883 203c 	strb.w	r2, [r3, #60]	; 0x3c

    return HAL_OK;
 8003804:	2300      	movs	r3, #0
 8003806:	e000      	b.n	800380a <HAL_I2C_Master_Transmit+0x1ea>
  }
  else
  {
    return HAL_BUSY;
 8003808:	2302      	movs	r3, #2
  }
}
 800380a:	4618      	mov	r0, r3
 800380c:	3718      	adds	r7, #24
 800380e:	46bd      	mov	sp, r7
 8003810:	bd80      	pop	{r7, pc}
 8003812:	bf00      	nop
 8003814:	00100002 	.word	0x00100002
 8003818:	ffff0000 	.word	0xffff0000

0800381c <I2C_MasterRequestWrite>:
  * @param  Timeout Timeout duration
  * @param  Tickstart Tick start value
  * @retval HAL status
  */
static HAL_StatusTypeDef I2C_MasterRequestWrite(I2C_HandleTypeDef *hi2c, uint16_t DevAddress, uint32_t Timeout, uint32_t Tickstart)
{
 800381c:	b580      	push	{r7, lr}
 800381e:	b088      	sub	sp, #32
 8003820:	af02      	add	r7, sp, #8
 8003822:	60f8      	str	r0, [r7, #12]
 8003824:	607a      	str	r2, [r7, #4]
 8003826:	603b      	str	r3, [r7, #0]
 8003828:	460b      	mov	r3, r1
 800382a:	817b      	strh	r3, [r7, #10]
  /* Declaration of temporary variable to prevent undefined behavior of volatile usage */
  uint32_t CurrentXferOptions = hi2c->XferOptions;
 800382c:	68fb      	ldr	r3, [r7, #12]
 800382e:	6adb      	ldr	r3, [r3, #44]	; 0x2c
 8003830:	617b      	str	r3, [r7, #20]

  /* Generate Start condition if first transfer */
  if ((CurrentXferOptions == I2C_FIRST_AND_LAST_FRAME) || (CurrentXferOptions == I2C_FIRST_FRAME) || (CurrentXferOptions == I2C_NO_OPTION_FRAME))
 8003832:	697b      	ldr	r3, [r7, #20]
 8003834:	2b08      	cmp	r3, #8
 8003836:	d006      	beq.n	8003846 <I2C_MasterRequestWrite+0x2a>
 8003838:	697b      	ldr	r3, [r7, #20]
 800383a:	2b01      	cmp	r3, #1
 800383c:	d003      	beq.n	8003846 <I2C_MasterRequestWrite+0x2a>
 800383e:	697b      	ldr	r3, [r7, #20]
 8003840:	f513 3f80 	cmn.w	r3, #65536	; 0x10000
 8003844:	d108      	bne.n	8003858 <I2C_MasterRequestWrite+0x3c>
  {
    /* Generate Start */
    SET_BIT(hi2c->Instance->CR1, I2C_CR1_START);
 8003846:	68fb      	ldr	r3, [r7, #12]
 8003848:	681b      	ldr	r3, [r3, #0]
 800384a:	681a      	ldr	r2, [r3, #0]
 800384c:	68fb      	ldr	r3, [r7, #12]
 800384e:	681b      	ldr	r3, [r3, #0]
 8003850:	f442 7280 	orr.w	r2, r2, #256	; 0x100
 8003854:	601a      	str	r2, [r3, #0]
 8003856:	e00b      	b.n	8003870 <I2C_MasterRequestWrite+0x54>
  }
  else if (hi2c->PreviousState == I2C_STATE_MASTER_BUSY_RX)
 8003858:	68fb      	ldr	r3, [r7, #12]
 800385a:	6b1b      	ldr	r3, [r3, #48]	; 0x30
 800385c:	2b12      	cmp	r3, #18
 800385e:	d107      	bne.n	8003870 <I2C_MasterRequestWrite+0x54>
  {
    /* Generate ReStart */
    SET_BIT(hi2c->Instance->CR1, I2C_CR1_START);
 8003860:	68fb      	ldr	r3, [r7, #12]
 8003862:	681b      	ldr	r3, [r3, #0]
 8003864:	681a      	ldr	r2, [r3, #0]
 8003866:	68fb      	ldr	r3, [r7, #12]
 8003868:	681b      	ldr	r3, [r3, #0]
 800386a:	f442 7280 	orr.w	r2, r2, #256	; 0x100
 800386e:	601a      	str	r2, [r3, #0]
  {
    /* Do nothing */
  }

  /* Wait until SB flag is set */
  if (I2C_WaitOnFlagUntilTimeout(hi2c, I2C_FLAG_SB, RESET, Timeout, Tickstart) != HAL_OK)
 8003870:	683b      	ldr	r3, [r7, #0]
 8003872:	9300      	str	r3, [sp, #0]
 8003874:	687b      	ldr	r3, [r7, #4]
 8003876:	2200      	movs	r2, #0
 8003878:	f04f 1101 	mov.w	r1, #65537	; 0x10001
 800387c:	68f8      	ldr	r0, [r7, #12]
 800387e:	f000 f84f 	bl	8003920 <I2C_WaitOnFlagUntilTimeout>
 8003882:	4603      	mov	r3, r0
 8003884:	2b00      	cmp	r3, #0
 8003886:	d00d      	beq.n	80038a4 <I2C_MasterRequestWrite+0x88>
  {
    if (READ_BIT(hi2c->Instance->CR1, I2C_CR1_START) == I2C_CR1_START)
 8003888:	68fb      	ldr	r3, [r7, #12]
 800388a:	681b      	ldr	r3, [r3, #0]
 800388c:	681b      	ldr	r3, [r3, #0]
 800388e:	f403 7380 	and.w	r3, r3, #256	; 0x100
 8003892:	f5b3 7f80 	cmp.w	r3, #256	; 0x100
 8003896:	d103      	bne.n	80038a0 <I2C_MasterRequestWrite+0x84>
    {
      hi2c->ErrorCode = HAL_I2C_WRONG_START;
 8003898:	68fb      	ldr	r3, [r7, #12]
 800389a:	f44f 7200 	mov.w	r2, #512	; 0x200
 800389e:	641a      	str	r2, [r3, #64]	; 0x40
    }
    return HAL_TIMEOUT;
 80038a0:	2303      	movs	r3, #3
 80038a2:	e035      	b.n	8003910 <I2C_MasterRequestWrite+0xf4>
  }

  if (hi2c->Init.AddressingMode == I2C_ADDRESSINGMODE_7BIT)
 80038a4:	68fb      	ldr	r3, [r7, #12]
 80038a6:	691b      	ldr	r3, [r3, #16]
 80038a8:	f5b3 4f80 	cmp.w	r3, #16384	; 0x4000
 80038ac:	d108      	bne.n	80038c0 <I2C_MasterRequestWrite+0xa4>
  {
    /* Send slave address */
    hi2c->Instance->DR = I2C_7BIT_ADD_WRITE(DevAddress);
 80038ae:	897b      	ldrh	r3, [r7, #10]
 80038b0:	b2db      	uxtb	r3, r3
 80038b2:	461a      	mov	r2, r3
 80038b4:	68fb      	ldr	r3, [r7, #12]
 80038b6:	681b      	ldr	r3, [r3, #0]
 80038b8:	f002 02fe 	and.w	r2, r2, #254	; 0xfe
 80038bc:	611a      	str	r2, [r3, #16]
 80038be:	e01b      	b.n	80038f8 <I2C_MasterRequestWrite+0xdc>
  }
  else
  {
    /* Send header of slave address */
    hi2c->Instance->DR = I2C_10BIT_HEADER_WRITE(DevAddress);
 80038c0:	897b      	ldrh	r3, [r7, #10]
 80038c2:	11db      	asrs	r3, r3, #7
 80038c4:	b2db      	uxtb	r3, r3
 80038c6:	f003 0306 	and.w	r3, r3, #6
 80038ca:	b2db      	uxtb	r3, r3
 80038cc:	f063 030f 	orn	r3, r3, #15
 80038d0:	b2da      	uxtb	r2, r3
 80038d2:	68fb      	ldr	r3, [r7, #12]
 80038d4:	681b      	ldr	r3, [r3, #0]
 80038d6:	611a      	str	r2, [r3, #16]

    /* Wait until ADD10 flag is set */
    if (I2C_WaitOnMasterAddressFlagUntilTimeout(hi2c, I2C_FLAG_ADD10, Timeout, Tickstart) != HAL_OK)
 80038d8:	683b      	ldr	r3, [r7, #0]
 80038da:	687a      	ldr	r2, [r7, #4]
 80038dc:	490e      	ldr	r1, [pc, #56]	; (8003918 <I2C_MasterRequestWrite+0xfc>)
 80038de:	68f8      	ldr	r0, [r7, #12]
 80038e0:	f000 f875 	bl	80039ce <I2C_WaitOnMasterAddressFlagUntilTimeout>
 80038e4:	4603      	mov	r3, r0
 80038e6:	2b00      	cmp	r3, #0
 80038e8:	d001      	beq.n	80038ee <I2C_MasterRequestWrite+0xd2>
    {
      return HAL_ERROR;
 80038ea:	2301      	movs	r3, #1
 80038ec:	e010      	b.n	8003910 <I2C_MasterRequestWrite+0xf4>
    }

    /* Send slave address */
    hi2c->Instance->DR = I2C_10BIT_ADDRESS(DevAddress);
 80038ee:	897b      	ldrh	r3, [r7, #10]
 80038f0:	b2da      	uxtb	r2, r3
 80038f2:	68fb      	ldr	r3, [r7, #12]
 80038f4:	681b      	ldr	r3, [r3, #0]
 80038f6:	611a      	str	r2, [r3, #16]
  }

  /* Wait until ADDR flag is set */
  if (I2C_WaitOnMasterAddressFlagUntilTimeout(hi2c, I2C_FLAG_ADDR, Timeout, Tickstart) != HAL_OK)
 80038f8:	683b      	ldr	r3, [r7, #0]
 80038fa:	687a      	ldr	r2, [r7, #4]
 80038fc:	4907      	ldr	r1, [pc, #28]	; (800391c <I2C_MasterRequestWrite+0x100>)
 80038fe:	68f8      	ldr	r0, [r7, #12]
 8003900:	f000 f865 	bl	80039ce <I2C_WaitOnMasterAddressFlagUntilTimeout>
 8003904:	4603      	mov	r3, r0
 8003906:	2b00      	cmp	r3, #0
 8003908:	d001      	beq.n	800390e <I2C_MasterRequestWrite+0xf2>
  {
    return HAL_ERROR;
 800390a:	2301      	movs	r3, #1
 800390c:	e000      	b.n	8003910 <I2C_MasterRequestWrite+0xf4>
  }

  return HAL_OK;
 800390e:	2300      	movs	r3, #0
}
 8003910:	4618      	mov	r0, r3
 8003912:	3718      	adds	r7, #24
 8003914:	46bd      	mov	sp, r7
 8003916:	bd80      	pop	{r7, pc}
 8003918:	00010008 	.word	0x00010008
 800391c:	00010002 	.word	0x00010002

08003920 <I2C_WaitOnFlagUntilTimeout>:
  * @param  Timeout Timeout duration
  * @param  Tickstart Tick start value
  * @retval HAL status
  */
static HAL_StatusTypeDef I2C_WaitOnFlagUntilTimeout(I2C_HandleTypeDef *hi2c, uint32_t Flag, FlagStatus Status, uint32_t Timeout, uint32_t Tickstart)
{
 8003920:	b580      	push	{r7, lr}
 8003922:	b084      	sub	sp, #16
 8003924:	af00      	add	r7, sp, #0
 8003926:	60f8      	str	r0, [r7, #12]
 8003928:	60b9      	str	r1, [r7, #8]
 800392a:	603b      	str	r3, [r7, #0]
 800392c:	4613      	mov	r3, r2
 800392e:	71fb      	strb	r3, [r7, #7]
  /* Wait until flag is set */
  while (__HAL_I2C_GET_FLAG(hi2c, Flag) == Status)
 8003930:	e025      	b.n	800397e <I2C_WaitOnFlagUntilTimeout+0x5e>
  {
    /* Check for the Timeout */
    if (Timeout != HAL_MAX_DELAY)
 8003932:	683b      	ldr	r3, [r7, #0]
 8003934:	f1b3 3fff 	cmp.w	r3, #4294967295	; 0xffffffff
 8003938:	d021      	beq.n	800397e <I2C_WaitOnFlagUntilTimeout+0x5e>
    {
      if (((HAL_GetTick() - Tickstart) > Timeout) || (Timeout == 0U))
 800393a:	f7ff f951 	bl	8002be0 <HAL_GetTick>
 800393e:	4602      	mov	r2, r0
 8003940:	69bb      	ldr	r3, [r7, #24]
 8003942:	1ad3      	subs	r3, r2, r3
 8003944:	683a      	ldr	r2, [r7, #0]
 8003946:	429a      	cmp	r2, r3
 8003948:	d302      	bcc.n	8003950 <I2C_WaitOnFlagUntilTimeout+0x30>
 800394a:	683b      	ldr	r3, [r7, #0]
 800394c:	2b00      	cmp	r3, #0
 800394e:	d116      	bne.n	800397e <I2C_WaitOnFlagUntilTimeout+0x5e>
      {
        hi2c->PreviousState     = I2C_STATE_NONE;
 8003950:	68fb      	ldr	r3, [r7, #12]
 8003952:	2200      	movs	r2, #0
 8003954:	631a      	str	r2, [r3, #48]	; 0x30
        hi2c->State             = HAL_I2C_STATE_READY;
 8003956:	68fb      	ldr	r3, [r7, #12]
 8003958:	2220      	movs	r2, #32
 800395a:	f883 203d 	strb.w	r2, [r3, #61]	; 0x3d
        hi2c->Mode              = HAL_I2C_MODE_NONE;
 800395e:	68fb      	ldr	r3, [r7, #12]
 8003960:	2200      	movs	r2, #0
 8003962:	f883 203e 	strb.w	r2, [r3, #62]	; 0x3e
        hi2c->ErrorCode         |= HAL_I2C_ERROR_TIMEOUT;
 8003966:	68fb      	ldr	r3, [r7, #12]
 8003968:	6c1b      	ldr	r3, [r3, #64]	; 0x40
 800396a:	f043 0220 	orr.w	r2, r3, #32
 800396e:	68fb      	ldr	r3, [r7, #12]
 8003970:	641a      	str	r2, [r3, #64]	; 0x40

        /* Process Unlocked */
        __HAL_UNLOCK(hi2c);
 8003972:	68fb      	ldr	r3, [r7, #12]
 8003974:	2200      	movs	r2, #0
 8003976:	f883 203c 	strb.w	r2, [r3, #60]	; 0x3c

        return HAL_ERROR;
 800397a:	2301      	movs	r3, #1
 800397c:	e023      	b.n	80039c6 <I2C_WaitOnFlagUntilTimeout+0xa6>
  while (__HAL_I2C_GET_FLAG(hi2c, Flag) == Status)
 800397e:	68bb      	ldr	r3, [r7, #8]
 8003980:	0c1b      	lsrs	r3, r3, #16
 8003982:	b2db      	uxtb	r3, r3
 8003984:	2b01      	cmp	r3, #1
 8003986:	d10d      	bne.n	80039a4 <I2C_WaitOnFlagUntilTimeout+0x84>
 8003988:	68fb      	ldr	r3, [r7, #12]
 800398a:	681b      	ldr	r3, [r3, #0]
 800398c:	695b      	ldr	r3, [r3, #20]
 800398e:	43da      	mvns	r2, r3
 8003990:	68bb      	ldr	r3, [r7, #8]
 8003992:	4013      	ands	r3, r2
 8003994:	b29b      	uxth	r3, r3
 8003996:	2b00      	cmp	r3, #0
 8003998:	bf0c      	ite	eq
 800399a:	2301      	moveq	r3, #1
 800399c:	2300      	movne	r3, #0
 800399e:	b2db      	uxtb	r3, r3
 80039a0:	461a      	mov	r2, r3
 80039a2:	e00c      	b.n	80039be <I2C_WaitOnFlagUntilTimeout+0x9e>
 80039a4:	68fb      	ldr	r3, [r7, #12]
 80039a6:	681b      	ldr	r3, [r3, #0]
 80039a8:	699b      	ldr	r3, [r3, #24]
 80039aa:	43da      	mvns	r2, r3
 80039ac:	68bb      	ldr	r3, [r7, #8]
 80039ae:	4013      	ands	r3, r2
 80039b0:	b29b      	uxth	r3, r3
 80039b2:	2b00      	cmp	r3, #0
 80039b4:	bf0c      	ite	eq
 80039b6:	2301      	moveq	r3, #1
 80039b8:	2300      	movne	r3, #0
 80039ba:	b2db      	uxtb	r3, r3
 80039bc:	461a      	mov	r2, r3
 80039be:	79fb      	ldrb	r3, [r7, #7]
 80039c0:	429a      	cmp	r2, r3
 80039c2:	d0b6      	beq.n	8003932 <I2C_WaitOnFlagUntilTimeout+0x12>
      }
    }
  }
  return HAL_OK;
 80039c4:	2300      	movs	r3, #0
}
 80039c6:	4618      	mov	r0, r3
 80039c8:	3710      	adds	r7, #16
 80039ca:	46bd      	mov	sp, r7
 80039cc:	bd80      	pop	{r7, pc}

080039ce <I2C_WaitOnMasterAddressFlagUntilTimeout>:
  * @param  Timeout Timeout duration
  * @param  Tickstart Tick start value
  * @retval HAL status
  */
static HAL_StatusTypeDef I2C_WaitOnMasterAddressFlagUntilTimeout(I2C_HandleTypeDef *hi2c, uint32_t Flag, uint32_t Timeout, uint32_t Tickstart)
{
 80039ce:	b580      	push	{r7, lr}
 80039d0:	b084      	sub	sp, #16
 80039d2:	af00      	add	r7, sp, #0
 80039d4:	60f8      	str	r0, [r7, #12]
 80039d6:	60b9      	str	r1, [r7, #8]
 80039d8:	607a      	str	r2, [r7, #4]
 80039da:	603b      	str	r3, [r7, #0]
  while (__HAL_I2C_GET_FLAG(hi2c, Flag) == RESET)
 80039dc:	e051      	b.n	8003a82 <I2C_WaitOnMasterAddressFlagUntilTimeout+0xb4>
  {
    if (__HAL_I2C_GET_FLAG(hi2c, I2C_FLAG_AF) == SET)
 80039de:	68fb      	ldr	r3, [r7, #12]
 80039e0:	681b      	ldr	r3, [r3, #0]
 80039e2:	695b      	ldr	r3, [r3, #20]
 80039e4:	f403 6380 	and.w	r3, r3, #1024	; 0x400
 80039e8:	f5b3 6f80 	cmp.w	r3, #1024	; 0x400
 80039ec:	d123      	bne.n	8003a36 <I2C_WaitOnMasterAddressFlagUntilTimeout+0x68>
    {
      /* Generate Stop */
      SET_BIT(hi2c->Instance->CR1, I2C_CR1_STOP);
 80039ee:	68fb      	ldr	r3, [r7, #12]
 80039f0:	681b      	ldr	r3, [r3, #0]
 80039f2:	681a      	ldr	r2, [r3, #0]
 80039f4:	68fb      	ldr	r3, [r7, #12]
 80039f6:	681b      	ldr	r3, [r3, #0]
 80039f8:	f442 7200 	orr.w	r2, r2, #512	; 0x200
 80039fc:	601a      	str	r2, [r3, #0]

      /* Clear AF Flag */
      __HAL_I2C_CLEAR_FLAG(hi2c, I2C_FLAG_AF);
 80039fe:	68fb      	ldr	r3, [r7, #12]
 8003a00:	681b      	ldr	r3, [r3, #0]
 8003a02:	f46f 6280 	mvn.w	r2, #1024	; 0x400
 8003a06:	615a      	str	r2, [r3, #20]

      hi2c->PreviousState       = I2C_STATE_NONE;
 8003a08:	68fb      	ldr	r3, [r7, #12]
 8003a0a:	2200      	movs	r2, #0
 8003a0c:	631a      	str	r2, [r3, #48]	; 0x30
      hi2c->State               = HAL_I2C_STATE_READY;
 8003a0e:	68fb      	ldr	r3, [r7, #12]
 8003a10:	2220      	movs	r2, #32
 8003a12:	f883 203d 	strb.w	r2, [r3, #61]	; 0x3d
      hi2c->Mode                = HAL_I2C_MODE_NONE;
 8003a16:	68fb      	ldr	r3, [r7, #12]
 8003a18:	2200      	movs	r2, #0
 8003a1a:	f883 203e 	strb.w	r2, [r3, #62]	; 0x3e
      hi2c->ErrorCode           |= HAL_I2C_ERROR_AF;
 8003a1e:	68fb      	ldr	r3, [r7, #12]
 8003a20:	6c1b      	ldr	r3, [r3, #64]	; 0x40
 8003a22:	f043 0204 	orr.w	r2, r3, #4
 8003a26:	68fb      	ldr	r3, [r7, #12]
 8003a28:	641a      	str	r2, [r3, #64]	; 0x40

      /* Process Unlocked */
      __HAL_UNLOCK(hi2c);
 8003a2a:	68fb      	ldr	r3, [r7, #12]
 8003a2c:	2200      	movs	r2, #0
 8003a2e:	f883 203c 	strb.w	r2, [r3, #60]	; 0x3c

      return HAL_ERROR;
 8003a32:	2301      	movs	r3, #1
 8003a34:	e046      	b.n	8003ac4 <I2C_WaitOnMasterAddressFlagUntilTimeout+0xf6>
    }

    /* Check for the Timeout */
    if (Timeout != HAL_MAX_DELAY)
 8003a36:	687b      	ldr	r3, [r7, #4]
 8003a38:	f1b3 3fff 	cmp.w	r3, #4294967295	; 0xffffffff
 8003a3c:	d021      	beq.n	8003a82 <I2C_WaitOnMasterAddressFlagUntilTimeout+0xb4>
    {
      if (((HAL_GetTick() - Tickstart) > Timeout) || (Timeout == 0U))
 8003a3e:	f7ff f8cf 	bl	8002be0 <HAL_GetTick>
 8003a42:	4602      	mov	r2, r0
 8003a44:	683b      	ldr	r3, [r7, #0]
 8003a46:	1ad3      	subs	r3, r2, r3
 8003a48:	687a      	ldr	r2, [r7, #4]
 8003a4a:	429a      	cmp	r2, r3
 8003a4c:	d302      	bcc.n	8003a54 <I2C_WaitOnMasterAddressFlagUntilTimeout+0x86>
 8003a4e:	687b      	ldr	r3, [r7, #4]
 8003a50:	2b00      	cmp	r3, #0
 8003a52:	d116      	bne.n	8003a82 <I2C_WaitOnMasterAddressFlagUntilTimeout+0xb4>
      {
        hi2c->PreviousState       = I2C_STATE_NONE;
 8003a54:	68fb      	ldr	r3, [r7, #12]
 8003a56:	2200      	movs	r2, #0
 8003a58:	631a      	str	r2, [r3, #48]	; 0x30
        hi2c->State               = HAL_I2C_STATE_READY;
 8003a5a:	68fb      	ldr	r3, [r7, #12]
 8003a5c:	2220      	movs	r2, #32
 8003a5e:	f883 203d 	strb.w	r2, [r3, #61]	; 0x3d
        hi2c->Mode                = HAL_I2C_MODE_NONE;
 8003a62:	68fb      	ldr	r3, [r7, #12]
 8003a64:	2200      	movs	r2, #0
 8003a66:	f883 203e 	strb.w	r2, [r3, #62]	; 0x3e
        hi2c->ErrorCode           |= HAL_I2C_ERROR_TIMEOUT;
 8003a6a:	68fb      	ldr	r3, [r7, #12]
 8003a6c:	6c1b      	ldr	r3, [r3, #64]	; 0x40
 8003a6e:	f043 0220 	orr.w	r2, r3, #32
 8003a72:	68fb      	ldr	r3, [r7, #12]
 8003a74:	641a      	str	r2, [r3, #64]	; 0x40

        /* Process Unlocked */
        __HAL_UNLOCK(hi2c);
 8003a76:	68fb      	ldr	r3, [r7, #12]
 8003a78:	2200      	movs	r2, #0
 8003a7a:	f883 203c 	strb.w	r2, [r3, #60]	; 0x3c

        return HAL_ERROR;
 8003a7e:	2301      	movs	r3, #1
 8003a80:	e020      	b.n	8003ac4 <I2C_WaitOnMasterAddressFlagUntilTimeout+0xf6>
  while (__HAL_I2C_GET_FLAG(hi2c, Flag) == RESET)
 8003a82:	68bb      	ldr	r3, [r7, #8]
 8003a84:	0c1b      	lsrs	r3, r3, #16
 8003a86:	b2db      	uxtb	r3, r3
 8003a88:	2b01      	cmp	r3, #1
 8003a8a:	d10c      	bne.n	8003aa6 <I2C_WaitOnMasterAddressFlagUntilTimeout+0xd8>
 8003a8c:	68fb      	ldr	r3, [r7, #12]
 8003a8e:	681b      	ldr	r3, [r3, #0]
 8003a90:	695b      	ldr	r3, [r3, #20]
 8003a92:	43da      	mvns	r2, r3
 8003a94:	68bb      	ldr	r3, [r7, #8]
 8003a96:	4013      	ands	r3, r2
 8003a98:	b29b      	uxth	r3, r3
 8003a9a:	2b00      	cmp	r3, #0
 8003a9c:	bf14      	ite	ne
 8003a9e:	2301      	movne	r3, #1
 8003aa0:	2300      	moveq	r3, #0
 8003aa2:	b2db      	uxtb	r3, r3
 8003aa4:	e00b      	b.n	8003abe <I2C_WaitOnMasterAddressFlagUntilTimeout+0xf0>
 8003aa6:	68fb      	ldr	r3, [r7, #12]
 8003aa8:	681b      	ldr	r3, [r3, #0]
 8003aaa:	699b      	ldr	r3, [r3, #24]
 8003aac:	43da      	mvns	r2, r3
 8003aae:	68bb      	ldr	r3, [r7, #8]
 8003ab0:	4013      	ands	r3, r2
 8003ab2:	b29b      	uxth	r3, r3
 8003ab4:	2b00      	cmp	r3, #0
 8003ab6:	bf14      	ite	ne
 8003ab8:	2301      	movne	r3, #1
 8003aba:	2300      	moveq	r3, #0
 8003abc:	b2db      	uxtb	r3, r3
 8003abe:	2b00      	cmp	r3, #0
 8003ac0:	d18d      	bne.n	80039de <I2C_WaitOnMasterAddressFlagUntilTimeout+0x10>
      }
    }
  }
  return HAL_OK;
 8003ac2:	2300      	movs	r3, #0
}
 8003ac4:	4618      	mov	r0, r3
 8003ac6:	3710      	adds	r7, #16
 8003ac8:	46bd      	mov	sp, r7
 8003aca:	bd80      	pop	{r7, pc}

08003acc <I2C_WaitOnTXEFlagUntilTimeout>:
  * @param  Timeout Timeout duration
  * @param  Tickstart Tick start value
  * @retval HAL status
  */
static HAL_StatusTypeDef I2C_WaitOnTXEFlagUntilTimeout(I2C_HandleTypeDef *hi2c, uint32_t Timeout, uint32_t Tickstart)
{
 8003acc:	b580      	push	{r7, lr}
 8003ace:	b084      	sub	sp, #16
 8003ad0:	af00      	add	r7, sp, #0
 8003ad2:	60f8      	str	r0, [r7, #12]
 8003ad4:	60b9      	str	r1, [r7, #8]
 8003ad6:	607a      	str	r2, [r7, #4]
  while (__HAL_I2C_GET_FLAG(hi2c, I2C_FLAG_TXE) == RESET)
 8003ad8:	e02d      	b.n	8003b36 <I2C_WaitOnTXEFlagUntilTimeout+0x6a>
  {
    /* Check if a NACK is detected */
    if (I2C_IsAcknowledgeFailed(hi2c) != HAL_OK)
 8003ada:	68f8      	ldr	r0, [r7, #12]
 8003adc:	f000 f878 	bl	8003bd0 <I2C_IsAcknowledgeFailed>
 8003ae0:	4603      	mov	r3, r0
 8003ae2:	2b00      	cmp	r3, #0
 8003ae4:	d001      	beq.n	8003aea <I2C_WaitOnTXEFlagUntilTimeout+0x1e>
    {
      return HAL_ERROR;
 8003ae6:	2301      	movs	r3, #1
 8003ae8:	e02d      	b.n	8003b46 <I2C_WaitOnTXEFlagUntilTimeout+0x7a>
    }

    /* Check for the Timeout */
    if (Timeout != HAL_MAX_DELAY)
 8003aea:	68bb      	ldr	r3, [r7, #8]
 8003aec:	f1b3 3fff 	cmp.w	r3, #4294967295	; 0xffffffff
 8003af0:	d021      	beq.n	8003b36 <I2C_WaitOnTXEFlagUntilTimeout+0x6a>
    {
      if (((HAL_GetTick() - Tickstart) > Timeout) || (Timeout == 0U))
 8003af2:	f7ff f875 	bl	8002be0 <HAL_GetTick>
 8003af6:	4602      	mov	r2, r0
 8003af8:	687b      	ldr	r3, [r7, #4]
 8003afa:	1ad3      	subs	r3, r2, r3
 8003afc:	68ba      	ldr	r2, [r7, #8]
 8003afe:	429a      	cmp	r2, r3
 8003b00:	d302      	bcc.n	8003b08 <I2C_WaitOnTXEFlagUntilTimeout+0x3c>
 8003b02:	68bb      	ldr	r3, [r7, #8]
 8003b04:	2b00      	cmp	r3, #0
 8003b06:	d116      	bne.n	8003b36 <I2C_WaitOnTXEFlagUntilTimeout+0x6a>
      {
        hi2c->PreviousState       = I2C_STATE_NONE;
 8003b08:	68fb      	ldr	r3, [r7, #12]
 8003b0a:	2200      	movs	r2, #0
 8003b0c:	631a      	str	r2, [r3, #48]	; 0x30
        hi2c->State               = HAL_I2C_STATE_READY;
 8003b0e:	68fb      	ldr	r3, [r7, #12]
 8003b10:	2220      	movs	r2, #32
 8003b12:	f883 203d 	strb.w	r2, [r3, #61]	; 0x3d
        hi2c->Mode                = HAL_I2C_MODE_NONE;
 8003b16:	68fb      	ldr	r3, [r7, #12]
 8003b18:	2200      	movs	r2, #0
 8003b1a:	f883 203e 	strb.w	r2, [r3, #62]	; 0x3e
        hi2c->ErrorCode           |= HAL_I2C_ERROR_TIMEOUT;
 8003b1e:	68fb      	ldr	r3, [r7, #12]
 8003b20:	6c1b      	ldr	r3, [r3, #64]	; 0x40
 8003b22:	f043 0220 	orr.w	r2, r3, #32
 8003b26:	68fb      	ldr	r3, [r7, #12]
 8003b28:	641a      	str	r2, [r3, #64]	; 0x40

        /* Process Unlocked */
        __HAL_UNLOCK(hi2c);
 8003b2a:	68fb      	ldr	r3, [r7, #12]
 8003b2c:	2200      	movs	r2, #0
 8003b2e:	f883 203c 	strb.w	r2, [r3, #60]	; 0x3c

        return HAL_ERROR;
 8003b32:	2301      	movs	r3, #1
 8003b34:	e007      	b.n	8003b46 <I2C_WaitOnTXEFlagUntilTimeout+0x7a>
  while (__HAL_I2C_GET_FLAG(hi2c, I2C_FLAG_TXE) == RESET)
 8003b36:	68fb      	ldr	r3, [r7, #12]
 8003b38:	681b      	ldr	r3, [r3, #0]
 8003b3a:	695b      	ldr	r3, [r3, #20]
 8003b3c:	f003 0380 	and.w	r3, r3, #128	; 0x80
 8003b40:	2b80      	cmp	r3, #128	; 0x80
 8003b42:	d1ca      	bne.n	8003ada <I2C_WaitOnTXEFlagUntilTimeout+0xe>
      }
    }
  }
  return HAL_OK;
 8003b44:	2300      	movs	r3, #0
}
 8003b46:	4618      	mov	r0, r3
 8003b48:	3710      	adds	r7, #16
 8003b4a:	46bd      	mov	sp, r7
 8003b4c:	bd80      	pop	{r7, pc}

08003b4e <I2C_WaitOnBTFFlagUntilTimeout>:
  * @param  Timeout Timeout duration
  * @param  Tickstart Tick start value
  * @retval HAL status
  */
static HAL_StatusTypeDef I2C_WaitOnBTFFlagUntilTimeout(I2C_HandleTypeDef *hi2c, uint32_t Timeout, uint32_t Tickstart)
{
 8003b4e:	b580      	push	{r7, lr}
 8003b50:	b084      	sub	sp, #16
 8003b52:	af00      	add	r7, sp, #0
 8003b54:	60f8      	str	r0, [r7, #12]
 8003b56:	60b9      	str	r1, [r7, #8]
 8003b58:	607a      	str	r2, [r7, #4]
  while (__HAL_I2C_GET_FLAG(hi2c, I2C_FLAG_BTF) == RESET)
 8003b5a:	e02d      	b.n	8003bb8 <I2C_WaitOnBTFFlagUntilTimeout+0x6a>
  {
    /* Check if a NACK is detected */
    if (I2C_IsAcknowledgeFailed(hi2c) != HAL_OK)
 8003b5c:	68f8      	ldr	r0, [r7, #12]
 8003b5e:	f000 f837 	bl	8003bd0 <I2C_IsAcknowledgeFailed>
 8003b62:	4603      	mov	r3, r0
 8003b64:	2b00      	cmp	r3, #0
 8003b66:	d001      	beq.n	8003b6c <I2C_WaitOnBTFFlagUntilTimeout+0x1e>
    {
      return HAL_ERROR;
 8003b68:	2301      	movs	r3, #1
 8003b6a:	e02d      	b.n	8003bc8 <I2C_WaitOnBTFFlagUntilTimeout+0x7a>
    }

    /* Check for the Timeout */
    if (Timeout != HAL_MAX_DELAY)
 8003b6c:	68bb      	ldr	r3, [r7, #8]
 8003b6e:	f1b3 3fff 	cmp.w	r3, #4294967295	; 0xffffffff
 8003b72:	d021      	beq.n	8003bb8 <I2C_WaitOnBTFFlagUntilTimeout+0x6a>
    {
      if (((HAL_GetTick() - Tickstart) > Timeout) || (Timeout == 0U))
 8003b74:	f7ff f834 	bl	8002be0 <HAL_GetTick>
 8003b78:	4602      	mov	r2, r0
 8003b7a:	687b      	ldr	r3, [r7, #4]
 8003b7c:	1ad3      	subs	r3, r2, r3
 8003b7e:	68ba      	ldr	r2, [r7, #8]
 8003b80:	429a      	cmp	r2, r3
 8003b82:	d302      	bcc.n	8003b8a <I2C_WaitOnBTFFlagUntilTimeout+0x3c>
 8003b84:	68bb      	ldr	r3, [r7, #8]
 8003b86:	2b00      	cmp	r3, #0
 8003b88:	d116      	bne.n	8003bb8 <I2C_WaitOnBTFFlagUntilTimeout+0x6a>
      {
        hi2c->PreviousState       = I2C_STATE_NONE;
 8003b8a:	68fb      	ldr	r3, [r7, #12]
 8003b8c:	2200      	movs	r2, #0
 8003b8e:	631a      	str	r2, [r3, #48]	; 0x30
        hi2c->State               = HAL_I2C_STATE_READY;
 8003b90:	68fb      	ldr	r3, [r7, #12]
 8003b92:	2220      	movs	r2, #32
 8003b94:	f883 203d 	strb.w	r2, [r3, #61]	; 0x3d
        hi2c->Mode                = HAL_I2C_MODE_NONE;
 8003b98:	68fb      	ldr	r3, [r7, #12]
 8003b9a:	2200      	movs	r2, #0
 8003b9c:	f883 203e 	strb.w	r2, [r3, #62]	; 0x3e
        hi2c->ErrorCode           |= HAL_I2C_ERROR_TIMEOUT;
 8003ba0:	68fb      	ldr	r3, [r7, #12]
 8003ba2:	6c1b      	ldr	r3, [r3, #64]	; 0x40
 8003ba4:	f043 0220 	orr.w	r2, r3, #32
 8003ba8:	68fb      	ldr	r3, [r7, #12]
 8003baa:	641a      	str	r2, [r3, #64]	; 0x40

        /* Process Unlocked */
        __HAL_UNLOCK(hi2c);
 8003bac:	68fb      	ldr	r3, [r7, #12]
 8003bae:	2200      	movs	r2, #0
 8003bb0:	f883 203c 	strb.w	r2, [r3, #60]	; 0x3c

        return HAL_ERROR;
 8003bb4:	2301      	movs	r3, #1
 8003bb6:	e007      	b.n	8003bc8 <I2C_WaitOnBTFFlagUntilTimeout+0x7a>
  while (__HAL_I2C_GET_FLAG(hi2c, I2C_FLAG_BTF) == RESET)
 8003bb8:	68fb      	ldr	r3, [r7, #12]
 8003bba:	681b      	ldr	r3, [r3, #0]
 8003bbc:	695b      	ldr	r3, [r3, #20]
 8003bbe:	f003 0304 	and.w	r3, r3, #4
 8003bc2:	2b04      	cmp	r3, #4
 8003bc4:	d1ca      	bne.n	8003b5c <I2C_WaitOnBTFFlagUntilTimeout+0xe>
      }
    }
  }
  return HAL_OK;
 8003bc6:	2300      	movs	r3, #0
}
 8003bc8:	4618      	mov	r0, r3
 8003bca:	3710      	adds	r7, #16
 8003bcc:	46bd      	mov	sp, r7
 8003bce:	bd80      	pop	{r7, pc}

08003bd0 <I2C_IsAcknowledgeFailed>:
  * @param  hi2c Pointer to a I2C_HandleTypeDef structure that contains
  *                the configuration information for the specified I2C.
  * @retval HAL status
  */
static HAL_StatusTypeDef I2C_IsAcknowledgeFailed(I2C_HandleTypeDef *hi2c)
{
 8003bd0:	b480      	push	{r7}
 8003bd2:	b083      	sub	sp, #12
 8003bd4:	af00      	add	r7, sp, #0
 8003bd6:	6078      	str	r0, [r7, #4]
  if (__HAL_I2C_GET_FLAG(hi2c, I2C_FLAG_AF) == SET)
 8003bd8:	687b      	ldr	r3, [r7, #4]
 8003bda:	681b      	ldr	r3, [r3, #0]
 8003bdc:	695b      	ldr	r3, [r3, #20]
 8003bde:	f403 6380 	and.w	r3, r3, #1024	; 0x400
 8003be2:	f5b3 6f80 	cmp.w	r3, #1024	; 0x400
 8003be6:	d11b      	bne.n	8003c20 <I2C_IsAcknowledgeFailed+0x50>
  {
    /* Clear NACKF Flag */
    __HAL_I2C_CLEAR_FLAG(hi2c, I2C_FLAG_AF);
 8003be8:	687b      	ldr	r3, [r7, #4]
 8003bea:	681b      	ldr	r3, [r3, #0]
 8003bec:	f46f 6280 	mvn.w	r2, #1024	; 0x400
 8003bf0:	615a      	str	r2, [r3, #20]

    hi2c->PreviousState       = I2C_STATE_NONE;
 8003bf2:	687b      	ldr	r3, [r7, #4]
 8003bf4:	2200      	movs	r2, #0
 8003bf6:	631a      	str	r2, [r3, #48]	; 0x30
    hi2c->State               = HAL_I2C_STATE_READY;
 8003bf8:	687b      	ldr	r3, [r7, #4]
 8003bfa:	2220      	movs	r2, #32
 8003bfc:	f883 203d 	strb.w	r2, [r3, #61]	; 0x3d
    hi2c->Mode                = HAL_I2C_MODE_NONE;
 8003c00:	687b      	ldr	r3, [r7, #4]
 8003c02:	2200      	movs	r2, #0
 8003c04:	f883 203e 	strb.w	r2, [r3, #62]	; 0x3e
    hi2c->ErrorCode           |= HAL_I2C_ERROR_AF;
 8003c08:	687b      	ldr	r3, [r7, #4]
 8003c0a:	6c1b      	ldr	r3, [r3, #64]	; 0x40
 8003c0c:	f043 0204 	orr.w	r2, r3, #4
 8003c10:	687b      	ldr	r3, [r7, #4]
 8003c12:	641a      	str	r2, [r3, #64]	; 0x40

    /* Process Unlocked */
    __HAL_UNLOCK(hi2c);
 8003c14:	687b      	ldr	r3, [r7, #4]
 8003c16:	2200      	movs	r2, #0
 8003c18:	f883 203c 	strb.w	r2, [r3, #60]	; 0x3c

    return HAL_ERROR;
 8003c1c:	2301      	movs	r3, #1
 8003c1e:	e000      	b.n	8003c22 <I2C_IsAcknowledgeFailed+0x52>
  }
  return HAL_OK;
 8003c20:	2300      	movs	r3, #0
}
 8003c22:	4618      	mov	r0, r3
 8003c24:	370c      	adds	r7, #12
 8003c26:	46bd      	mov	sp, r7
 8003c28:	f85d 7b04 	ldr.w	r7, [sp], #4
 8003c2c:	4770      	bx	lr
	...

08003c30 <HAL_RCC_OscConfig>:
  *         supported by this API. User should request a transition to HSE Off
  *         first and then HSE On or HSE Bypass.
  * @retval HAL status
  */
__weak HAL_StatusTypeDef HAL_RCC_OscConfig(RCC_OscInitTypeDef  *RCC_OscInitStruct)
{
 8003c30:	b580      	push	{r7, lr}
 8003c32:	b086      	sub	sp, #24
 8003c34:	af00      	add	r7, sp, #0
 8003c36:	6078      	str	r0, [r7, #4]
  uint32_t tickstart, pll_config;

  /* Check Null pointer */
  if(RCC_OscInitStruct == NULL)
 8003c38:	687b      	ldr	r3, [r7, #4]
 8003c3a:	2b00      	cmp	r3, #0
 8003c3c:	d101      	bne.n	8003c42 <HAL_RCC_OscConfig+0x12>
  {
    return HAL_ERROR;
 8003c3e:	2301      	movs	r3, #1
 8003c40:	e267      	b.n	8004112 <HAL_RCC_OscConfig+0x4e2>
  }

  /* Check the parameters */
  assert_param(IS_RCC_OSCILLATORTYPE(RCC_OscInitStruct->OscillatorType));
  /*------------------------------- HSE Configuration ------------------------*/
  if(((RCC_OscInitStruct->OscillatorType) & RCC_OSCILLATORTYPE_HSE) == RCC_OSCILLATORTYPE_HSE)
 8003c42:	687b      	ldr	r3, [r7, #4]
 8003c44:	681b      	ldr	r3, [r3, #0]
 8003c46:	f003 0301 	and.w	r3, r3, #1
 8003c4a:	2b00      	cmp	r3, #0
 8003c4c:	d075      	beq.n	8003d3a <HAL_RCC_OscConfig+0x10a>
  {
    /* Check the parameters */
    assert_param(IS_RCC_HSE(RCC_OscInitStruct->HSEState));
    /* When the HSE is used as system clock or clock source for PLL in these cases HSE will not disabled */
    if((__HAL_RCC_GET_SYSCLK_SOURCE() == RCC_CFGR_SWS_HSE) ||\
 8003c4e:	4b88      	ldr	r3, [pc, #544]	; (8003e70 <HAL_RCC_OscConfig+0x240>)
 8003c50:	689b      	ldr	r3, [r3, #8]
 8003c52:	f003 030c 	and.w	r3, r3, #12
 8003c56:	2b04      	cmp	r3, #4
 8003c58:	d00c      	beq.n	8003c74 <HAL_RCC_OscConfig+0x44>
      ((__HAL_RCC_GET_SYSCLK_SOURCE() == RCC_CFGR_SWS_PLL) && ((RCC->PLLCFGR & RCC_PLLCFGR_PLLSRC) == RCC_PLLCFGR_PLLSRC_HSE)))
 8003c5a:	4b85      	ldr	r3, [pc, #532]	; (8003e70 <HAL_RCC_OscConfig+0x240>)
 8003c5c:	689b      	ldr	r3, [r3, #8]
 8003c5e:	f003 030c 	and.w	r3, r3, #12
    if((__HAL_RCC_GET_SYSCLK_SOURCE() == RCC_CFGR_SWS_HSE) ||\
 8003c62:	2b08      	cmp	r3, #8
 8003c64:	d112      	bne.n	8003c8c <HAL_RCC_OscConfig+0x5c>
      ((__HAL_RCC_GET_SYSCLK_SOURCE() == RCC_CFGR_SWS_PLL) && ((RCC->PLLCFGR & RCC_PLLCFGR_PLLSRC) == RCC_PLLCFGR_PLLSRC_HSE)))
 8003c66:	4b82      	ldr	r3, [pc, #520]	; (8003e70 <HAL_RCC_OscConfig+0x240>)
 8003c68:	685b      	ldr	r3, [r3, #4]
 8003c6a:	f403 0380 	and.w	r3, r3, #4194304	; 0x400000
 8003c6e:	f5b3 0f80 	cmp.w	r3, #4194304	; 0x400000
 8003c72:	d10b      	bne.n	8003c8c <HAL_RCC_OscConfig+0x5c>
    {
      if((__HAL_RCC_GET_FLAG(RCC_FLAG_HSERDY) != RESET) && (RCC_OscInitStruct->HSEState == RCC_HSE_OFF))
 8003c74:	4b7e      	ldr	r3, [pc, #504]	; (8003e70 <HAL_RCC_OscConfig+0x240>)
 8003c76:	681b      	ldr	r3, [r3, #0]
 8003c78:	f403 3300 	and.w	r3, r3, #131072	; 0x20000
 8003c7c:	2b00      	cmp	r3, #0
 8003c7e:	d05b      	beq.n	8003d38 <HAL_RCC_OscConfig+0x108>
 8003c80:	687b      	ldr	r3, [r7, #4]
 8003c82:	685b      	ldr	r3, [r3, #4]
 8003c84:	2b00      	cmp	r3, #0
 8003c86:	d157      	bne.n	8003d38 <HAL_RCC_OscConfig+0x108>
      {
        return HAL_ERROR;
 8003c88:	2301      	movs	r3, #1
 8003c8a:	e242      	b.n	8004112 <HAL_RCC_OscConfig+0x4e2>
      }
    }
    else
    {
      /* Set the new HSE configuration ---------------------------------------*/
      __HAL_RCC_HSE_CONFIG(RCC_OscInitStruct->HSEState);
 8003c8c:	687b      	ldr	r3, [r7, #4]
 8003c8e:	685b      	ldr	r3, [r3, #4]
 8003c90:	f5b3 3f80 	cmp.w	r3, #65536	; 0x10000
 8003c94:	d106      	bne.n	8003ca4 <HAL_RCC_OscConfig+0x74>
 8003c96:	4b76      	ldr	r3, [pc, #472]	; (8003e70 <HAL_RCC_OscConfig+0x240>)
 8003c98:	681b      	ldr	r3, [r3, #0]
 8003c9a:	4a75      	ldr	r2, [pc, #468]	; (8003e70 <HAL_RCC_OscConfig+0x240>)
 8003c9c:	f443 3380 	orr.w	r3, r3, #65536	; 0x10000
 8003ca0:	6013      	str	r3, [r2, #0]
 8003ca2:	e01d      	b.n	8003ce0 <HAL_RCC_OscConfig+0xb0>
 8003ca4:	687b      	ldr	r3, [r7, #4]
 8003ca6:	685b      	ldr	r3, [r3, #4]
 8003ca8:	f5b3 2fa0 	cmp.w	r3, #327680	; 0x50000
 8003cac:	d10c      	bne.n	8003cc8 <HAL_RCC_OscConfig+0x98>
 8003cae:	4b70      	ldr	r3, [pc, #448]	; (8003e70 <HAL_RCC_OscConfig+0x240>)
 8003cb0:	681b      	ldr	r3, [r3, #0]
 8003cb2:	4a6f      	ldr	r2, [pc, #444]	; (8003e70 <HAL_RCC_OscConfig+0x240>)
 8003cb4:	f443 2380 	orr.w	r3, r3, #262144	; 0x40000
 8003cb8:	6013      	str	r3, [r2, #0]
 8003cba:	4b6d      	ldr	r3, [pc, #436]	; (8003e70 <HAL_RCC_OscConfig+0x240>)
 8003cbc:	681b      	ldr	r3, [r3, #0]
 8003cbe:	4a6c      	ldr	r2, [pc, #432]	; (8003e70 <HAL_RCC_OscConfig+0x240>)
 8003cc0:	f443 3380 	orr.w	r3, r3, #65536	; 0x10000
 8003cc4:	6013      	str	r3, [r2, #0]
 8003cc6:	e00b      	b.n	8003ce0 <HAL_RCC_OscConfig+0xb0>
 8003cc8:	4b69      	ldr	r3, [pc, #420]	; (8003e70 <HAL_RCC_OscConfig+0x240>)
 8003cca:	681b      	ldr	r3, [r3, #0]
 8003ccc:	4a68      	ldr	r2, [pc, #416]	; (8003e70 <HAL_RCC_OscConfig+0x240>)
 8003cce:	f423 3380 	bic.w	r3, r3, #65536	; 0x10000
 8003cd2:	6013      	str	r3, [r2, #0]
 8003cd4:	4b66      	ldr	r3, [pc, #408]	; (8003e70 <HAL_RCC_OscConfig+0x240>)
 8003cd6:	681b      	ldr	r3, [r3, #0]
 8003cd8:	4a65      	ldr	r2, [pc, #404]	; (8003e70 <HAL_RCC_OscConfig+0x240>)
 8003cda:	f423 2380 	bic.w	r3, r3, #262144	; 0x40000
 8003cde:	6013      	str	r3, [r2, #0]

      /* Check the HSE State */
      if((RCC_OscInitStruct->HSEState) != RCC_HSE_OFF)
 8003ce0:	687b      	ldr	r3, [r7, #4]
 8003ce2:	685b      	ldr	r3, [r3, #4]
 8003ce4:	2b00      	cmp	r3, #0
 8003ce6:	d013      	beq.n	8003d10 <HAL_RCC_OscConfig+0xe0>
      {
        /* Get Start Tick */
        tickstart = HAL_GetTick();
 8003ce8:	f7fe ff7a 	bl	8002be0 <HAL_GetTick>
 8003cec:	6138      	str	r0, [r7, #16]

        /* Wait till HSE is ready */
        while(__HAL_RCC_GET_FLAG(RCC_FLAG_HSERDY) == RESET)
 8003cee:	e008      	b.n	8003d02 <HAL_RCC_OscConfig+0xd2>
        {
          if((HAL_GetTick() - tickstart ) > HSE_TIMEOUT_VALUE)
 8003cf0:	f7fe ff76 	bl	8002be0 <HAL_GetTick>
 8003cf4:	4602      	mov	r2, r0
 8003cf6:	693b      	ldr	r3, [r7, #16]
 8003cf8:	1ad3      	subs	r3, r2, r3
 8003cfa:	2b64      	cmp	r3, #100	; 0x64
 8003cfc:	d901      	bls.n	8003d02 <HAL_RCC_OscConfig+0xd2>
          {
            return HAL_TIMEOUT;
 8003cfe:	2303      	movs	r3, #3
 8003d00:	e207      	b.n	8004112 <HAL_RCC_OscConfig+0x4e2>
        while(__HAL_RCC_GET_FLAG(RCC_FLAG_HSERDY) == RESET)
 8003d02:	4b5b      	ldr	r3, [pc, #364]	; (8003e70 <HAL_RCC_OscConfig+0x240>)
 8003d04:	681b      	ldr	r3, [r3, #0]
 8003d06:	f403 3300 	and.w	r3, r3, #131072	; 0x20000
 8003d0a:	2b00      	cmp	r3, #0
 8003d0c:	d0f0      	beq.n	8003cf0 <HAL_RCC_OscConfig+0xc0>
 8003d0e:	e014      	b.n	8003d3a <HAL_RCC_OscConfig+0x10a>
        }
      }
      else
      {
        /* Get Start Tick */
        tickstart = HAL_GetTick();
 8003d10:	f7fe ff66 	bl	8002be0 <HAL_GetTick>
 8003d14:	6138      	str	r0, [r7, #16]

        /* Wait till HSE is bypassed or disabled */
        while(__HAL_RCC_GET_FLAG(RCC_FLAG_HSERDY) != RESET)
 8003d16:	e008      	b.n	8003d2a <HAL_RCC_OscConfig+0xfa>
        {
          if((HAL_GetTick() - tickstart ) > HSE_TIMEOUT_VALUE)
 8003d18:	f7fe ff62 	bl	8002be0 <HAL_GetTick>
 8003d1c:	4602      	mov	r2, r0
 8003d1e:	693b      	ldr	r3, [r7, #16]
 8003d20:	1ad3      	subs	r3, r2, r3
 8003d22:	2b64      	cmp	r3, #100	; 0x64
 8003d24:	d901      	bls.n	8003d2a <HAL_RCC_OscConfig+0xfa>
          {
            return HAL_TIMEOUT;
 8003d26:	2303      	movs	r3, #3
 8003d28:	e1f3      	b.n	8004112 <HAL_RCC_OscConfig+0x4e2>
        while(__HAL_RCC_GET_FLAG(RCC_FLAG_HSERDY) != RESET)
 8003d2a:	4b51      	ldr	r3, [pc, #324]	; (8003e70 <HAL_RCC_OscConfig+0x240>)
 8003d2c:	681b      	ldr	r3, [r3, #0]
 8003d2e:	f403 3300 	and.w	r3, r3, #131072	; 0x20000
 8003d32:	2b00      	cmp	r3, #0
 8003d34:	d1f0      	bne.n	8003d18 <HAL_RCC_OscConfig+0xe8>
 8003d36:	e000      	b.n	8003d3a <HAL_RCC_OscConfig+0x10a>
      if((__HAL_RCC_GET_FLAG(RCC_FLAG_HSERDY) != RESET) && (RCC_OscInitStruct->HSEState == RCC_HSE_OFF))
 8003d38:	bf00      	nop
        }
      }
    }
  }
  /*----------------------------- HSI Configuration --------------------------*/
  if(((RCC_OscInitStruct->OscillatorType) & RCC_OSCILLATORTYPE_HSI) == RCC_OSCILLATORTYPE_HSI)
 8003d3a:	687b      	ldr	r3, [r7, #4]
 8003d3c:	681b      	ldr	r3, [r3, #0]
 8003d3e:	f003 0302 	and.w	r3, r3, #2
 8003d42:	2b00      	cmp	r3, #0
 8003d44:	d063      	beq.n	8003e0e <HAL_RCC_OscConfig+0x1de>
    /* Check the parameters */
    assert_param(IS_RCC_HSI(RCC_OscInitStruct->HSIState));
    assert_param(IS_RCC_CALIBRATION_VALUE(RCC_OscInitStruct->HSICalibrationValue));

    /* Check if HSI is used as system clock or as PLL source when PLL is selected as system clock */
    if((__HAL_RCC_GET_SYSCLK_SOURCE() == RCC_CFGR_SWS_HSI) ||\
 8003d46:	4b4a      	ldr	r3, [pc, #296]	; (8003e70 <HAL_RCC_OscConfig+0x240>)
 8003d48:	689b      	ldr	r3, [r3, #8]
 8003d4a:	f003 030c 	and.w	r3, r3, #12
 8003d4e:	2b00      	cmp	r3, #0
 8003d50:	d00b      	beq.n	8003d6a <HAL_RCC_OscConfig+0x13a>
      ((__HAL_RCC_GET_SYSCLK_SOURCE() == RCC_CFGR_SWS_PLL) && ((RCC->PLLCFGR & RCC_PLLCFGR_PLLSRC) == RCC_PLLCFGR_PLLSRC_HSI)))
 8003d52:	4b47      	ldr	r3, [pc, #284]	; (8003e70 <HAL_RCC_OscConfig+0x240>)
 8003d54:	689b      	ldr	r3, [r3, #8]
 8003d56:	f003 030c 	and.w	r3, r3, #12
    if((__HAL_RCC_GET_SYSCLK_SOURCE() == RCC_CFGR_SWS_HSI) ||\
 8003d5a:	2b08      	cmp	r3, #8
 8003d5c:	d11c      	bne.n	8003d98 <HAL_RCC_OscConfig+0x168>
      ((__HAL_RCC_GET_SYSCLK_SOURCE() == RCC_CFGR_SWS_PLL) && ((RCC->PLLCFGR & RCC_PLLCFGR_PLLSRC) == RCC_PLLCFGR_PLLSRC_HSI)))
 8003d5e:	4b44      	ldr	r3, [pc, #272]	; (8003e70 <HAL_RCC_OscConfig+0x240>)
 8003d60:	685b      	ldr	r3, [r3, #4]
 8003d62:	f403 0380 	and.w	r3, r3, #4194304	; 0x400000
 8003d66:	2b00      	cmp	r3, #0
 8003d68:	d116      	bne.n	8003d98 <HAL_RCC_OscConfig+0x168>
    {
      /* When HSI is used as system clock it will not disabled */
      if((__HAL_RCC_GET_FLAG(RCC_FLAG_HSIRDY) != RESET) && (RCC_OscInitStruct->HSIState != RCC_HSI_ON))
 8003d6a:	4b41      	ldr	r3, [pc, #260]	; (8003e70 <HAL_RCC_OscConfig+0x240>)
 8003d6c:	681b      	ldr	r3, [r3, #0]
 8003d6e:	f003 0302 	and.w	r3, r3, #2
 8003d72:	2b00      	cmp	r3, #0
 8003d74:	d005      	beq.n	8003d82 <HAL_RCC_OscConfig+0x152>
 8003d76:	687b      	ldr	r3, [r7, #4]
 8003d78:	68db      	ldr	r3, [r3, #12]
 8003d7a:	2b01      	cmp	r3, #1
 8003d7c:	d001      	beq.n	8003d82 <HAL_RCC_OscConfig+0x152>
      {
        return HAL_ERROR;
 8003d7e:	2301      	movs	r3, #1
 8003d80:	e1c7      	b.n	8004112 <HAL_RCC_OscConfig+0x4e2>
      }
      /* Otherwise, just the calibration is allowed */
      else
      {
        /* Adjusts the Internal High Speed oscillator (HSI) calibration value.*/
        __HAL_RCC_HSI_CALIBRATIONVALUE_ADJUST(RCC_OscInitStruct->HSICalibrationValue);
 8003d82:	4b3b      	ldr	r3, [pc, #236]	; (8003e70 <HAL_RCC_OscConfig+0x240>)
 8003d84:	681b      	ldr	r3, [r3, #0]
 8003d86:	f023 02f8 	bic.w	r2, r3, #248	; 0xf8
 8003d8a:	687b      	ldr	r3, [r7, #4]
 8003d8c:	691b      	ldr	r3, [r3, #16]
 8003d8e:	00db      	lsls	r3, r3, #3
 8003d90:	4937      	ldr	r1, [pc, #220]	; (8003e70 <HAL_RCC_OscConfig+0x240>)
 8003d92:	4313      	orrs	r3, r2
 8003d94:	600b      	str	r3, [r1, #0]
      if((__HAL_RCC_GET_FLAG(RCC_FLAG_HSIRDY) != RESET) && (RCC_OscInitStruct->HSIState != RCC_HSI_ON))
 8003d96:	e03a      	b.n	8003e0e <HAL_RCC_OscConfig+0x1de>
      }
    }
    else
    {
      /* Check the HSI State */
      if((RCC_OscInitStruct->HSIState)!= RCC_HSI_OFF)
 8003d98:	687b      	ldr	r3, [r7, #4]
 8003d9a:	68db      	ldr	r3, [r3, #12]
 8003d9c:	2b00      	cmp	r3, #0
 8003d9e:	d020      	beq.n	8003de2 <HAL_RCC_OscConfig+0x1b2>
      {
        /* Enable the Internal High Speed oscillator (HSI). */
        __HAL_RCC_HSI_ENABLE();
 8003da0:	4b34      	ldr	r3, [pc, #208]	; (8003e74 <HAL_RCC_OscConfig+0x244>)
 8003da2:	2201      	movs	r2, #1
 8003da4:	601a      	str	r2, [r3, #0]

        /* Get Start Tick*/
        tickstart = HAL_GetTick();
 8003da6:	f7fe ff1b 	bl	8002be0 <HAL_GetTick>
 8003daa:	6138      	str	r0, [r7, #16]

        /* Wait till HSI is ready */
        while(__HAL_RCC_GET_FLAG(RCC_FLAG_HSIRDY) == RESET)
 8003dac:	e008      	b.n	8003dc0 <HAL_RCC_OscConfig+0x190>
        {
          if((HAL_GetTick() - tickstart ) > HSI_TIMEOUT_VALUE)
 8003dae:	f7fe ff17 	bl	8002be0 <HAL_GetTick>
 8003db2:	4602      	mov	r2, r0
 8003db4:	693b      	ldr	r3, [r7, #16]
 8003db6:	1ad3      	subs	r3, r2, r3
 8003db8:	2b02      	cmp	r3, #2
 8003dba:	d901      	bls.n	8003dc0 <HAL_RCC_OscConfig+0x190>
          {
            return HAL_TIMEOUT;
 8003dbc:	2303      	movs	r3, #3
 8003dbe:	e1a8      	b.n	8004112 <HAL_RCC_OscConfig+0x4e2>
        while(__HAL_RCC_GET_FLAG(RCC_FLAG_HSIRDY) == RESET)
 8003dc0:	4b2b      	ldr	r3, [pc, #172]	; (8003e70 <HAL_RCC_OscConfig+0x240>)
 8003dc2:	681b      	ldr	r3, [r3, #0]
 8003dc4:	f003 0302 	and.w	r3, r3, #2
 8003dc8:	2b00      	cmp	r3, #0
 8003dca:	d0f0      	beq.n	8003dae <HAL_RCC_OscConfig+0x17e>
          }
        }

        /* Adjusts the Internal High Speed oscillator (HSI) calibration value. */
        __HAL_RCC_HSI_CALIBRATIONVALUE_ADJUST(RCC_OscInitStruct->HSICalibrationValue);
 8003dcc:	4b28      	ldr	r3, [pc, #160]	; (8003e70 <HAL_RCC_OscConfig+0x240>)
 8003dce:	681b      	ldr	r3, [r3, #0]
 8003dd0:	f023 02f8 	bic.w	r2, r3, #248	; 0xf8
 8003dd4:	687b      	ldr	r3, [r7, #4]
 8003dd6:	691b      	ldr	r3, [r3, #16]
 8003dd8:	00db      	lsls	r3, r3, #3
 8003dda:	4925      	ldr	r1, [pc, #148]	; (8003e70 <HAL_RCC_OscConfig+0x240>)
 8003ddc:	4313      	orrs	r3, r2
 8003dde:	600b      	str	r3, [r1, #0]
 8003de0:	e015      	b.n	8003e0e <HAL_RCC_OscConfig+0x1de>
      }
      else
      {
        /* Disable the Internal High Speed oscillator (HSI). */
        __HAL_RCC_HSI_DISABLE();
 8003de2:	4b24      	ldr	r3, [pc, #144]	; (8003e74 <HAL_RCC_OscConfig+0x244>)
 8003de4:	2200      	movs	r2, #0
 8003de6:	601a      	str	r2, [r3, #0]

        /* Get Start Tick*/
        tickstart = HAL_GetTick();
 8003de8:	f7fe fefa 	bl	8002be0 <HAL_GetTick>
 8003dec:	6138      	str	r0, [r7, #16]

        /* Wait till HSI is ready */
        while(__HAL_RCC_GET_FLAG(RCC_FLAG_HSIRDY) != RESET)
 8003dee:	e008      	b.n	8003e02 <HAL_RCC_OscConfig+0x1d2>
        {
          if((HAL_GetTick() - tickstart ) > HSI_TIMEOUT_VALUE)
 8003df0:	f7fe fef6 	bl	8002be0 <HAL_GetTick>
 8003df4:	4602      	mov	r2, r0
 8003df6:	693b      	ldr	r3, [r7, #16]
 8003df8:	1ad3      	subs	r3, r2, r3
 8003dfa:	2b02      	cmp	r3, #2
 8003dfc:	d901      	bls.n	8003e02 <HAL_RCC_OscConfig+0x1d2>
          {
            return HAL_TIMEOUT;
 8003dfe:	2303      	movs	r3, #3
 8003e00:	e187      	b.n	8004112 <HAL_RCC_OscConfig+0x4e2>
        while(__HAL_RCC_GET_FLAG(RCC_FLAG_HSIRDY) != RESET)
 8003e02:	4b1b      	ldr	r3, [pc, #108]	; (8003e70 <HAL_RCC_OscConfig+0x240>)
 8003e04:	681b      	ldr	r3, [r3, #0]
 8003e06:	f003 0302 	and.w	r3, r3, #2
 8003e0a:	2b00      	cmp	r3, #0
 8003e0c:	d1f0      	bne.n	8003df0 <HAL_RCC_OscConfig+0x1c0>
        }
      }
    }
  }
  /*------------------------------ LSI Configuration -------------------------*/
  if(((RCC_OscInitStruct->OscillatorType) & RCC_OSCILLATORTYPE_LSI) == RCC_OSCILLATORTYPE_LSI)
 8003e0e:	687b      	ldr	r3, [r7, #4]
 8003e10:	681b      	ldr	r3, [r3, #0]
 8003e12:	f003 0308 	and.w	r3, r3, #8
 8003e16:	2b00      	cmp	r3, #0
 8003e18:	d036      	beq.n	8003e88 <HAL_RCC_OscConfig+0x258>
  {
    /* Check the parameters */
    assert_param(IS_RCC_LSI(RCC_OscInitStruct->LSIState));

    /* Check the LSI State */
    if((RCC_OscInitStruct->LSIState)!= RCC_LSI_OFF)
 8003e1a:	687b      	ldr	r3, [r7, #4]
 8003e1c:	695b      	ldr	r3, [r3, #20]
 8003e1e:	2b00      	cmp	r3, #0
 8003e20:	d016      	beq.n	8003e50 <HAL_RCC_OscConfig+0x220>
    {
      /* Enable the Internal Low Speed oscillator (LSI). */
      __HAL_RCC_LSI_ENABLE();
 8003e22:	4b15      	ldr	r3, [pc, #84]	; (8003e78 <HAL_RCC_OscConfig+0x248>)
 8003e24:	2201      	movs	r2, #1
 8003e26:	601a      	str	r2, [r3, #0]

      /* Get Start Tick*/
      tickstart = HAL_GetTick();
 8003e28:	f7fe feda 	bl	8002be0 <HAL_GetTick>
 8003e2c:	6138      	str	r0, [r7, #16]

      /* Wait till LSI is ready */
      while(__HAL_RCC_GET_FLAG(RCC_FLAG_LSIRDY) == RESET)
 8003e2e:	e008      	b.n	8003e42 <HAL_RCC_OscConfig+0x212>
      {
        if((HAL_GetTick() - tickstart ) > LSI_TIMEOUT_VALUE)
 8003e30:	f7fe fed6 	bl	8002be0 <HAL_GetTick>
 8003e34:	4602      	mov	r2, r0
 8003e36:	693b      	ldr	r3, [r7, #16]
 8003e38:	1ad3      	subs	r3, r2, r3
 8003e3a:	2b02      	cmp	r3, #2
 8003e3c:	d901      	bls.n	8003e42 <HAL_RCC_OscConfig+0x212>
        {
          return HAL_TIMEOUT;
 8003e3e:	2303      	movs	r3, #3
 8003e40:	e167      	b.n	8004112 <HAL_RCC_OscConfig+0x4e2>
      while(__HAL_RCC_GET_FLAG(RCC_FLAG_LSIRDY) == RESET)
 8003e42:	4b0b      	ldr	r3, [pc, #44]	; (8003e70 <HAL_RCC_OscConfig+0x240>)
 8003e44:	6f5b      	ldr	r3, [r3, #116]	; 0x74
 8003e46:	f003 0302 	and.w	r3, r3, #2
 8003e4a:	2b00      	cmp	r3, #0
 8003e4c:	d0f0      	beq.n	8003e30 <HAL_RCC_OscConfig+0x200>
 8003e4e:	e01b      	b.n	8003e88 <HAL_RCC_OscConfig+0x258>
      }
    }
    else
    {
      /* Disable the Internal Low Speed oscillator (LSI). */
      __HAL_RCC_LSI_DISABLE();
 8003e50:	4b09      	ldr	r3, [pc, #36]	; (8003e78 <HAL_RCC_OscConfig+0x248>)
 8003e52:	2200      	movs	r2, #0
 8003e54:	601a      	str	r2, [r3, #0]

      /* Get Start Tick */
      tickstart = HAL_GetTick();
 8003e56:	f7fe fec3 	bl	8002be0 <HAL_GetTick>
 8003e5a:	6138      	str	r0, [r7, #16]

      /* Wait till LSI is ready */
      while(__HAL_RCC_GET_FLAG(RCC_FLAG_LSIRDY) != RESET)
 8003e5c:	e00e      	b.n	8003e7c <HAL_RCC_OscConfig+0x24c>
      {
        if((HAL_GetTick() - tickstart ) > LSI_TIMEOUT_VALUE)
 8003e5e:	f7fe febf 	bl	8002be0 <HAL_GetTick>
 8003e62:	4602      	mov	r2, r0
 8003e64:	693b      	ldr	r3, [r7, #16]
 8003e66:	1ad3      	subs	r3, r2, r3
 8003e68:	2b02      	cmp	r3, #2
 8003e6a:	d907      	bls.n	8003e7c <HAL_RCC_OscConfig+0x24c>
        {
          return HAL_TIMEOUT;
 8003e6c:	2303      	movs	r3, #3
 8003e6e:	e150      	b.n	8004112 <HAL_RCC_OscConfig+0x4e2>
 8003e70:	40023800 	.word	0x40023800
 8003e74:	42470000 	.word	0x42470000
 8003e78:	42470e80 	.word	0x42470e80
      while(__HAL_RCC_GET_FLAG(RCC_FLAG_LSIRDY) != RESET)
 8003e7c:	4b88      	ldr	r3, [pc, #544]	; (80040a0 <HAL_RCC_OscConfig+0x470>)
 8003e7e:	6f5b      	ldr	r3, [r3, #116]	; 0x74
 8003e80:	f003 0302 	and.w	r3, r3, #2
 8003e84:	2b00      	cmp	r3, #0
 8003e86:	d1ea      	bne.n	8003e5e <HAL_RCC_OscConfig+0x22e>
        }
      }
    }
  }
  /*------------------------------ LSE Configuration -------------------------*/
  if(((RCC_OscInitStruct->OscillatorType) & RCC_OSCILLATORTYPE_LSE) == RCC_OSCILLATORTYPE_LSE)
 8003e88:	687b      	ldr	r3, [r7, #4]
 8003e8a:	681b      	ldr	r3, [r3, #0]
 8003e8c:	f003 0304 	and.w	r3, r3, #4
 8003e90:	2b00      	cmp	r3, #0
 8003e92:	f000 8097 	beq.w	8003fc4 <HAL_RCC_OscConfig+0x394>
  {
    FlagStatus       pwrclkchanged = RESET;
 8003e96:	2300      	movs	r3, #0
 8003e98:	75fb      	strb	r3, [r7, #23]
    /* Check the parameters */
    assert_param(IS_RCC_LSE(RCC_OscInitStruct->LSEState));

    /* Update LSE configuration in Backup Domain control register    */
    /* Requires to enable write access to Backup Domain of necessary */
    if(__HAL_RCC_PWR_IS_CLK_DISABLED())
 8003e9a:	4b81      	ldr	r3, [pc, #516]	; (80040a0 <HAL_RCC_OscConfig+0x470>)
 8003e9c:	6c1b      	ldr	r3, [r3, #64]	; 0x40
 8003e9e:	f003 5380 	and.w	r3, r3, #268435456	; 0x10000000
 8003ea2:	2b00      	cmp	r3, #0
 8003ea4:	d10f      	bne.n	8003ec6 <HAL_RCC_OscConfig+0x296>
    {
      __HAL_RCC_PWR_CLK_ENABLE();
 8003ea6:	2300      	movs	r3, #0
 8003ea8:	60bb      	str	r3, [r7, #8]
 8003eaa:	4b7d      	ldr	r3, [pc, #500]	; (80040a0 <HAL_RCC_OscConfig+0x470>)
 8003eac:	6c1b      	ldr	r3, [r3, #64]	; 0x40
 8003eae:	4a7c      	ldr	r2, [pc, #496]	; (80040a0 <HAL_RCC_OscConfig+0x470>)
 8003eb0:	f043 5380 	orr.w	r3, r3, #268435456	; 0x10000000
 8003eb4:	6413      	str	r3, [r2, #64]	; 0x40
 8003eb6:	4b7a      	ldr	r3, [pc, #488]	; (80040a0 <HAL_RCC_OscConfig+0x470>)
 8003eb8:	6c1b      	ldr	r3, [r3, #64]	; 0x40
 8003eba:	f003 5380 	and.w	r3, r3, #268435456	; 0x10000000
 8003ebe:	60bb      	str	r3, [r7, #8]
 8003ec0:	68bb      	ldr	r3, [r7, #8]
      pwrclkchanged = SET;
 8003ec2:	2301      	movs	r3, #1
 8003ec4:	75fb      	strb	r3, [r7, #23]
    }

    if(HAL_IS_BIT_CLR(PWR->CR, PWR_CR_DBP))
 8003ec6:	4b77      	ldr	r3, [pc, #476]	; (80040a4 <HAL_RCC_OscConfig+0x474>)
 8003ec8:	681b      	ldr	r3, [r3, #0]
 8003eca:	f403 7380 	and.w	r3, r3, #256	; 0x100
 8003ece:	2b00      	cmp	r3, #0
 8003ed0:	d118      	bne.n	8003f04 <HAL_RCC_OscConfig+0x2d4>
    {
      /* Enable write access to Backup domain */
      SET_BIT(PWR->CR, PWR_CR_DBP);
 8003ed2:	4b74      	ldr	r3, [pc, #464]	; (80040a4 <HAL_RCC_OscConfig+0x474>)
 8003ed4:	681b      	ldr	r3, [r3, #0]
 8003ed6:	4a73      	ldr	r2, [pc, #460]	; (80040a4 <HAL_RCC_OscConfig+0x474>)
 8003ed8:	f443 7380 	orr.w	r3, r3, #256	; 0x100
 8003edc:	6013      	str	r3, [r2, #0]

      /* Wait for Backup domain Write protection disable */
      tickstart = HAL_GetTick();
 8003ede:	f7fe fe7f 	bl	8002be0 <HAL_GetTick>
 8003ee2:	6138      	str	r0, [r7, #16]

      while(HAL_IS_BIT_CLR(PWR->CR, PWR_CR_DBP))
 8003ee4:	e008      	b.n	8003ef8 <HAL_RCC_OscConfig+0x2c8>
      {
        if((HAL_GetTick() - tickstart) > RCC_DBP_TIMEOUT_VALUE)
 8003ee6:	f7fe fe7b 	bl	8002be0 <HAL_GetTick>
 8003eea:	4602      	mov	r2, r0
 8003eec:	693b      	ldr	r3, [r7, #16]
 8003eee:	1ad3      	subs	r3, r2, r3
 8003ef0:	2b02      	cmp	r3, #2
 8003ef2:	d901      	bls.n	8003ef8 <HAL_RCC_OscConfig+0x2c8>
        {
          return HAL_TIMEOUT;
 8003ef4:	2303      	movs	r3, #3
 8003ef6:	e10c      	b.n	8004112 <HAL_RCC_OscConfig+0x4e2>
      while(HAL_IS_BIT_CLR(PWR->CR, PWR_CR_DBP))
 8003ef8:	4b6a      	ldr	r3, [pc, #424]	; (80040a4 <HAL_RCC_OscConfig+0x474>)
 8003efa:	681b      	ldr	r3, [r3, #0]
 8003efc:	f403 7380 	and.w	r3, r3, #256	; 0x100
 8003f00:	2b00      	cmp	r3, #0
 8003f02:	d0f0      	beq.n	8003ee6 <HAL_RCC_OscConfig+0x2b6>
        }
      }
    }

    /* Set the new LSE configuration -----------------------------------------*/
    __HAL_RCC_LSE_CONFIG(RCC_OscInitStruct->LSEState);
 8003f04:	687b      	ldr	r3, [r7, #4]
 8003f06:	689b      	ldr	r3, [r3, #8]
 8003f08:	2b01      	cmp	r3, #1
 8003f0a:	d106      	bne.n	8003f1a <HAL_RCC_OscConfig+0x2ea>
 8003f0c:	4b64      	ldr	r3, [pc, #400]	; (80040a0 <HAL_RCC_OscConfig+0x470>)
 8003f0e:	6f1b      	ldr	r3, [r3, #112]	; 0x70
 8003f10:	4a63      	ldr	r2, [pc, #396]	; (80040a0 <HAL_RCC_OscConfig+0x470>)
 8003f12:	f043 0301 	orr.w	r3, r3, #1
 8003f16:	6713      	str	r3, [r2, #112]	; 0x70
 8003f18:	e01c      	b.n	8003f54 <HAL_RCC_OscConfig+0x324>
 8003f1a:	687b      	ldr	r3, [r7, #4]
 8003f1c:	689b      	ldr	r3, [r3, #8]
 8003f1e:	2b05      	cmp	r3, #5
 8003f20:	d10c      	bne.n	8003f3c <HAL_RCC_OscConfig+0x30c>
 8003f22:	4b5f      	ldr	r3, [pc, #380]	; (80040a0 <HAL_RCC_OscConfig+0x470>)
 8003f24:	6f1b      	ldr	r3, [r3, #112]	; 0x70
 8003f26:	4a5e      	ldr	r2, [pc, #376]	; (80040a0 <HAL_RCC_OscConfig+0x470>)
 8003f28:	f043 0304 	orr.w	r3, r3, #4
 8003f2c:	6713      	str	r3, [r2, #112]	; 0x70
 8003f2e:	4b5c      	ldr	r3, [pc, #368]	; (80040a0 <HAL_RCC_OscConfig+0x470>)
 8003f30:	6f1b      	ldr	r3, [r3, #112]	; 0x70
 8003f32:	4a5b      	ldr	r2, [pc, #364]	; (80040a0 <HAL_RCC_OscConfig+0x470>)
 8003f34:	f043 0301 	orr.w	r3, r3, #1
 8003f38:	6713      	str	r3, [r2, #112]	; 0x70
 8003f3a:	e00b      	b.n	8003f54 <HAL_RCC_OscConfig+0x324>
 8003f3c:	4b58      	ldr	r3, [pc, #352]	; (80040a0 <HAL_RCC_OscConfig+0x470>)
 8003f3e:	6f1b      	ldr	r3, [r3, #112]	; 0x70
 8003f40:	4a57      	ldr	r2, [pc, #348]	; (80040a0 <HAL_RCC_OscConfig+0x470>)
 8003f42:	f023 0301 	bic.w	r3, r3, #1
 8003f46:	6713      	str	r3, [r2, #112]	; 0x70
 8003f48:	4b55      	ldr	r3, [pc, #340]	; (80040a0 <HAL_RCC_OscConfig+0x470>)
 8003f4a:	6f1b      	ldr	r3, [r3, #112]	; 0x70
 8003f4c:	4a54      	ldr	r2, [pc, #336]	; (80040a0 <HAL_RCC_OscConfig+0x470>)
 8003f4e:	f023 0304 	bic.w	r3, r3, #4
 8003f52:	6713      	str	r3, [r2, #112]	; 0x70
    /* Check the LSE State */
    if((RCC_OscInitStruct->LSEState) != RCC_LSE_OFF)
 8003f54:	687b      	ldr	r3, [r7, #4]
 8003f56:	689b      	ldr	r3, [r3, #8]
 8003f58:	2b00      	cmp	r3, #0
 8003f5a:	d015      	beq.n	8003f88 <HAL_RCC_OscConfig+0x358>
    {
      /* Get Start Tick*/
      tickstart = HAL_GetTick();
 8003f5c:	f7fe fe40 	bl	8002be0 <HAL_GetTick>
 8003f60:	6138      	str	r0, [r7, #16]

      /* Wait till LSE is ready */
      while(__HAL_RCC_GET_FLAG(RCC_FLAG_LSERDY) == RESET)
 8003f62:	e00a      	b.n	8003f7a <HAL_RCC_OscConfig+0x34a>
      {
        if((HAL_GetTick() - tickstart ) > RCC_LSE_TIMEOUT_VALUE)
 8003f64:	f7fe fe3c 	bl	8002be0 <HAL_GetTick>
 8003f68:	4602      	mov	r2, r0
 8003f6a:	693b      	ldr	r3, [r7, #16]
 8003f6c:	1ad3      	subs	r3, r2, r3
 8003f6e:	f241 3288 	movw	r2, #5000	; 0x1388
 8003f72:	4293      	cmp	r3, r2
 8003f74:	d901      	bls.n	8003f7a <HAL_RCC_OscConfig+0x34a>
        {
          return HAL_TIMEOUT;
 8003f76:	2303      	movs	r3, #3
 8003f78:	e0cb      	b.n	8004112 <HAL_RCC_OscConfig+0x4e2>
      while(__HAL_RCC_GET_FLAG(RCC_FLAG_LSERDY) == RESET)
 8003f7a:	4b49      	ldr	r3, [pc, #292]	; (80040a0 <HAL_RCC_OscConfig+0x470>)
 8003f7c:	6f1b      	ldr	r3, [r3, #112]	; 0x70
 8003f7e:	f003 0302 	and.w	r3, r3, #2
 8003f82:	2b00      	cmp	r3, #0
 8003f84:	d0ee      	beq.n	8003f64 <HAL_RCC_OscConfig+0x334>
 8003f86:	e014      	b.n	8003fb2 <HAL_RCC_OscConfig+0x382>
      }
    }
    else
    {
      /* Get Start Tick */
      tickstart = HAL_GetTick();
 8003f88:	f7fe fe2a 	bl	8002be0 <HAL_GetTick>
 8003f8c:	6138      	str	r0, [r7, #16]

      /* Wait till LSE is ready */
      while(__HAL_RCC_GET_FLAG(RCC_FLAG_LSERDY) != RESET)
 8003f8e:	e00a      	b.n	8003fa6 <HAL_RCC_OscConfig+0x376>
      {
        if((HAL_GetTick() - tickstart ) > RCC_LSE_TIMEOUT_VALUE)
 8003f90:	f7fe fe26 	bl	8002be0 <HAL_GetTick>
 8003f94:	4602      	mov	r2, r0
 8003f96:	693b      	ldr	r3, [r7, #16]
 8003f98:	1ad3      	subs	r3, r2, r3
 8003f9a:	f241 3288 	movw	r2, #5000	; 0x1388
 8003f9e:	4293      	cmp	r3, r2
 8003fa0:	d901      	bls.n	8003fa6 <HAL_RCC_OscConfig+0x376>
        {
          return HAL_TIMEOUT;
 8003fa2:	2303      	movs	r3, #3
 8003fa4:	e0b5      	b.n	8004112 <HAL_RCC_OscConfig+0x4e2>
      while(__HAL_RCC_GET_FLAG(RCC_FLAG_LSERDY) != RESET)
 8003fa6:	4b3e      	ldr	r3, [pc, #248]	; (80040a0 <HAL_RCC_OscConfig+0x470>)
 8003fa8:	6f1b      	ldr	r3, [r3, #112]	; 0x70
 8003faa:	f003 0302 	and.w	r3, r3, #2
 8003fae:	2b00      	cmp	r3, #0
 8003fb0:	d1ee      	bne.n	8003f90 <HAL_RCC_OscConfig+0x360>
        }
      }
    }

    /* Restore clock configuration if changed */
    if(pwrclkchanged == SET)
 8003fb2:	7dfb      	ldrb	r3, [r7, #23]
 8003fb4:	2b01      	cmp	r3, #1
 8003fb6:	d105      	bne.n	8003fc4 <HAL_RCC_OscConfig+0x394>
    {
      __HAL_RCC_PWR_CLK_DISABLE();
 8003fb8:	4b39      	ldr	r3, [pc, #228]	; (80040a0 <HAL_RCC_OscConfig+0x470>)
 8003fba:	6c1b      	ldr	r3, [r3, #64]	; 0x40
 8003fbc:	4a38      	ldr	r2, [pc, #224]	; (80040a0 <HAL_RCC_OscConfig+0x470>)
 8003fbe:	f023 5380 	bic.w	r3, r3, #268435456	; 0x10000000
 8003fc2:	6413      	str	r3, [r2, #64]	; 0x40
    }
  }
  /*-------------------------------- PLL Configuration -----------------------*/
  /* Check the parameters */
  assert_param(IS_RCC_PLL(RCC_OscInitStruct->PLL.PLLState));
  if ((RCC_OscInitStruct->PLL.PLLState) != RCC_PLL_NONE)
 8003fc4:	687b      	ldr	r3, [r7, #4]
 8003fc6:	699b      	ldr	r3, [r3, #24]
 8003fc8:	2b00      	cmp	r3, #0
 8003fca:	f000 80a1 	beq.w	8004110 <HAL_RCC_OscConfig+0x4e0>
  {
    /* Check if the PLL is used as system clock or not */
    if(__HAL_RCC_GET_SYSCLK_SOURCE() != RCC_CFGR_SWS_PLL)
 8003fce:	4b34      	ldr	r3, [pc, #208]	; (80040a0 <HAL_RCC_OscConfig+0x470>)
 8003fd0:	689b      	ldr	r3, [r3, #8]
 8003fd2:	f003 030c 	and.w	r3, r3, #12
 8003fd6:	2b08      	cmp	r3, #8
 8003fd8:	d05c      	beq.n	8004094 <HAL_RCC_OscConfig+0x464>
    {
      if((RCC_OscInitStruct->PLL.PLLState) == RCC_PLL_ON)
 8003fda:	687b      	ldr	r3, [r7, #4]
 8003fdc:	699b      	ldr	r3, [r3, #24]
 8003fde:	2b02      	cmp	r3, #2
 8003fe0:	d141      	bne.n	8004066 <HAL_RCC_OscConfig+0x436>
        assert_param(IS_RCC_PLLN_VALUE(RCC_OscInitStruct->PLL.PLLN));
        assert_param(IS_RCC_PLLP_VALUE(RCC_OscInitStruct->PLL.PLLP));
        assert_param(IS_RCC_PLLQ_VALUE(RCC_OscInitStruct->PLL.PLLQ));

        /* Disable the main PLL. */
        __HAL_RCC_PLL_DISABLE();
 8003fe2:	4b31      	ldr	r3, [pc, #196]	; (80040a8 <HAL_RCC_OscConfig+0x478>)
 8003fe4:	2200      	movs	r2, #0
 8003fe6:	601a      	str	r2, [r3, #0]

        /* Get Start Tick */
        tickstart = HAL_GetTick();
 8003fe8:	f7fe fdfa 	bl	8002be0 <HAL_GetTick>
 8003fec:	6138      	str	r0, [r7, #16]

        /* Wait till PLL is ready */
        while(__HAL_RCC_GET_FLAG(RCC_FLAG_PLLRDY) != RESET)
 8003fee:	e008      	b.n	8004002 <HAL_RCC_OscConfig+0x3d2>
        {
          if((HAL_GetTick() - tickstart ) > PLL_TIMEOUT_VALUE)
 8003ff0:	f7fe fdf6 	bl	8002be0 <HAL_GetTick>
 8003ff4:	4602      	mov	r2, r0
 8003ff6:	693b      	ldr	r3, [r7, #16]
 8003ff8:	1ad3      	subs	r3, r2, r3
 8003ffa:	2b02      	cmp	r3, #2
 8003ffc:	d901      	bls.n	8004002 <HAL_RCC_OscConfig+0x3d2>
          {
            return HAL_TIMEOUT;
 8003ffe:	2303      	movs	r3, #3
 8004000:	e087      	b.n	8004112 <HAL_RCC_OscConfig+0x4e2>
        while(__HAL_RCC_GET_FLAG(RCC_FLAG_PLLRDY) != RESET)
 8004002:	4b27      	ldr	r3, [pc, #156]	; (80040a0 <HAL_RCC_OscConfig+0x470>)
 8004004:	681b      	ldr	r3, [r3, #0]
 8004006:	f003 7300 	and.w	r3, r3, #33554432	; 0x2000000
 800400a:	2b00      	cmp	r3, #0
 800400c:	d1f0      	bne.n	8003ff0 <HAL_RCC_OscConfig+0x3c0>
          }
        }

        /* Configure the main PLL clock source, multiplication and division factors. */
        WRITE_REG(RCC->PLLCFGR, (RCC_OscInitStruct->PLL.PLLSource                                            | \
 800400e:	687b      	ldr	r3, [r7, #4]
 8004010:	69da      	ldr	r2, [r3, #28]
 8004012:	687b      	ldr	r3, [r7, #4]
 8004014:	6a1b      	ldr	r3, [r3, #32]
 8004016:	431a      	orrs	r2, r3
 8004018:	687b      	ldr	r3, [r7, #4]
 800401a:	6a5b      	ldr	r3, [r3, #36]	; 0x24
 800401c:	019b      	lsls	r3, r3, #6
 800401e:	431a      	orrs	r2, r3
 8004020:	687b      	ldr	r3, [r7, #4]
 8004022:	6a9b      	ldr	r3, [r3, #40]	; 0x28
 8004024:	085b      	lsrs	r3, r3, #1
 8004026:	3b01      	subs	r3, #1
 8004028:	041b      	lsls	r3, r3, #16
 800402a:	431a      	orrs	r2, r3
 800402c:	687b      	ldr	r3, [r7, #4]
 800402e:	6adb      	ldr	r3, [r3, #44]	; 0x2c
 8004030:	061b      	lsls	r3, r3, #24
 8004032:	491b      	ldr	r1, [pc, #108]	; (80040a0 <HAL_RCC_OscConfig+0x470>)
 8004034:	4313      	orrs	r3, r2
 8004036:	604b      	str	r3, [r1, #4]
                                 RCC_OscInitStruct->PLL.PLLM                                                 | \
                                 (RCC_OscInitStruct->PLL.PLLN << RCC_PLLCFGR_PLLN_Pos)             | \
                                 (((RCC_OscInitStruct->PLL.PLLP >> 1U) - 1U) << RCC_PLLCFGR_PLLP_Pos) | \
                                 (RCC_OscInitStruct->PLL.PLLQ << RCC_PLLCFGR_PLLQ_Pos)));
        /* Enable the main PLL. */
        __HAL_RCC_PLL_ENABLE();
 8004038:	4b1b      	ldr	r3, [pc, #108]	; (80040a8 <HAL_RCC_OscConfig+0x478>)
 800403a:	2201      	movs	r2, #1
 800403c:	601a      	str	r2, [r3, #0]

        /* Get Start Tick */
        tickstart = HAL_GetTick();
 800403e:	f7fe fdcf 	bl	8002be0 <HAL_GetTick>
 8004042:	6138      	str	r0, [r7, #16]

        /* Wait till PLL is ready */
        while(__HAL_RCC_GET_FLAG(RCC_FLAG_PLLRDY) == RESET)
 8004044:	e008      	b.n	8004058 <HAL_RCC_OscConfig+0x428>
        {
          if((HAL_GetTick() - tickstart ) > PLL_TIMEOUT_VALUE)
 8004046:	f7fe fdcb 	bl	8002be0 <HAL_GetTick>
 800404a:	4602      	mov	r2, r0
 800404c:	693b      	ldr	r3, [r7, #16]
 800404e:	1ad3      	subs	r3, r2, r3
 8004050:	2b02      	cmp	r3, #2
 8004052:	d901      	bls.n	8004058 <HAL_RCC_OscConfig+0x428>
          {
            return HAL_TIMEOUT;
 8004054:	2303      	movs	r3, #3
 8004056:	e05c      	b.n	8004112 <HAL_RCC_OscConfig+0x4e2>
        while(__HAL_RCC_GET_FLAG(RCC_FLAG_PLLRDY) == RESET)
 8004058:	4b11      	ldr	r3, [pc, #68]	; (80040a0 <HAL_RCC_OscConfig+0x470>)
 800405a:	681b      	ldr	r3, [r3, #0]
 800405c:	f003 7300 	and.w	r3, r3, #33554432	; 0x2000000
 8004060:	2b00      	cmp	r3, #0
 8004062:	d0f0      	beq.n	8004046 <HAL_RCC_OscConfig+0x416>
 8004064:	e054      	b.n	8004110 <HAL_RCC_OscConfig+0x4e0>
        }
      }
      else
      {
        /* Disable the main PLL. */
        __HAL_RCC_PLL_DISABLE();
 8004066:	4b10      	ldr	r3, [pc, #64]	; (80040a8 <HAL_RCC_OscConfig+0x478>)
 8004068:	2200      	movs	r2, #0
 800406a:	601a      	str	r2, [r3, #0]

        /* Get Start Tick */
        tickstart = HAL_GetTick();
 800406c:	f7fe fdb8 	bl	8002be0 <HAL_GetTick>
 8004070:	6138      	str	r0, [r7, #16]

        /* Wait till PLL is ready */
        while(__HAL_RCC_GET_FLAG(RCC_FLAG_PLLRDY) != RESET)
 8004072:	e008      	b.n	8004086 <HAL_RCC_OscConfig+0x456>
        {
          if((HAL_GetTick() - tickstart ) > PLL_TIMEOUT_VALUE)
 8004074:	f7fe fdb4 	bl	8002be0 <HAL_GetTick>
 8004078:	4602      	mov	r2, r0
 800407a:	693b      	ldr	r3, [r7, #16]
 800407c:	1ad3      	subs	r3, r2, r3
 800407e:	2b02      	cmp	r3, #2
 8004080:	d901      	bls.n	8004086 <HAL_RCC_OscConfig+0x456>
          {
            return HAL_TIMEOUT;
 8004082:	2303      	movs	r3, #3
 8004084:	e045      	b.n	8004112 <HAL_RCC_OscConfig+0x4e2>
        while(__HAL_RCC_GET_FLAG(RCC_FLAG_PLLRDY) != RESET)
 8004086:	4b06      	ldr	r3, [pc, #24]	; (80040a0 <HAL_RCC_OscConfig+0x470>)
 8004088:	681b      	ldr	r3, [r3, #0]
 800408a:	f003 7300 	and.w	r3, r3, #33554432	; 0x2000000
 800408e:	2b00      	cmp	r3, #0
 8004090:	d1f0      	bne.n	8004074 <HAL_RCC_OscConfig+0x444>
 8004092:	e03d      	b.n	8004110 <HAL_RCC_OscConfig+0x4e0>
      }
    }
    else
    {
      /* Check if there is a request to disable the PLL used as System clock source */
      if((RCC_OscInitStruct->PLL.PLLState) == RCC_PLL_OFF)
 8004094:	687b      	ldr	r3, [r7, #4]
 8004096:	699b      	ldr	r3, [r3, #24]
 8004098:	2b01      	cmp	r3, #1
 800409a:	d107      	bne.n	80040ac <HAL_RCC_OscConfig+0x47c>
      {
        return HAL_ERROR;
 800409c:	2301      	movs	r3, #1
 800409e:	e038      	b.n	8004112 <HAL_RCC_OscConfig+0x4e2>
 80040a0:	40023800 	.word	0x40023800
 80040a4:	40007000 	.word	0x40007000
 80040a8:	42470060 	.word	0x42470060
      }
      else
      {
        /* Do not return HAL_ERROR if request repeats the current configuration */
        pll_config = RCC->PLLCFGR;
 80040ac:	4b1b      	ldr	r3, [pc, #108]	; (800411c <HAL_RCC_OscConfig+0x4ec>)
 80040ae:	685b      	ldr	r3, [r3, #4]
 80040b0:	60fb      	str	r3, [r7, #12]
            (READ_BIT(pll_config, RCC_PLLCFGR_PLLN) != (RCC_OscInitStruct->PLL.PLLN) << RCC_PLLCFGR_PLLN_Pos) ||
            (READ_BIT(pll_config, RCC_PLLCFGR_PLLP) != (((RCC_OscInitStruct->PLL.PLLP >> 1U) - 1U)) << RCC_PLLCFGR_PLLP_Pos) ||
            (READ_BIT(pll_config, RCC_PLLCFGR_PLLQ) != (RCC_OscInitStruct->PLL.PLLQ << RCC_PLLCFGR_PLLQ_Pos)) ||
            (READ_BIT(pll_config, RCC_PLLCFGR_PLLR) != (RCC_OscInitStruct->PLL.PLLR << RCC_PLLCFGR_PLLR_Pos)))
#else
        if (((RCC_OscInitStruct->PLL.PLLState) == RCC_PLL_OFF) ||
 80040b2:	687b      	ldr	r3, [r7, #4]
 80040b4:	699b      	ldr	r3, [r3, #24]
 80040b6:	2b01      	cmp	r3, #1
 80040b8:	d028      	beq.n	800410c <HAL_RCC_OscConfig+0x4dc>
            (READ_BIT(pll_config, RCC_PLLCFGR_PLLSRC) != RCC_OscInitStruct->PLL.PLLSource) ||
 80040ba:	68fb      	ldr	r3, [r7, #12]
 80040bc:	f403 0280 	and.w	r2, r3, #4194304	; 0x400000
 80040c0:	687b      	ldr	r3, [r7, #4]
 80040c2:	69db      	ldr	r3, [r3, #28]
        if (((RCC_OscInitStruct->PLL.PLLState) == RCC_PLL_OFF) ||
 80040c4:	429a      	cmp	r2, r3
 80040c6:	d121      	bne.n	800410c <HAL_RCC_OscConfig+0x4dc>
            (READ_BIT(pll_config, RCC_PLLCFGR_PLLM) != (RCC_OscInitStruct->PLL.PLLM) << RCC_PLLCFGR_PLLM_Pos) ||
 80040c8:	68fb      	ldr	r3, [r7, #12]
 80040ca:	f003 023f 	and.w	r2, r3, #63	; 0x3f
 80040ce:	687b      	ldr	r3, [r7, #4]
 80040d0:	6a1b      	ldr	r3, [r3, #32]
            (READ_BIT(pll_config, RCC_PLLCFGR_PLLSRC) != RCC_OscInitStruct->PLL.PLLSource) ||
 80040d2:	429a      	cmp	r2, r3
 80040d4:	d11a      	bne.n	800410c <HAL_RCC_OscConfig+0x4dc>
            (READ_BIT(pll_config, RCC_PLLCFGR_PLLN) != (RCC_OscInitStruct->PLL.PLLN) << RCC_PLLCFGR_PLLN_Pos) ||
 80040d6:	68fa      	ldr	r2, [r7, #12]
 80040d8:	f647 73c0 	movw	r3, #32704	; 0x7fc0
 80040dc:	4013      	ands	r3, r2
 80040de:	687a      	ldr	r2, [r7, #4]
 80040e0:	6a52      	ldr	r2, [r2, #36]	; 0x24
 80040e2:	0192      	lsls	r2, r2, #6
            (READ_BIT(pll_config, RCC_PLLCFGR_PLLM) != (RCC_OscInitStruct->PLL.PLLM) << RCC_PLLCFGR_PLLM_Pos) ||
 80040e4:	4293      	cmp	r3, r2
 80040e6:	d111      	bne.n	800410c <HAL_RCC_OscConfig+0x4dc>
            (READ_BIT(pll_config, RCC_PLLCFGR_PLLP) != (((RCC_OscInitStruct->PLL.PLLP >> 1U) - 1U)) << RCC_PLLCFGR_PLLP_Pos) ||
 80040e8:	68fb      	ldr	r3, [r7, #12]
 80040ea:	f403 3240 	and.w	r2, r3, #196608	; 0x30000
 80040ee:	687b      	ldr	r3, [r7, #4]
 80040f0:	6a9b      	ldr	r3, [r3, #40]	; 0x28
 80040f2:	085b      	lsrs	r3, r3, #1
 80040f4:	3b01      	subs	r3, #1
 80040f6:	041b      	lsls	r3, r3, #16
            (READ_BIT(pll_config, RCC_PLLCFGR_PLLN) != (RCC_OscInitStruct->PLL.PLLN) << RCC_PLLCFGR_PLLN_Pos) ||
 80040f8:	429a      	cmp	r2, r3
 80040fa:	d107      	bne.n	800410c <HAL_RCC_OscConfig+0x4dc>
            (READ_BIT(pll_config, RCC_PLLCFGR_PLLQ) != (RCC_OscInitStruct->PLL.PLLQ << RCC_PLLCFGR_PLLQ_Pos)))
 80040fc:	68fb      	ldr	r3, [r7, #12]
 80040fe:	f003 6270 	and.w	r2, r3, #251658240	; 0xf000000
 8004102:	687b      	ldr	r3, [r7, #4]
 8004104:	6adb      	ldr	r3, [r3, #44]	; 0x2c
 8004106:	061b      	lsls	r3, r3, #24
            (READ_BIT(pll_config, RCC_PLLCFGR_PLLP) != (((RCC_OscInitStruct->PLL.PLLP >> 1U) - 1U)) << RCC_PLLCFGR_PLLP_Pos) ||
 8004108:	429a      	cmp	r2, r3
 800410a:	d001      	beq.n	8004110 <HAL_RCC_OscConfig+0x4e0>
#endif
        {
          return HAL_ERROR;
 800410c:	2301      	movs	r3, #1
 800410e:	e000      	b.n	8004112 <HAL_RCC_OscConfig+0x4e2>
        }
      }
    }
  }
  return HAL_OK;
 8004110:	2300      	movs	r3, #0
}
 8004112:	4618      	mov	r0, r3
 8004114:	3718      	adds	r7, #24
 8004116:	46bd      	mov	sp, r7
 8004118:	bd80      	pop	{r7, pc}
 800411a:	bf00      	nop
 800411c:	40023800 	.word	0x40023800

08004120 <HAL_RCC_ClockConfig>:
  *         HPRE[3:0] bits to ensure that HCLK not exceed the maximum allowed frequency
  *         (for more details refer to section above "Initialization/de-initialization functions")
  * @retval None
  */
HAL_StatusTypeDef HAL_RCC_ClockConfig(RCC_ClkInitTypeDef  *RCC_ClkInitStruct, uint32_t FLatency)
{
 8004120:	b580      	push	{r7, lr}
 8004122:	b084      	sub	sp, #16
 8004124:	af00      	add	r7, sp, #0
 8004126:	6078      	str	r0, [r7, #4]
 8004128:	6039      	str	r1, [r7, #0]
  uint32_t tickstart;

  /* Check Null pointer */
  if(RCC_ClkInitStruct == NULL)
 800412a:	687b      	ldr	r3, [r7, #4]
 800412c:	2b00      	cmp	r3, #0
 800412e:	d101      	bne.n	8004134 <HAL_RCC_ClockConfig+0x14>
  {
    return HAL_ERROR;
 8004130:	2301      	movs	r3, #1
 8004132:	e0cc      	b.n	80042ce <HAL_RCC_ClockConfig+0x1ae>
  /* To correctly read data from FLASH memory, the number of wait states (LATENCY)
    must be correctly programmed according to the frequency of the CPU clock
    (HCLK) and the supply voltage of the device. */

  /* Increasing the number of wait states because of higher CPU frequency */
  if(FLatency > __HAL_FLASH_GET_LATENCY())
 8004134:	4b68      	ldr	r3, [pc, #416]	; (80042d8 <HAL_RCC_ClockConfig+0x1b8>)
 8004136:	681b      	ldr	r3, [r3, #0]
 8004138:	f003 0307 	and.w	r3, r3, #7
 800413c:	683a      	ldr	r2, [r7, #0]
 800413e:	429a      	cmp	r2, r3
 8004140:	d90c      	bls.n	800415c <HAL_RCC_ClockConfig+0x3c>
  {
    /* Program the new number of wait states to the LATENCY bits in the FLASH_ACR register */
    __HAL_FLASH_SET_LATENCY(FLatency);
 8004142:	4b65      	ldr	r3, [pc, #404]	; (80042d8 <HAL_RCC_ClockConfig+0x1b8>)
 8004144:	683a      	ldr	r2, [r7, #0]
 8004146:	b2d2      	uxtb	r2, r2
 8004148:	701a      	strb	r2, [r3, #0]

    /* Check that the new number of wait states is taken into account to access the Flash
    memory by reading the FLASH_ACR register */
    if(__HAL_FLASH_GET_LATENCY() != FLatency)
 800414a:	4b63      	ldr	r3, [pc, #396]	; (80042d8 <HAL_RCC_ClockConfig+0x1b8>)
 800414c:	681b      	ldr	r3, [r3, #0]
 800414e:	f003 0307 	and.w	r3, r3, #7
 8004152:	683a      	ldr	r2, [r7, #0]
 8004154:	429a      	cmp	r2, r3
 8004156:	d001      	beq.n	800415c <HAL_RCC_ClockConfig+0x3c>
    {
      return HAL_ERROR;
 8004158:	2301      	movs	r3, #1
 800415a:	e0b8      	b.n	80042ce <HAL_RCC_ClockConfig+0x1ae>
    }
  }

  /*-------------------------- HCLK Configuration --------------------------*/
  if(((RCC_ClkInitStruct->ClockType) & RCC_CLOCKTYPE_HCLK) == RCC_CLOCKTYPE_HCLK)
 800415c:	687b      	ldr	r3, [r7, #4]
 800415e:	681b      	ldr	r3, [r3, #0]
 8004160:	f003 0302 	and.w	r3, r3, #2
 8004164:	2b00      	cmp	r3, #0
 8004166:	d020      	beq.n	80041aa <HAL_RCC_ClockConfig+0x8a>
  {
    /* Set the highest APBx dividers in order to ensure that we do not go through
       a non-spec phase whatever we decrease or increase HCLK. */
    if(((RCC_ClkInitStruct->ClockType) & RCC_CLOCKTYPE_PCLK1) == RCC_CLOCKTYPE_PCLK1)
 8004168:	687b      	ldr	r3, [r7, #4]
 800416a:	681b      	ldr	r3, [r3, #0]
 800416c:	f003 0304 	and.w	r3, r3, #4
 8004170:	2b00      	cmp	r3, #0
 8004172:	d005      	beq.n	8004180 <HAL_RCC_ClockConfig+0x60>
    {
      MODIFY_REG(RCC->CFGR, RCC_CFGR_PPRE1, RCC_HCLK_DIV16);
 8004174:	4b59      	ldr	r3, [pc, #356]	; (80042dc <HAL_RCC_ClockConfig+0x1bc>)
 8004176:	689b      	ldr	r3, [r3, #8]
 8004178:	4a58      	ldr	r2, [pc, #352]	; (80042dc <HAL_RCC_ClockConfig+0x1bc>)
 800417a:	f443 53e0 	orr.w	r3, r3, #7168	; 0x1c00
 800417e:	6093      	str	r3, [r2, #8]
    }

    if(((RCC_ClkInitStruct->ClockType) & RCC_CLOCKTYPE_PCLK2) == RCC_CLOCKTYPE_PCLK2)
 8004180:	687b      	ldr	r3, [r7, #4]
 8004182:	681b      	ldr	r3, [r3, #0]
 8004184:	f003 0308 	and.w	r3, r3, #8
 8004188:	2b00      	cmp	r3, #0
 800418a:	d005      	beq.n	8004198 <HAL_RCC_ClockConfig+0x78>
    {
      MODIFY_REG(RCC->CFGR, RCC_CFGR_PPRE2, (RCC_HCLK_DIV16 << 3));
 800418c:	4b53      	ldr	r3, [pc, #332]	; (80042dc <HAL_RCC_ClockConfig+0x1bc>)
 800418e:	689b      	ldr	r3, [r3, #8]
 8004190:	4a52      	ldr	r2, [pc, #328]	; (80042dc <HAL_RCC_ClockConfig+0x1bc>)
 8004192:	f443 4360 	orr.w	r3, r3, #57344	; 0xe000
 8004196:	6093      	str	r3, [r2, #8]
    }

    assert_param(IS_RCC_HCLK(RCC_ClkInitStruct->AHBCLKDivider));
    MODIFY_REG(RCC->CFGR, RCC_CFGR_HPRE, RCC_ClkInitStruct->AHBCLKDivider);
 8004198:	4b50      	ldr	r3, [pc, #320]	; (80042dc <HAL_RCC_ClockConfig+0x1bc>)
 800419a:	689b      	ldr	r3, [r3, #8]
 800419c:	f023 02f0 	bic.w	r2, r3, #240	; 0xf0
 80041a0:	687b      	ldr	r3, [r7, #4]
 80041a2:	689b      	ldr	r3, [r3, #8]
 80041a4:	494d      	ldr	r1, [pc, #308]	; (80042dc <HAL_RCC_ClockConfig+0x1bc>)
 80041a6:	4313      	orrs	r3, r2
 80041a8:	608b      	str	r3, [r1, #8]
  }

  /*------------------------- SYSCLK Configuration ---------------------------*/
  if(((RCC_ClkInitStruct->ClockType) & RCC_CLOCKTYPE_SYSCLK) == RCC_CLOCKTYPE_SYSCLK)
 80041aa:	687b      	ldr	r3, [r7, #4]
 80041ac:	681b      	ldr	r3, [r3, #0]
 80041ae:	f003 0301 	and.w	r3, r3, #1
 80041b2:	2b00      	cmp	r3, #0
 80041b4:	d044      	beq.n	8004240 <HAL_RCC_ClockConfig+0x120>
  {
    assert_param(IS_RCC_SYSCLKSOURCE(RCC_ClkInitStruct->SYSCLKSource));

    /* HSE is selected as System Clock Source */
    if(RCC_ClkInitStruct->SYSCLKSource == RCC_SYSCLKSOURCE_HSE)
 80041b6:	687b      	ldr	r3, [r7, #4]
 80041b8:	685b      	ldr	r3, [r3, #4]
 80041ba:	2b01      	cmp	r3, #1
 80041bc:	d107      	bne.n	80041ce <HAL_RCC_ClockConfig+0xae>
    {
      /* Check the HSE ready flag */
      if(__HAL_RCC_GET_FLAG(RCC_FLAG_HSERDY) == RESET)
 80041be:	4b47      	ldr	r3, [pc, #284]	; (80042dc <HAL_RCC_ClockConfig+0x1bc>)
 80041c0:	681b      	ldr	r3, [r3, #0]
 80041c2:	f403 3300 	and.w	r3, r3, #131072	; 0x20000
 80041c6:	2b00      	cmp	r3, #0
 80041c8:	d119      	bne.n	80041fe <HAL_RCC_ClockConfig+0xde>
      {
        return HAL_ERROR;
 80041ca:	2301      	movs	r3, #1
 80041cc:	e07f      	b.n	80042ce <HAL_RCC_ClockConfig+0x1ae>
      }
    }
    /* PLL is selected as System Clock Source */
    else if((RCC_ClkInitStruct->SYSCLKSource == RCC_SYSCLKSOURCE_PLLCLK)   ||
 80041ce:	687b      	ldr	r3, [r7, #4]
 80041d0:	685b      	ldr	r3, [r3, #4]
 80041d2:	2b02      	cmp	r3, #2
 80041d4:	d003      	beq.n	80041de <HAL_RCC_ClockConfig+0xbe>
            (RCC_ClkInitStruct->SYSCLKSource == RCC_SYSCLKSOURCE_PLLRCLK))
 80041d6:	687b      	ldr	r3, [r7, #4]
 80041d8:	685b      	ldr	r3, [r3, #4]
    else if((RCC_ClkInitStruct->SYSCLKSource == RCC_SYSCLKSOURCE_PLLCLK)   ||
 80041da:	2b03      	cmp	r3, #3
 80041dc:	d107      	bne.n	80041ee <HAL_RCC_ClockConfig+0xce>
    {
      /* Check the PLL ready flag */
      if(__HAL_RCC_GET_FLAG(RCC_FLAG_PLLRDY) == RESET)
 80041de:	4b3f      	ldr	r3, [pc, #252]	; (80042dc <HAL_RCC_ClockConfig+0x1bc>)
 80041e0:	681b      	ldr	r3, [r3, #0]
 80041e2:	f003 7300 	and.w	r3, r3, #33554432	; 0x2000000
 80041e6:	2b00      	cmp	r3, #0
 80041e8:	d109      	bne.n	80041fe <HAL_RCC_ClockConfig+0xde>
      {
        return HAL_ERROR;
 80041ea:	2301      	movs	r3, #1
 80041ec:	e06f      	b.n	80042ce <HAL_RCC_ClockConfig+0x1ae>
    }
    /* HSI is selected as System Clock Source */
    else
    {
      /* Check the HSI ready flag */
      if(__HAL_RCC_GET_FLAG(RCC_FLAG_HSIRDY) == RESET)
 80041ee:	4b3b      	ldr	r3, [pc, #236]	; (80042dc <HAL_RCC_ClockConfig+0x1bc>)
 80041f0:	681b      	ldr	r3, [r3, #0]
 80041f2:	f003 0302 	and.w	r3, r3, #2
 80041f6:	2b00      	cmp	r3, #0
 80041f8:	d101      	bne.n	80041fe <HAL_RCC_ClockConfig+0xde>
      {
        return HAL_ERROR;
 80041fa:	2301      	movs	r3, #1
 80041fc:	e067      	b.n	80042ce <HAL_RCC_ClockConfig+0x1ae>
      }
    }

    __HAL_RCC_SYSCLK_CONFIG(RCC_ClkInitStruct->SYSCLKSource);
 80041fe:	4b37      	ldr	r3, [pc, #220]	; (80042dc <HAL_RCC_ClockConfig+0x1bc>)
 8004200:	689b      	ldr	r3, [r3, #8]
 8004202:	f023 0203 	bic.w	r2, r3, #3
 8004206:	687b      	ldr	r3, [r7, #4]
 8004208:	685b      	ldr	r3, [r3, #4]
 800420a:	4934      	ldr	r1, [pc, #208]	; (80042dc <HAL_RCC_ClockConfig+0x1bc>)
 800420c:	4313      	orrs	r3, r2
 800420e:	608b      	str	r3, [r1, #8]

    /* Get Start Tick */
    tickstart = HAL_GetTick();
 8004210:	f7fe fce6 	bl	8002be0 <HAL_GetTick>
 8004214:	60f8      	str	r0, [r7, #12]

    while (__HAL_RCC_GET_SYSCLK_SOURCE() != (RCC_ClkInitStruct->SYSCLKSource << RCC_CFGR_SWS_Pos))
 8004216:	e00a      	b.n	800422e <HAL_RCC_ClockConfig+0x10e>
    {
      if ((HAL_GetTick() - tickstart) > CLOCKSWITCH_TIMEOUT_VALUE)
 8004218:	f7fe fce2 	bl	8002be0 <HAL_GetTick>
 800421c:	4602      	mov	r2, r0
 800421e:	68fb      	ldr	r3, [r7, #12]
 8004220:	1ad3      	subs	r3, r2, r3
 8004222:	f241 3288 	movw	r2, #5000	; 0x1388
 8004226:	4293      	cmp	r3, r2
 8004228:	d901      	bls.n	800422e <HAL_RCC_ClockConfig+0x10e>
      {
        return HAL_TIMEOUT;
 800422a:	2303      	movs	r3, #3
 800422c:	e04f      	b.n	80042ce <HAL_RCC_ClockConfig+0x1ae>
    while (__HAL_RCC_GET_SYSCLK_SOURCE() != (RCC_ClkInitStruct->SYSCLKSource << RCC_CFGR_SWS_Pos))
 800422e:	4b2b      	ldr	r3, [pc, #172]	; (80042dc <HAL_RCC_ClockConfig+0x1bc>)
 8004230:	689b      	ldr	r3, [r3, #8]
 8004232:	f003 020c 	and.w	r2, r3, #12
 8004236:	687b      	ldr	r3, [r7, #4]
 8004238:	685b      	ldr	r3, [r3, #4]
 800423a:	009b      	lsls	r3, r3, #2
 800423c:	429a      	cmp	r2, r3
 800423e:	d1eb      	bne.n	8004218 <HAL_RCC_ClockConfig+0xf8>
      }
    }
  }

  /* Decreasing the number of wait states because of lower CPU frequency */
  if(FLatency < __HAL_FLASH_GET_LATENCY())
 8004240:	4b25      	ldr	r3, [pc, #148]	; (80042d8 <HAL_RCC_ClockConfig+0x1b8>)
 8004242:	681b      	ldr	r3, [r3, #0]
 8004244:	f003 0307 	and.w	r3, r3, #7
 8004248:	683a      	ldr	r2, [r7, #0]
 800424a:	429a      	cmp	r2, r3
 800424c:	d20c      	bcs.n	8004268 <HAL_RCC_ClockConfig+0x148>
  {
     /* Program the new number of wait states to the LATENCY bits in the FLASH_ACR register */
    __HAL_FLASH_SET_LATENCY(FLatency);
 800424e:	4b22      	ldr	r3, [pc, #136]	; (80042d8 <HAL_RCC_ClockConfig+0x1b8>)
 8004250:	683a      	ldr	r2, [r7, #0]
 8004252:	b2d2      	uxtb	r2, r2
 8004254:	701a      	strb	r2, [r3, #0]

    /* Check that the new number of wait states is taken into account to access the Flash
    memory by reading the FLASH_ACR register */
    if(__HAL_FLASH_GET_LATENCY() != FLatency)
 8004256:	4b20      	ldr	r3, [pc, #128]	; (80042d8 <HAL_RCC_ClockConfig+0x1b8>)
 8004258:	681b      	ldr	r3, [r3, #0]
 800425a:	f003 0307 	and.w	r3, r3, #7
 800425e:	683a      	ldr	r2, [r7, #0]
 8004260:	429a      	cmp	r2, r3
 8004262:	d001      	beq.n	8004268 <HAL_RCC_ClockConfig+0x148>
    {
      return HAL_ERROR;
 8004264:	2301      	movs	r3, #1
 8004266:	e032      	b.n	80042ce <HAL_RCC_ClockConfig+0x1ae>
    }
  }

  /*-------------------------- PCLK1 Configuration ---------------------------*/
  if(((RCC_ClkInitStruct->ClockType) & RCC_CLOCKTYPE_PCLK1) == RCC_CLOCKTYPE_PCLK1)
 8004268:	687b      	ldr	r3, [r7, #4]
 800426a:	681b      	ldr	r3, [r3, #0]
 800426c:	f003 0304 	and.w	r3, r3, #4
 8004270:	2b00      	cmp	r3, #0
 8004272:	d008      	beq.n	8004286 <HAL_RCC_ClockConfig+0x166>
  {
    assert_param(IS_RCC_PCLK(RCC_ClkInitStruct->APB1CLKDivider));
    MODIFY_REG(RCC->CFGR, RCC_CFGR_PPRE1, RCC_ClkInitStruct->APB1CLKDivider);
 8004274:	4b19      	ldr	r3, [pc, #100]	; (80042dc <HAL_RCC_ClockConfig+0x1bc>)
 8004276:	689b      	ldr	r3, [r3, #8]
 8004278:	f423 52e0 	bic.w	r2, r3, #7168	; 0x1c00
 800427c:	687b      	ldr	r3, [r7, #4]
 800427e:	68db      	ldr	r3, [r3, #12]
 8004280:	4916      	ldr	r1, [pc, #88]	; (80042dc <HAL_RCC_ClockConfig+0x1bc>)
 8004282:	4313      	orrs	r3, r2
 8004284:	608b      	str	r3, [r1, #8]
  }

  /*-------------------------- PCLK2 Configuration ---------------------------*/
  if(((RCC_ClkInitStruct->ClockType) & RCC_CLOCKTYPE_PCLK2) == RCC_CLOCKTYPE_PCLK2)
 8004286:	687b      	ldr	r3, [r7, #4]
 8004288:	681b      	ldr	r3, [r3, #0]
 800428a:	f003 0308 	and.w	r3, r3, #8
 800428e:	2b00      	cmp	r3, #0
 8004290:	d009      	beq.n	80042a6 <HAL_RCC_ClockConfig+0x186>
  {
    assert_param(IS_RCC_PCLK(RCC_ClkInitStruct->APB2CLKDivider));
    MODIFY_REG(RCC->CFGR, RCC_CFGR_PPRE2, ((RCC_ClkInitStruct->APB2CLKDivider) << 3U));
 8004292:	4b12      	ldr	r3, [pc, #72]	; (80042dc <HAL_RCC_ClockConfig+0x1bc>)
 8004294:	689b      	ldr	r3, [r3, #8]
 8004296:	f423 4260 	bic.w	r2, r3, #57344	; 0xe000
 800429a:	687b      	ldr	r3, [r7, #4]
 800429c:	691b      	ldr	r3, [r3, #16]
 800429e:	00db      	lsls	r3, r3, #3
 80042a0:	490e      	ldr	r1, [pc, #56]	; (80042dc <HAL_RCC_ClockConfig+0x1bc>)
 80042a2:	4313      	orrs	r3, r2
 80042a4:	608b      	str	r3, [r1, #8]
  }

  /* Update the SystemCoreClock global variable */
  SystemCoreClock = HAL_RCC_GetSysClockFreq() >> AHBPrescTable[(RCC->CFGR & RCC_CFGR_HPRE)>> RCC_CFGR_HPRE_Pos];
 80042a6:	f000 f821 	bl	80042ec <HAL_RCC_GetSysClockFreq>
 80042aa:	4602      	mov	r2, r0
 80042ac:	4b0b      	ldr	r3, [pc, #44]	; (80042dc <HAL_RCC_ClockConfig+0x1bc>)
 80042ae:	689b      	ldr	r3, [r3, #8]
 80042b0:	091b      	lsrs	r3, r3, #4
 80042b2:	f003 030f 	and.w	r3, r3, #15
 80042b6:	490a      	ldr	r1, [pc, #40]	; (80042e0 <HAL_RCC_ClockConfig+0x1c0>)
 80042b8:	5ccb      	ldrb	r3, [r1, r3]
 80042ba:	fa22 f303 	lsr.w	r3, r2, r3
 80042be:	4a09      	ldr	r2, [pc, #36]	; (80042e4 <HAL_RCC_ClockConfig+0x1c4>)
 80042c0:	6013      	str	r3, [r2, #0]

  /* Configure the source of time base considering new system clocks settings */
  HAL_InitTick (uwTickPrio);
 80042c2:	4b09      	ldr	r3, [pc, #36]	; (80042e8 <HAL_RCC_ClockConfig+0x1c8>)
 80042c4:	681b      	ldr	r3, [r3, #0]
 80042c6:	4618      	mov	r0, r3
 80042c8:	f7fe faa0 	bl	800280c <HAL_InitTick>

  return HAL_OK;
 80042cc:	2300      	movs	r3, #0
}
 80042ce:	4618      	mov	r0, r3
 80042d0:	3710      	adds	r7, #16
 80042d2:	46bd      	mov	sp, r7
 80042d4:	bd80      	pop	{r7, pc}
 80042d6:	bf00      	nop
 80042d8:	40023c00 	.word	0x40023c00
 80042dc:	40023800 	.word	0x40023800
 80042e0:	08008c70 	.word	0x08008c70
 80042e4:	20000024 	.word	0x20000024
 80042e8:	20000040 	.word	0x20000040

080042ec <HAL_RCC_GetSysClockFreq>:
  *
  *
  * @retval SYSCLK frequency
  */
__weak uint32_t HAL_RCC_GetSysClockFreq(void)
{
 80042ec:	e92d 4fb0 	stmdb	sp!, {r4, r5, r7, r8, r9, sl, fp, lr}
 80042f0:	b090      	sub	sp, #64	; 0x40
 80042f2:	af00      	add	r7, sp, #0
  uint32_t pllm = 0U, pllvco = 0U, pllp = 0U;
 80042f4:	2300      	movs	r3, #0
 80042f6:	637b      	str	r3, [r7, #52]	; 0x34
 80042f8:	2300      	movs	r3, #0
 80042fa:	63fb      	str	r3, [r7, #60]	; 0x3c
 80042fc:	2300      	movs	r3, #0
 80042fe:	633b      	str	r3, [r7, #48]	; 0x30
  uint32_t sysclockfreq = 0U;
 8004300:	2300      	movs	r3, #0
 8004302:	63bb      	str	r3, [r7, #56]	; 0x38

  /* Get SYSCLK source -------------------------------------------------------*/
  switch (RCC->CFGR & RCC_CFGR_SWS)
 8004304:	4b59      	ldr	r3, [pc, #356]	; (800446c <HAL_RCC_GetSysClockFreq+0x180>)
 8004306:	689b      	ldr	r3, [r3, #8]
 8004308:	f003 030c 	and.w	r3, r3, #12
 800430c:	2b08      	cmp	r3, #8
 800430e:	d00d      	beq.n	800432c <HAL_RCC_GetSysClockFreq+0x40>
 8004310:	2b08      	cmp	r3, #8
 8004312:	f200 80a1 	bhi.w	8004458 <HAL_RCC_GetSysClockFreq+0x16c>
 8004316:	2b00      	cmp	r3, #0
 8004318:	d002      	beq.n	8004320 <HAL_RCC_GetSysClockFreq+0x34>
 800431a:	2b04      	cmp	r3, #4
 800431c:	d003      	beq.n	8004326 <HAL_RCC_GetSysClockFreq+0x3a>
 800431e:	e09b      	b.n	8004458 <HAL_RCC_GetSysClockFreq+0x16c>
  {
    case RCC_CFGR_SWS_HSI:  /* HSI used as system clock source */
    {
      sysclockfreq = HSI_VALUE;
 8004320:	4b53      	ldr	r3, [pc, #332]	; (8004470 <HAL_RCC_GetSysClockFreq+0x184>)
 8004322:	63bb      	str	r3, [r7, #56]	; 0x38
       break;
 8004324:	e09b      	b.n	800445e <HAL_RCC_GetSysClockFreq+0x172>
    }
    case RCC_CFGR_SWS_HSE:  /* HSE used as system clock  source */
    {
      sysclockfreq = HSE_VALUE;
 8004326:	4b53      	ldr	r3, [pc, #332]	; (8004474 <HAL_RCC_GetSysClockFreq+0x188>)
 8004328:	63bb      	str	r3, [r7, #56]	; 0x38
      break;
 800432a:	e098      	b.n	800445e <HAL_RCC_GetSysClockFreq+0x172>
    }
    case RCC_CFGR_SWS_PLL:  /* PLL used as system clock  source */
    {
      /* PLL_VCO = (HSE_VALUE or HSI_VALUE / PLLM) * PLLN
      SYSCLK = PLL_VCO / PLLP */
      pllm = RCC->PLLCFGR & RCC_PLLCFGR_PLLM;
 800432c:	4b4f      	ldr	r3, [pc, #316]	; (800446c <HAL_RCC_GetSysClockFreq+0x180>)
 800432e:	685b      	ldr	r3, [r3, #4]
 8004330:	f003 033f 	and.w	r3, r3, #63	; 0x3f
 8004334:	637b      	str	r3, [r7, #52]	; 0x34
      if(__HAL_RCC_GET_PLL_OSCSOURCE() != RCC_PLLSOURCE_HSI)
 8004336:	4b4d      	ldr	r3, [pc, #308]	; (800446c <HAL_RCC_GetSysClockFreq+0x180>)
 8004338:	685b      	ldr	r3, [r3, #4]
 800433a:	f403 0380 	and.w	r3, r3, #4194304	; 0x400000
 800433e:	2b00      	cmp	r3, #0
 8004340:	d028      	beq.n	8004394 <HAL_RCC_GetSysClockFreq+0xa8>
      {
        /* HSE used as PLL clock source */
        pllvco = (uint32_t) ((((uint64_t) HSE_VALUE * ((uint64_t) ((RCC->PLLCFGR & RCC_PLLCFGR_PLLN) >> RCC_PLLCFGR_PLLN_Pos)))) / (uint64_t)pllm);
 8004342:	4b4a      	ldr	r3, [pc, #296]	; (800446c <HAL_RCC_GetSysClockFreq+0x180>)
 8004344:	685b      	ldr	r3, [r3, #4]
 8004346:	099b      	lsrs	r3, r3, #6
 8004348:	2200      	movs	r2, #0
 800434a:	623b      	str	r3, [r7, #32]
 800434c:	627a      	str	r2, [r7, #36]	; 0x24
 800434e:	6a3b      	ldr	r3, [r7, #32]
 8004350:	f3c3 0008 	ubfx	r0, r3, #0, #9
 8004354:	2100      	movs	r1, #0
 8004356:	4b47      	ldr	r3, [pc, #284]	; (8004474 <HAL_RCC_GetSysClockFreq+0x188>)
 8004358:	fb03 f201 	mul.w	r2, r3, r1
 800435c:	2300      	movs	r3, #0
 800435e:	fb00 f303 	mul.w	r3, r0, r3
 8004362:	4413      	add	r3, r2
 8004364:	4a43      	ldr	r2, [pc, #268]	; (8004474 <HAL_RCC_GetSysClockFreq+0x188>)
 8004366:	fba0 1202 	umull	r1, r2, r0, r2
 800436a:	62fa      	str	r2, [r7, #44]	; 0x2c
 800436c:	460a      	mov	r2, r1
 800436e:	62ba      	str	r2, [r7, #40]	; 0x28
 8004370:	6afa      	ldr	r2, [r7, #44]	; 0x2c
 8004372:	4413      	add	r3, r2
 8004374:	62fb      	str	r3, [r7, #44]	; 0x2c
 8004376:	6b7b      	ldr	r3, [r7, #52]	; 0x34
 8004378:	2200      	movs	r2, #0
 800437a:	61bb      	str	r3, [r7, #24]
 800437c:	61fa      	str	r2, [r7, #28]
 800437e:	e9d7 2306 	ldrd	r2, r3, [r7, #24]
 8004382:	e9d7 010a 	ldrd	r0, r1, [r7, #40]	; 0x28
 8004386:	f7fb ff7b 	bl	8000280 <__aeabi_uldivmod>
 800438a:	4602      	mov	r2, r0
 800438c:	460b      	mov	r3, r1
 800438e:	4613      	mov	r3, r2
 8004390:	63fb      	str	r3, [r7, #60]	; 0x3c
 8004392:	e053      	b.n	800443c <HAL_RCC_GetSysClockFreq+0x150>
      }
      else
      {
        /* HSI used as PLL clock source */
        pllvco = (uint32_t) ((((uint64_t) HSI_VALUE * ((uint64_t) ((RCC->PLLCFGR & RCC_PLLCFGR_PLLN) >> RCC_PLLCFGR_PLLN_Pos)))) / (uint64_t)pllm);
 8004394:	4b35      	ldr	r3, [pc, #212]	; (800446c <HAL_RCC_GetSysClockFreq+0x180>)
 8004396:	685b      	ldr	r3, [r3, #4]
 8004398:	099b      	lsrs	r3, r3, #6
 800439a:	2200      	movs	r2, #0
 800439c:	613b      	str	r3, [r7, #16]
 800439e:	617a      	str	r2, [r7, #20]
 80043a0:	693b      	ldr	r3, [r7, #16]
 80043a2:	f3c3 0a08 	ubfx	sl, r3, #0, #9
 80043a6:	f04f 0b00 	mov.w	fp, #0
 80043aa:	4652      	mov	r2, sl
 80043ac:	465b      	mov	r3, fp
 80043ae:	f04f 0000 	mov.w	r0, #0
 80043b2:	f04f 0100 	mov.w	r1, #0
 80043b6:	0159      	lsls	r1, r3, #5
 80043b8:	ea41 61d2 	orr.w	r1, r1, r2, lsr #27
 80043bc:	0150      	lsls	r0, r2, #5
 80043be:	4602      	mov	r2, r0
 80043c0:	460b      	mov	r3, r1
 80043c2:	ebb2 080a 	subs.w	r8, r2, sl
 80043c6:	eb63 090b 	sbc.w	r9, r3, fp
 80043ca:	f04f 0200 	mov.w	r2, #0
 80043ce:	f04f 0300 	mov.w	r3, #0
 80043d2:	ea4f 1389 	mov.w	r3, r9, lsl #6
 80043d6:	ea43 6398 	orr.w	r3, r3, r8, lsr #26
 80043da:	ea4f 1288 	mov.w	r2, r8, lsl #6
 80043de:	ebb2 0408 	subs.w	r4, r2, r8
 80043e2:	eb63 0509 	sbc.w	r5, r3, r9
 80043e6:	f04f 0200 	mov.w	r2, #0
 80043ea:	f04f 0300 	mov.w	r3, #0
 80043ee:	00eb      	lsls	r3, r5, #3
 80043f0:	ea43 7354 	orr.w	r3, r3, r4, lsr #29
 80043f4:	00e2      	lsls	r2, r4, #3
 80043f6:	4614      	mov	r4, r2
 80043f8:	461d      	mov	r5, r3
 80043fa:	eb14 030a 	adds.w	r3, r4, sl
 80043fe:	603b      	str	r3, [r7, #0]
 8004400:	eb45 030b 	adc.w	r3, r5, fp
 8004404:	607b      	str	r3, [r7, #4]
 8004406:	f04f 0200 	mov.w	r2, #0
 800440a:	f04f 0300 	mov.w	r3, #0
 800440e:	e9d7 4500 	ldrd	r4, r5, [r7]
 8004412:	4629      	mov	r1, r5
 8004414:	028b      	lsls	r3, r1, #10
 8004416:	4621      	mov	r1, r4
 8004418:	ea43 5391 	orr.w	r3, r3, r1, lsr #22
 800441c:	4621      	mov	r1, r4
 800441e:	028a      	lsls	r2, r1, #10
 8004420:	4610      	mov	r0, r2
 8004422:	4619      	mov	r1, r3
 8004424:	6b7b      	ldr	r3, [r7, #52]	; 0x34
 8004426:	2200      	movs	r2, #0
 8004428:	60bb      	str	r3, [r7, #8]
 800442a:	60fa      	str	r2, [r7, #12]
 800442c:	e9d7 2302 	ldrd	r2, r3, [r7, #8]
 8004430:	f7fb ff26 	bl	8000280 <__aeabi_uldivmod>
 8004434:	4602      	mov	r2, r0
 8004436:	460b      	mov	r3, r1
 8004438:	4613      	mov	r3, r2
 800443a:	63fb      	str	r3, [r7, #60]	; 0x3c
      }
      pllp = ((((RCC->PLLCFGR & RCC_PLLCFGR_PLLP) >> RCC_PLLCFGR_PLLP_Pos) + 1U) *2U);
 800443c:	4b0b      	ldr	r3, [pc, #44]	; (800446c <HAL_RCC_GetSysClockFreq+0x180>)
 800443e:	685b      	ldr	r3, [r3, #4]
 8004440:	0c1b      	lsrs	r3, r3, #16
 8004442:	f003 0303 	and.w	r3, r3, #3
 8004446:	3301      	adds	r3, #1
 8004448:	005b      	lsls	r3, r3, #1
 800444a:	633b      	str	r3, [r7, #48]	; 0x30

      sysclockfreq = pllvco/pllp;
 800444c:	6bfa      	ldr	r2, [r7, #60]	; 0x3c
 800444e:	6b3b      	ldr	r3, [r7, #48]	; 0x30
 8004450:	fbb2 f3f3 	udiv	r3, r2, r3
 8004454:	63bb      	str	r3, [r7, #56]	; 0x38
      break;
 8004456:	e002      	b.n	800445e <HAL_RCC_GetSysClockFreq+0x172>
    }
    default:
    {
      sysclockfreq = HSI_VALUE;
 8004458:	4b05      	ldr	r3, [pc, #20]	; (8004470 <HAL_RCC_GetSysClockFreq+0x184>)
 800445a:	63bb      	str	r3, [r7, #56]	; 0x38
      break;
 800445c:	bf00      	nop
    }
  }
  return sysclockfreq;
 800445e:	6bbb      	ldr	r3, [r7, #56]	; 0x38
}
 8004460:	4618      	mov	r0, r3
 8004462:	3740      	adds	r7, #64	; 0x40
 8004464:	46bd      	mov	sp, r7
 8004466:	e8bd 8fb0 	ldmia.w	sp!, {r4, r5, r7, r8, r9, sl, fp, pc}
 800446a:	bf00      	nop
 800446c:	40023800 	.word	0x40023800
 8004470:	00f42400 	.word	0x00f42400
 8004474:	017d7840 	.word	0x017d7840

08004478 <HAL_RCC_GetHCLKFreq>:
  * @note   The SystemCoreClock CMSIS variable is used to store System Clock Frequency
  *         and updated within this function
  * @retval HCLK frequency
  */
uint32_t HAL_RCC_GetHCLKFreq(void)
{
 8004478:	b480      	push	{r7}
 800447a:	af00      	add	r7, sp, #0
  return SystemCoreClock;
 800447c:	4b03      	ldr	r3, [pc, #12]	; (800448c <HAL_RCC_GetHCLKFreq+0x14>)
 800447e:	681b      	ldr	r3, [r3, #0]
}
 8004480:	4618      	mov	r0, r3
 8004482:	46bd      	mov	sp, r7
 8004484:	f85d 7b04 	ldr.w	r7, [sp], #4
 8004488:	4770      	bx	lr
 800448a:	bf00      	nop
 800448c:	20000024 	.word	0x20000024

08004490 <HAL_RCC_GetPCLK1Freq>:
  * @note   Each time PCLK1 changes, this function must be called to update the
  *         right PCLK1 value. Otherwise, any configuration based on this function will be incorrect.
  * @retval PCLK1 frequency
  */
uint32_t HAL_RCC_GetPCLK1Freq(void)
{
 8004490:	b580      	push	{r7, lr}
 8004492:	af00      	add	r7, sp, #0
  /* Get HCLK source and Compute PCLK1 frequency ---------------------------*/
  return (HAL_RCC_GetHCLKFreq() >> APBPrescTable[(RCC->CFGR & RCC_CFGR_PPRE1)>> RCC_CFGR_PPRE1_Pos]);
 8004494:	f7ff fff0 	bl	8004478 <HAL_RCC_GetHCLKFreq>
 8004498:	4602      	mov	r2, r0
 800449a:	4b05      	ldr	r3, [pc, #20]	; (80044b0 <HAL_RCC_GetPCLK1Freq+0x20>)
 800449c:	689b      	ldr	r3, [r3, #8]
 800449e:	0a9b      	lsrs	r3, r3, #10
 80044a0:	f003 0307 	and.w	r3, r3, #7
 80044a4:	4903      	ldr	r1, [pc, #12]	; (80044b4 <HAL_RCC_GetPCLK1Freq+0x24>)
 80044a6:	5ccb      	ldrb	r3, [r1, r3]
 80044a8:	fa22 f303 	lsr.w	r3, r2, r3
}
 80044ac:	4618      	mov	r0, r3
 80044ae:	bd80      	pop	{r7, pc}
 80044b0:	40023800 	.word	0x40023800
 80044b4:	08008c80 	.word	0x08008c80

080044b8 <HAL_RCC_GetPCLK2Freq>:
  * @note   Each time PCLK2 changes, this function must be called to update the
  *         right PCLK2 value. Otherwise, any configuration based on this function will be incorrect.
  * @retval PCLK2 frequency
  */
uint32_t HAL_RCC_GetPCLK2Freq(void)
{
 80044b8:	b580      	push	{r7, lr}
 80044ba:	af00      	add	r7, sp, #0
  /* Get HCLK source and Compute PCLK2 frequency ---------------------------*/
  return (HAL_RCC_GetHCLKFreq()>> APBPrescTable[(RCC->CFGR & RCC_CFGR_PPRE2)>> RCC_CFGR_PPRE2_Pos]);
 80044bc:	f7ff ffdc 	bl	8004478 <HAL_RCC_GetHCLKFreq>
 80044c0:	4602      	mov	r2, r0
 80044c2:	4b05      	ldr	r3, [pc, #20]	; (80044d8 <HAL_RCC_GetPCLK2Freq+0x20>)
 80044c4:	689b      	ldr	r3, [r3, #8]
 80044c6:	0b5b      	lsrs	r3, r3, #13
 80044c8:	f003 0307 	and.w	r3, r3, #7
 80044cc:	4903      	ldr	r1, [pc, #12]	; (80044dc <HAL_RCC_GetPCLK2Freq+0x24>)
 80044ce:	5ccb      	ldrb	r3, [r1, r3]
 80044d0:	fa22 f303 	lsr.w	r3, r2, r3
}
 80044d4:	4618      	mov	r0, r3
 80044d6:	bd80      	pop	{r7, pc}
 80044d8:	40023800 	.word	0x40023800
 80044dc:	08008c80 	.word	0x08008c80

080044e0 <HAL_RCC_GetClockConfig>:
  * will be configured.
  * @param  pFLatency Pointer on the Flash Latency.
  * @retval None
  */
void HAL_RCC_GetClockConfig(RCC_ClkInitTypeDef  *RCC_ClkInitStruct, uint32_t *pFLatency)
{
 80044e0:	b480      	push	{r7}
 80044e2:	b083      	sub	sp, #12
 80044e4:	af00      	add	r7, sp, #0
 80044e6:	6078      	str	r0, [r7, #4]
 80044e8:	6039      	str	r1, [r7, #0]
  /* Set all possible values for the Clock type parameter --------------------*/
  RCC_ClkInitStruct->ClockType = RCC_CLOCKTYPE_SYSCLK | RCC_CLOCKTYPE_HCLK | RCC_CLOCKTYPE_PCLK1 | RCC_CLOCKTYPE_PCLK2;
 80044ea:	687b      	ldr	r3, [r7, #4]
 80044ec:	220f      	movs	r2, #15
 80044ee:	601a      	str	r2, [r3, #0]

  /* Get the SYSCLK configuration --------------------------------------------*/
  RCC_ClkInitStruct->SYSCLKSource = (uint32_t)(RCC->CFGR & RCC_CFGR_SW);
 80044f0:	4b12      	ldr	r3, [pc, #72]	; (800453c <HAL_RCC_GetClockConfig+0x5c>)
 80044f2:	689b      	ldr	r3, [r3, #8]
 80044f4:	f003 0203 	and.w	r2, r3, #3
 80044f8:	687b      	ldr	r3, [r7, #4]
 80044fa:	605a      	str	r2, [r3, #4]

  /* Get the HCLK configuration ----------------------------------------------*/
  RCC_ClkInitStruct->AHBCLKDivider = (uint32_t)(RCC->CFGR & RCC_CFGR_HPRE);
 80044fc:	4b0f      	ldr	r3, [pc, #60]	; (800453c <HAL_RCC_GetClockConfig+0x5c>)
 80044fe:	689b      	ldr	r3, [r3, #8]
 8004500:	f003 02f0 	and.w	r2, r3, #240	; 0xf0
 8004504:	687b      	ldr	r3, [r7, #4]
 8004506:	609a      	str	r2, [r3, #8]

  /* Get the APB1 configuration ----------------------------------------------*/
  RCC_ClkInitStruct->APB1CLKDivider = (uint32_t)(RCC->CFGR & RCC_CFGR_PPRE1);
 8004508:	4b0c      	ldr	r3, [pc, #48]	; (800453c <HAL_RCC_GetClockConfig+0x5c>)
 800450a:	689b      	ldr	r3, [r3, #8]
 800450c:	f403 52e0 	and.w	r2, r3, #7168	; 0x1c00
 8004510:	687b      	ldr	r3, [r7, #4]
 8004512:	60da      	str	r2, [r3, #12]

  /* Get the APB2 configuration ----------------------------------------------*/
  RCC_ClkInitStruct->APB2CLKDivider = (uint32_t)((RCC->CFGR & RCC_CFGR_PPRE2) >> 3U);
 8004514:	4b09      	ldr	r3, [pc, #36]	; (800453c <HAL_RCC_GetClockConfig+0x5c>)
 8004516:	689b      	ldr	r3, [r3, #8]
 8004518:	08db      	lsrs	r3, r3, #3
 800451a:	f403 52e0 	and.w	r2, r3, #7168	; 0x1c00
 800451e:	687b      	ldr	r3, [r7, #4]
 8004520:	611a      	str	r2, [r3, #16]

  /* Get the Flash Wait State (Latency) configuration ------------------------*/
  *pFLatency = (uint32_t)(FLASH->ACR & FLASH_ACR_LATENCY);
 8004522:	4b07      	ldr	r3, [pc, #28]	; (8004540 <HAL_RCC_GetClockConfig+0x60>)
 8004524:	681b      	ldr	r3, [r3, #0]
 8004526:	f003 0207 	and.w	r2, r3, #7
 800452a:	683b      	ldr	r3, [r7, #0]
 800452c:	601a      	str	r2, [r3, #0]
}
 800452e:	bf00      	nop
 8004530:	370c      	adds	r7, #12
 8004532:	46bd      	mov	sp, r7
 8004534:	f85d 7b04 	ldr.w	r7, [sp], #4
 8004538:	4770      	bx	lr
 800453a:	bf00      	nop
 800453c:	40023800 	.word	0x40023800
 8004540:	40023c00 	.word	0x40023c00

08004544 <HAL_SPI_Init>:
  * @param  hspi pointer to a SPI_HandleTypeDef structure that contains
  *               the configuration information for SPI module.
  * @retval HAL status
  */
HAL_StatusTypeDef HAL_SPI_Init(SPI_HandleTypeDef *hspi)
{
 8004544:	b580      	push	{r7, lr}
 8004546:	b082      	sub	sp, #8
 8004548:	af00      	add	r7, sp, #0
 800454a:	6078      	str	r0, [r7, #4]
  /* Check the SPI handle allocation */
  if (hspi == NULL)
 800454c:	687b      	ldr	r3, [r7, #4]
 800454e:	2b00      	cmp	r3, #0
 8004550:	d101      	bne.n	8004556 <HAL_SPI_Init+0x12>
  {
    return HAL_ERROR;
 8004552:	2301      	movs	r3, #1
 8004554:	e07b      	b.n	800464e <HAL_SPI_Init+0x10a>
  assert_param(IS_SPI_DATASIZE(hspi->Init.DataSize));
  assert_param(IS_SPI_NSS(hspi->Init.NSS));
  assert_param(IS_SPI_BAUDRATE_PRESCALER(hspi->Init.BaudRatePrescaler));
  assert_param(IS_SPI_FIRST_BIT(hspi->Init.FirstBit));
  assert_param(IS_SPI_TIMODE(hspi->Init.TIMode));
  if (hspi->Init.TIMode == SPI_TIMODE_DISABLE)
 8004556:	687b      	ldr	r3, [r7, #4]
 8004558:	6a5b      	ldr	r3, [r3, #36]	; 0x24
 800455a:	2b00      	cmp	r3, #0
 800455c:	d108      	bne.n	8004570 <HAL_SPI_Init+0x2c>
  {
    assert_param(IS_SPI_CPOL(hspi->Init.CLKPolarity));
    assert_param(IS_SPI_CPHA(hspi->Init.CLKPhase));

    if (hspi->Init.Mode == SPI_MODE_MASTER)
 800455e:	687b      	ldr	r3, [r7, #4]
 8004560:	685b      	ldr	r3, [r3, #4]
 8004562:	f5b3 7f82 	cmp.w	r3, #260	; 0x104
 8004566:	d009      	beq.n	800457c <HAL_SPI_Init+0x38>
      assert_param(IS_SPI_BAUDRATE_PRESCALER(hspi->Init.BaudRatePrescaler));
    }
    else
    {
      /* Baudrate prescaler not use in Motoraola Slave mode. force to default value */
      hspi->Init.BaudRatePrescaler = SPI_BAUDRATEPRESCALER_2;
 8004568:	687b      	ldr	r3, [r7, #4]
 800456a:	2200      	movs	r2, #0
 800456c:	61da      	str	r2, [r3, #28]
 800456e:	e005      	b.n	800457c <HAL_SPI_Init+0x38>
  else
  {
    assert_param(IS_SPI_BAUDRATE_PRESCALER(hspi->Init.BaudRatePrescaler));

    /* Force polarity and phase to TI protocaol requirements */
    hspi->Init.CLKPolarity = SPI_POLARITY_LOW;
 8004570:	687b      	ldr	r3, [r7, #4]
 8004572:	2200      	movs	r2, #0
 8004574:	611a      	str	r2, [r3, #16]
    hspi->Init.CLKPhase    = SPI_PHASE_1EDGE;
 8004576:	687b      	ldr	r3, [r7, #4]
 8004578:	2200      	movs	r2, #0
 800457a:	615a      	str	r2, [r3, #20]
  if (hspi->Init.CRCCalculation == SPI_CRCCALCULATION_ENABLE)
  {
    assert_param(IS_SPI_CRC_POLYNOMIAL(hspi->Init.CRCPolynomial));
  }
#else
  hspi->Init.CRCCalculation = SPI_CRCCALCULATION_DISABLE;
 800457c:	687b      	ldr	r3, [r7, #4]
 800457e:	2200      	movs	r2, #0
 8004580:	629a      	str	r2, [r3, #40]	; 0x28
#endif /* USE_SPI_CRC */

  if (hspi->State == HAL_SPI_STATE_RESET)
 8004582:	687b      	ldr	r3, [r7, #4]
 8004584:	f893 3051 	ldrb.w	r3, [r3, #81]	; 0x51
 8004588:	b2db      	uxtb	r3, r3
 800458a:	2b00      	cmp	r3, #0
 800458c:	d106      	bne.n	800459c <HAL_SPI_Init+0x58>
  {
    /* Allocate lock resource and initialize it */
    hspi->Lock = HAL_UNLOCKED;
 800458e:	687b      	ldr	r3, [r7, #4]
 8004590:	2200      	movs	r2, #0
 8004592:	f883 2050 	strb.w	r2, [r3, #80]	; 0x50

    /* Init the low level hardware : GPIO, CLOCK, NVIC... */
    hspi->MspInitCallback(hspi);
#else
    /* Init the low level hardware : GPIO, CLOCK, NVIC... */
    HAL_SPI_MspInit(hspi);
 8004596:	6878      	ldr	r0, [r7, #4]
 8004598:	f7fe f88a 	bl	80026b0 <HAL_SPI_MspInit>
#endif /* USE_HAL_SPI_REGISTER_CALLBACKS */
  }

  hspi->State = HAL_SPI_STATE_BUSY;
 800459c:	687b      	ldr	r3, [r7, #4]
 800459e:	2202      	movs	r2, #2
 80045a0:	f883 2051 	strb.w	r2, [r3, #81]	; 0x51

  /* Disable the selected SPI peripheral */
  __HAL_SPI_DISABLE(hspi);
 80045a4:	687b      	ldr	r3, [r7, #4]
 80045a6:	681b      	ldr	r3, [r3, #0]
 80045a8:	681a      	ldr	r2, [r3, #0]
 80045aa:	687b      	ldr	r3, [r7, #4]
 80045ac:	681b      	ldr	r3, [r3, #0]
 80045ae:	f022 0240 	bic.w	r2, r2, #64	; 0x40
 80045b2:	601a      	str	r2, [r3, #0]

  /*----------------------- SPIx CR1 & CR2 Configuration ---------------------*/
  /* Configure : SPI Mode, Communication Mode, Data size, Clock polarity and phase, NSS management,
  Communication speed, First bit and CRC calculation state */
  WRITE_REG(hspi->Instance->CR1, ((hspi->Init.Mode & (SPI_CR1_MSTR | SPI_CR1_SSI)) |
 80045b4:	687b      	ldr	r3, [r7, #4]
 80045b6:	685b      	ldr	r3, [r3, #4]
 80045b8:	f403 7282 	and.w	r2, r3, #260	; 0x104
 80045bc:	687b      	ldr	r3, [r7, #4]
 80045be:	689b      	ldr	r3, [r3, #8]
 80045c0:	f403 4304 	and.w	r3, r3, #33792	; 0x8400
 80045c4:	431a      	orrs	r2, r3
 80045c6:	687b      	ldr	r3, [r7, #4]
 80045c8:	68db      	ldr	r3, [r3, #12]
 80045ca:	f403 6300 	and.w	r3, r3, #2048	; 0x800
 80045ce:	431a      	orrs	r2, r3
 80045d0:	687b      	ldr	r3, [r7, #4]
 80045d2:	691b      	ldr	r3, [r3, #16]
 80045d4:	f003 0302 	and.w	r3, r3, #2
 80045d8:	431a      	orrs	r2, r3
 80045da:	687b      	ldr	r3, [r7, #4]
 80045dc:	695b      	ldr	r3, [r3, #20]
 80045de:	f003 0301 	and.w	r3, r3, #1
 80045e2:	431a      	orrs	r2, r3
 80045e4:	687b      	ldr	r3, [r7, #4]
 80045e6:	699b      	ldr	r3, [r3, #24]
 80045e8:	f403 7300 	and.w	r3, r3, #512	; 0x200
 80045ec:	431a      	orrs	r2, r3
 80045ee:	687b      	ldr	r3, [r7, #4]
 80045f0:	69db      	ldr	r3, [r3, #28]
 80045f2:	f003 0338 	and.w	r3, r3, #56	; 0x38
 80045f6:	431a      	orrs	r2, r3
 80045f8:	687b      	ldr	r3, [r7, #4]
 80045fa:	6a1b      	ldr	r3, [r3, #32]
 80045fc:	f003 0380 	and.w	r3, r3, #128	; 0x80
 8004600:	ea42 0103 	orr.w	r1, r2, r3
 8004604:	687b      	ldr	r3, [r7, #4]
 8004606:	6a9b      	ldr	r3, [r3, #40]	; 0x28
 8004608:	f403 5200 	and.w	r2, r3, #8192	; 0x2000
 800460c:	687b      	ldr	r3, [r7, #4]
 800460e:	681b      	ldr	r3, [r3, #0]
 8004610:	430a      	orrs	r2, r1
 8004612:	601a      	str	r2, [r3, #0]
                                  (hspi->Init.BaudRatePrescaler & SPI_CR1_BR_Msk) |
                                  (hspi->Init.FirstBit  & SPI_CR1_LSBFIRST) |
                                  (hspi->Init.CRCCalculation & SPI_CR1_CRCEN)));

  /* Configure : NSS management, TI Mode */
  WRITE_REG(hspi->Instance->CR2, (((hspi->Init.NSS >> 16U) & SPI_CR2_SSOE) | (hspi->Init.TIMode & SPI_CR2_FRF)));
 8004614:	687b      	ldr	r3, [r7, #4]
 8004616:	699b      	ldr	r3, [r3, #24]
 8004618:	0c1b      	lsrs	r3, r3, #16
 800461a:	f003 0104 	and.w	r1, r3, #4
 800461e:	687b      	ldr	r3, [r7, #4]
 8004620:	6a5b      	ldr	r3, [r3, #36]	; 0x24
 8004622:	f003 0210 	and.w	r2, r3, #16
 8004626:	687b      	ldr	r3, [r7, #4]
 8004628:	681b      	ldr	r3, [r3, #0]
 800462a:	430a      	orrs	r2, r1
 800462c:	605a      	str	r2, [r3, #4]
  }
#endif /* USE_SPI_CRC */

#if defined(SPI_I2SCFGR_I2SMOD)
  /* Activate the SPI mode (Make sure that I2SMOD bit in I2SCFGR register is reset) */
  CLEAR_BIT(hspi->Instance->I2SCFGR, SPI_I2SCFGR_I2SMOD);
 800462e:	687b      	ldr	r3, [r7, #4]
 8004630:	681b      	ldr	r3, [r3, #0]
 8004632:	69da      	ldr	r2, [r3, #28]
 8004634:	687b      	ldr	r3, [r7, #4]
 8004636:	681b      	ldr	r3, [r3, #0]
 8004638:	f422 6200 	bic.w	r2, r2, #2048	; 0x800
 800463c:	61da      	str	r2, [r3, #28]
#endif /* SPI_I2SCFGR_I2SMOD */

  hspi->ErrorCode = HAL_SPI_ERROR_NONE;
 800463e:	687b      	ldr	r3, [r7, #4]
 8004640:	2200      	movs	r2, #0
 8004642:	655a      	str	r2, [r3, #84]	; 0x54
  hspi->State     = HAL_SPI_STATE_READY;
 8004644:	687b      	ldr	r3, [r7, #4]
 8004646:	2201      	movs	r2, #1
 8004648:	f883 2051 	strb.w	r2, [r3, #81]	; 0x51

  return HAL_OK;
 800464c:	2300      	movs	r3, #0
}
 800464e:	4618      	mov	r0, r3
 8004650:	3708      	adds	r7, #8
 8004652:	46bd      	mov	sp, r7
 8004654:	bd80      	pop	{r7, pc}

08004656 <HAL_SPI_DeInit>:
  * @param  hspi pointer to a SPI_HandleTypeDef structure that contains
  *               the configuration information for SPI module.
  * @retval HAL status
  */
HAL_StatusTypeDef HAL_SPI_DeInit(SPI_HandleTypeDef *hspi)
{
 8004656:	b580      	push	{r7, lr}
 8004658:	b082      	sub	sp, #8
 800465a:	af00      	add	r7, sp, #0
 800465c:	6078      	str	r0, [r7, #4]
  /* Check the SPI handle allocation */
  if (hspi == NULL)
 800465e:	687b      	ldr	r3, [r7, #4]
 8004660:	2b00      	cmp	r3, #0
 8004662:	d101      	bne.n	8004668 <HAL_SPI_DeInit+0x12>
  {
    return HAL_ERROR;
 8004664:	2301      	movs	r3, #1
 8004666:	e01a      	b.n	800469e <HAL_SPI_DeInit+0x48>
  }

  /* Check SPI Instance parameter */
  assert_param(IS_SPI_ALL_INSTANCE(hspi->Instance));

  hspi->State = HAL_SPI_STATE_BUSY;
 8004668:	687b      	ldr	r3, [r7, #4]
 800466a:	2202      	movs	r2, #2
 800466c:	f883 2051 	strb.w	r2, [r3, #81]	; 0x51

  /* Disable the SPI Peripheral Clock */
  __HAL_SPI_DISABLE(hspi);
 8004670:	687b      	ldr	r3, [r7, #4]
 8004672:	681b      	ldr	r3, [r3, #0]
 8004674:	681a      	ldr	r2, [r3, #0]
 8004676:	687b      	ldr	r3, [r7, #4]
 8004678:	681b      	ldr	r3, [r3, #0]
 800467a:	f022 0240 	bic.w	r2, r2, #64	; 0x40
 800467e:	601a      	str	r2, [r3, #0]

  /* DeInit the low level hardware: GPIO, CLOCK, NVIC... */
  hspi->MspDeInitCallback(hspi);
#else
  /* DeInit the low level hardware: GPIO, CLOCK, NVIC... */
  HAL_SPI_MspDeInit(hspi);
 8004680:	6878      	ldr	r0, [r7, #4]
 8004682:	f7fe f85d 	bl	8002740 <HAL_SPI_MspDeInit>
#endif /* USE_HAL_SPI_REGISTER_CALLBACKS */

  hspi->ErrorCode = HAL_SPI_ERROR_NONE;
 8004686:	687b      	ldr	r3, [r7, #4]
 8004688:	2200      	movs	r2, #0
 800468a:	655a      	str	r2, [r3, #84]	; 0x54
  hspi->State = HAL_SPI_STATE_RESET;
 800468c:	687b      	ldr	r3, [r7, #4]
 800468e:	2200      	movs	r2, #0
 8004690:	f883 2051 	strb.w	r2, [r3, #81]	; 0x51

  /* Release Lock */
  __HAL_UNLOCK(hspi);
 8004694:	687b      	ldr	r3, [r7, #4]
 8004696:	2200      	movs	r2, #0
 8004698:	f883 2050 	strb.w	r2, [r3, #80]	; 0x50

  return HAL_OK;
 800469c:	2300      	movs	r3, #0
}
 800469e:	4618      	mov	r0, r3
 80046a0:	3708      	adds	r7, #8
 80046a2:	46bd      	mov	sp, r7
 80046a4:	bd80      	pop	{r7, pc}

080046a6 <HAL_SPI_TransmitReceive>:
  * @param  Timeout Timeout duration
  * @retval HAL status
  */
HAL_StatusTypeDef HAL_SPI_TransmitReceive(SPI_HandleTypeDef *hspi, uint8_t *pTxData, uint8_t *pRxData, uint16_t Size,
                                          uint32_t Timeout)
{
 80046a6:	b580      	push	{r7, lr}
 80046a8:	b08c      	sub	sp, #48	; 0x30
 80046aa:	af00      	add	r7, sp, #0
 80046ac:	60f8      	str	r0, [r7, #12]
 80046ae:	60b9      	str	r1, [r7, #8]
 80046b0:	607a      	str	r2, [r7, #4]
 80046b2:	807b      	strh	r3, [r7, #2]
#if (USE_SPI_CRC != 0U)
  __IO uint32_t tmpreg = 0U;
#endif /* USE_SPI_CRC */

  /* Variable used to alternate Rx and Tx during transfer */
  uint32_t             txallowed = 1U;
 80046b4:	2301      	movs	r3, #1
 80046b6:	62fb      	str	r3, [r7, #44]	; 0x2c
  HAL_StatusTypeDef    errorcode = HAL_OK;
 80046b8:	2300      	movs	r3, #0
 80046ba:	f887 302b 	strb.w	r3, [r7, #43]	; 0x2b

  /* Check Direction parameter */
  assert_param(IS_SPI_DIRECTION_2LINES(hspi->Init.Direction));

  /* Process Locked */
  __HAL_LOCK(hspi);
 80046be:	68fb      	ldr	r3, [r7, #12]
 80046c0:	f893 3050 	ldrb.w	r3, [r3, #80]	; 0x50
 80046c4:	2b01      	cmp	r3, #1
 80046c6:	d101      	bne.n	80046cc <HAL_SPI_TransmitReceive+0x26>
 80046c8:	2302      	movs	r3, #2
 80046ca:	e18a      	b.n	80049e2 <HAL_SPI_TransmitReceive+0x33c>
 80046cc:	68fb      	ldr	r3, [r7, #12]
 80046ce:	2201      	movs	r2, #1
 80046d0:	f883 2050 	strb.w	r2, [r3, #80]	; 0x50

  /* Init tickstart for timeout management*/
  tickstart = HAL_GetTick();
 80046d4:	f7fe fa84 	bl	8002be0 <HAL_GetTick>
 80046d8:	6278      	str	r0, [r7, #36]	; 0x24

  /* Init temporary variables */
  tmp_state           = hspi->State;
 80046da:	68fb      	ldr	r3, [r7, #12]
 80046dc:	f893 3051 	ldrb.w	r3, [r3, #81]	; 0x51
 80046e0:	f887 3023 	strb.w	r3, [r7, #35]	; 0x23
  tmp_mode            = hspi->Init.Mode;
 80046e4:	68fb      	ldr	r3, [r7, #12]
 80046e6:	685b      	ldr	r3, [r3, #4]
 80046e8:	61fb      	str	r3, [r7, #28]
  initial_TxXferCount = Size;
 80046ea:	887b      	ldrh	r3, [r7, #2]
 80046ec:	837b      	strh	r3, [r7, #26]

  if (!((tmp_state == HAL_SPI_STATE_READY) || \
 80046ee:	f897 3023 	ldrb.w	r3, [r7, #35]	; 0x23
 80046f2:	2b01      	cmp	r3, #1
 80046f4:	d00f      	beq.n	8004716 <HAL_SPI_TransmitReceive+0x70>
 80046f6:	69fb      	ldr	r3, [r7, #28]
 80046f8:	f5b3 7f82 	cmp.w	r3, #260	; 0x104
 80046fc:	d107      	bne.n	800470e <HAL_SPI_TransmitReceive+0x68>
        ((tmp_mode == SPI_MODE_MASTER) && (hspi->Init.Direction == SPI_DIRECTION_2LINES) && (tmp_state == HAL_SPI_STATE_BUSY_RX))))
 80046fe:	68fb      	ldr	r3, [r7, #12]
 8004700:	689b      	ldr	r3, [r3, #8]
 8004702:	2b00      	cmp	r3, #0
 8004704:	d103      	bne.n	800470e <HAL_SPI_TransmitReceive+0x68>
 8004706:	f897 3023 	ldrb.w	r3, [r7, #35]	; 0x23
 800470a:	2b04      	cmp	r3, #4
 800470c:	d003      	beq.n	8004716 <HAL_SPI_TransmitReceive+0x70>
  {
    errorcode = HAL_BUSY;
 800470e:	2302      	movs	r3, #2
 8004710:	f887 302b 	strb.w	r3, [r7, #43]	; 0x2b
    goto error;
 8004714:	e15b      	b.n	80049ce <HAL_SPI_TransmitReceive+0x328>
  }

  if ((pTxData == NULL) || (pRxData == NULL) || (Size == 0U))
 8004716:	68bb      	ldr	r3, [r7, #8]
 8004718:	2b00      	cmp	r3, #0
 800471a:	d005      	beq.n	8004728 <HAL_SPI_TransmitReceive+0x82>
 800471c:	687b      	ldr	r3, [r7, #4]
 800471e:	2b00      	cmp	r3, #0
 8004720:	d002      	beq.n	8004728 <HAL_SPI_TransmitReceive+0x82>
 8004722:	887b      	ldrh	r3, [r7, #2]
 8004724:	2b00      	cmp	r3, #0
 8004726:	d103      	bne.n	8004730 <HAL_SPI_TransmitReceive+0x8a>
  {
    errorcode = HAL_ERROR;
 8004728:	2301      	movs	r3, #1
 800472a:	f887 302b 	strb.w	r3, [r7, #43]	; 0x2b
    goto error;
 800472e:	e14e      	b.n	80049ce <HAL_SPI_TransmitReceive+0x328>
  }

  /* Don't overwrite in case of HAL_SPI_STATE_BUSY_RX */
  if (hspi->State != HAL_SPI_STATE_BUSY_RX)
 8004730:	68fb      	ldr	r3, [r7, #12]
 8004732:	f893 3051 	ldrb.w	r3, [r3, #81]	; 0x51
 8004736:	b2db      	uxtb	r3, r3
 8004738:	2b04      	cmp	r3, #4
 800473a:	d003      	beq.n	8004744 <HAL_SPI_TransmitReceive+0x9e>
  {
    hspi->State = HAL_SPI_STATE_BUSY_TX_RX;
 800473c:	68fb      	ldr	r3, [r7, #12]
 800473e:	2205      	movs	r2, #5
 8004740:	f883 2051 	strb.w	r2, [r3, #81]	; 0x51
  }

  /* Set the transaction information */
  hspi->ErrorCode   = HAL_SPI_ERROR_NONE;
 8004744:	68fb      	ldr	r3, [r7, #12]
 8004746:	2200      	movs	r2, #0
 8004748:	655a      	str	r2, [r3, #84]	; 0x54
  hspi->pRxBuffPtr  = (uint8_t *)pRxData;
 800474a:	68fb      	ldr	r3, [r7, #12]
 800474c:	687a      	ldr	r2, [r7, #4]
 800474e:	639a      	str	r2, [r3, #56]	; 0x38
  hspi->RxXferCount = Size;
 8004750:	68fb      	ldr	r3, [r7, #12]
 8004752:	887a      	ldrh	r2, [r7, #2]
 8004754:	87da      	strh	r2, [r3, #62]	; 0x3e
  hspi->RxXferSize  = Size;
 8004756:	68fb      	ldr	r3, [r7, #12]
 8004758:	887a      	ldrh	r2, [r7, #2]
 800475a:	879a      	strh	r2, [r3, #60]	; 0x3c
  hspi->pTxBuffPtr  = (uint8_t *)pTxData;
 800475c:	68fb      	ldr	r3, [r7, #12]
 800475e:	68ba      	ldr	r2, [r7, #8]
 8004760:	631a      	str	r2, [r3, #48]	; 0x30
  hspi->TxXferCount = Size;
 8004762:	68fb      	ldr	r3, [r7, #12]
 8004764:	887a      	ldrh	r2, [r7, #2]
 8004766:	86da      	strh	r2, [r3, #54]	; 0x36
  hspi->TxXferSize  = Size;
 8004768:	68fb      	ldr	r3, [r7, #12]
 800476a:	887a      	ldrh	r2, [r7, #2]
 800476c:	869a      	strh	r2, [r3, #52]	; 0x34

  /*Init field not used in handle to zero */
  hspi->RxISR       = NULL;
 800476e:	68fb      	ldr	r3, [r7, #12]
 8004770:	2200      	movs	r2, #0
 8004772:	641a      	str	r2, [r3, #64]	; 0x40
  hspi->TxISR       = NULL;
 8004774:	68fb      	ldr	r3, [r7, #12]
 8004776:	2200      	movs	r2, #0
 8004778:	645a      	str	r2, [r3, #68]	; 0x44
    SPI_RESET_CRC(hspi);
  }
#endif /* USE_SPI_CRC */

  /* Check if the SPI is already enabled */
  if ((hspi->Instance->CR1 & SPI_CR1_SPE) != SPI_CR1_SPE)
 800477a:	68fb      	ldr	r3, [r7, #12]
 800477c:	681b      	ldr	r3, [r3, #0]
 800477e:	681b      	ldr	r3, [r3, #0]
 8004780:	f003 0340 	and.w	r3, r3, #64	; 0x40
 8004784:	2b40      	cmp	r3, #64	; 0x40
 8004786:	d007      	beq.n	8004798 <HAL_SPI_TransmitReceive+0xf2>
  {
    /* Enable SPI peripheral */
    __HAL_SPI_ENABLE(hspi);
 8004788:	68fb      	ldr	r3, [r7, #12]
 800478a:	681b      	ldr	r3, [r3, #0]
 800478c:	681a      	ldr	r2, [r3, #0]
 800478e:	68fb      	ldr	r3, [r7, #12]
 8004790:	681b      	ldr	r3, [r3, #0]
 8004792:	f042 0240 	orr.w	r2, r2, #64	; 0x40
 8004796:	601a      	str	r2, [r3, #0]
  }

  /* Transmit and Receive data in 16 Bit mode */
  if (hspi->Init.DataSize == SPI_DATASIZE_16BIT)
 8004798:	68fb      	ldr	r3, [r7, #12]
 800479a:	68db      	ldr	r3, [r3, #12]
 800479c:	f5b3 6f00 	cmp.w	r3, #2048	; 0x800
 80047a0:	d178      	bne.n	8004894 <HAL_SPI_TransmitReceive+0x1ee>
  {
    if ((hspi->Init.Mode == SPI_MODE_SLAVE) || (initial_TxXferCount == 0x01U))
 80047a2:	68fb      	ldr	r3, [r7, #12]
 80047a4:	685b      	ldr	r3, [r3, #4]
 80047a6:	2b00      	cmp	r3, #0
 80047a8:	d002      	beq.n	80047b0 <HAL_SPI_TransmitReceive+0x10a>
 80047aa:	8b7b      	ldrh	r3, [r7, #26]
 80047ac:	2b01      	cmp	r3, #1
 80047ae:	d166      	bne.n	800487e <HAL_SPI_TransmitReceive+0x1d8>
    {
      hspi->Instance->DR = *((uint16_t *)hspi->pTxBuffPtr);
 80047b0:	68fb      	ldr	r3, [r7, #12]
 80047b2:	6b1b      	ldr	r3, [r3, #48]	; 0x30
 80047b4:	881a      	ldrh	r2, [r3, #0]
 80047b6:	68fb      	ldr	r3, [r7, #12]
 80047b8:	681b      	ldr	r3, [r3, #0]
 80047ba:	60da      	str	r2, [r3, #12]
      hspi->pTxBuffPtr += sizeof(uint16_t);
 80047bc:	68fb      	ldr	r3, [r7, #12]
 80047be:	6b1b      	ldr	r3, [r3, #48]	; 0x30
 80047c0:	1c9a      	adds	r2, r3, #2
 80047c2:	68fb      	ldr	r3, [r7, #12]
 80047c4:	631a      	str	r2, [r3, #48]	; 0x30
      hspi->TxXferCount--;
 80047c6:	68fb      	ldr	r3, [r7, #12]
 80047c8:	8edb      	ldrh	r3, [r3, #54]	; 0x36
 80047ca:	b29b      	uxth	r3, r3
 80047cc:	3b01      	subs	r3, #1
 80047ce:	b29a      	uxth	r2, r3
 80047d0:	68fb      	ldr	r3, [r7, #12]
 80047d2:	86da      	strh	r2, [r3, #54]	; 0x36
    }
    while ((hspi->TxXferCount > 0U) || (hspi->RxXferCount > 0U))
 80047d4:	e053      	b.n	800487e <HAL_SPI_TransmitReceive+0x1d8>
    {
      /* Check TXE flag */
      if ((__HAL_SPI_GET_FLAG(hspi, SPI_FLAG_TXE)) && (hspi->TxXferCount > 0U) && (txallowed == 1U))
 80047d6:	68fb      	ldr	r3, [r7, #12]
 80047d8:	681b      	ldr	r3, [r3, #0]
 80047da:	689b      	ldr	r3, [r3, #8]
 80047dc:	f003 0302 	and.w	r3, r3, #2
 80047e0:	2b02      	cmp	r3, #2
 80047e2:	d11b      	bne.n	800481c <HAL_SPI_TransmitReceive+0x176>
 80047e4:	68fb      	ldr	r3, [r7, #12]
 80047e6:	8edb      	ldrh	r3, [r3, #54]	; 0x36
 80047e8:	b29b      	uxth	r3, r3
 80047ea:	2b00      	cmp	r3, #0
 80047ec:	d016      	beq.n	800481c <HAL_SPI_TransmitReceive+0x176>
 80047ee:	6afb      	ldr	r3, [r7, #44]	; 0x2c
 80047f0:	2b01      	cmp	r3, #1
 80047f2:	d113      	bne.n	800481c <HAL_SPI_TransmitReceive+0x176>
      {
        hspi->Instance->DR = *((uint16_t *)hspi->pTxBuffPtr);
 80047f4:	68fb      	ldr	r3, [r7, #12]
 80047f6:	6b1b      	ldr	r3, [r3, #48]	; 0x30
 80047f8:	881a      	ldrh	r2, [r3, #0]
 80047fa:	68fb      	ldr	r3, [r7, #12]
 80047fc:	681b      	ldr	r3, [r3, #0]
 80047fe:	60da      	str	r2, [r3, #12]
        hspi->pTxBuffPtr += sizeof(uint16_t);
 8004800:	68fb      	ldr	r3, [r7, #12]
 8004802:	6b1b      	ldr	r3, [r3, #48]	; 0x30
 8004804:	1c9a      	adds	r2, r3, #2
 8004806:	68fb      	ldr	r3, [r7, #12]
 8004808:	631a      	str	r2, [r3, #48]	; 0x30
        hspi->TxXferCount--;
 800480a:	68fb      	ldr	r3, [r7, #12]
 800480c:	8edb      	ldrh	r3, [r3, #54]	; 0x36
 800480e:	b29b      	uxth	r3, r3
 8004810:	3b01      	subs	r3, #1
 8004812:	b29a      	uxth	r2, r3
 8004814:	68fb      	ldr	r3, [r7, #12]
 8004816:	86da      	strh	r2, [r3, #54]	; 0x36
        /* Next Data is a reception (Rx). Tx not allowed */
        txallowed = 0U;
 8004818:	2300      	movs	r3, #0
 800481a:	62fb      	str	r3, [r7, #44]	; 0x2c
        }
#endif /* USE_SPI_CRC */
      }

      /* Check RXNE flag */
      if ((__HAL_SPI_GET_FLAG(hspi, SPI_FLAG_RXNE)) && (hspi->RxXferCount > 0U))
 800481c:	68fb      	ldr	r3, [r7, #12]
 800481e:	681b      	ldr	r3, [r3, #0]
 8004820:	689b      	ldr	r3, [r3, #8]
 8004822:	f003 0301 	and.w	r3, r3, #1
 8004826:	2b01      	cmp	r3, #1
 8004828:	d119      	bne.n	800485e <HAL_SPI_TransmitReceive+0x1b8>
 800482a:	68fb      	ldr	r3, [r7, #12]
 800482c:	8fdb      	ldrh	r3, [r3, #62]	; 0x3e
 800482e:	b29b      	uxth	r3, r3
 8004830:	2b00      	cmp	r3, #0
 8004832:	d014      	beq.n	800485e <HAL_SPI_TransmitReceive+0x1b8>
      {
        *((uint16_t *)hspi->pRxBuffPtr) = (uint16_t)hspi->Instance->DR;
 8004834:	68fb      	ldr	r3, [r7, #12]
 8004836:	681b      	ldr	r3, [r3, #0]
 8004838:	68da      	ldr	r2, [r3, #12]
 800483a:	68fb      	ldr	r3, [r7, #12]
 800483c:	6b9b      	ldr	r3, [r3, #56]	; 0x38
 800483e:	b292      	uxth	r2, r2
 8004840:	801a      	strh	r2, [r3, #0]
        hspi->pRxBuffPtr += sizeof(uint16_t);
 8004842:	68fb      	ldr	r3, [r7, #12]
 8004844:	6b9b      	ldr	r3, [r3, #56]	; 0x38
 8004846:	1c9a      	adds	r2, r3, #2
 8004848:	68fb      	ldr	r3, [r7, #12]
 800484a:	639a      	str	r2, [r3, #56]	; 0x38
        hspi->RxXferCount--;
 800484c:	68fb      	ldr	r3, [r7, #12]
 800484e:	8fdb      	ldrh	r3, [r3, #62]	; 0x3e
 8004850:	b29b      	uxth	r3, r3
 8004852:	3b01      	subs	r3, #1
 8004854:	b29a      	uxth	r2, r3
 8004856:	68fb      	ldr	r3, [r7, #12]
 8004858:	87da      	strh	r2, [r3, #62]	; 0x3e
        /* Next Data is a Transmission (Tx). Tx is allowed */
        txallowed = 1U;
 800485a:	2301      	movs	r3, #1
 800485c:	62fb      	str	r3, [r7, #44]	; 0x2c
      }
      if (((HAL_GetTick() - tickstart) >=  Timeout) && (Timeout != HAL_MAX_DELAY))
 800485e:	f7fe f9bf 	bl	8002be0 <HAL_GetTick>
 8004862:	4602      	mov	r2, r0
 8004864:	6a7b      	ldr	r3, [r7, #36]	; 0x24
 8004866:	1ad3      	subs	r3, r2, r3
 8004868:	6bba      	ldr	r2, [r7, #56]	; 0x38
 800486a:	429a      	cmp	r2, r3
 800486c:	d807      	bhi.n	800487e <HAL_SPI_TransmitReceive+0x1d8>
 800486e:	6bbb      	ldr	r3, [r7, #56]	; 0x38
 8004870:	f1b3 3fff 	cmp.w	r3, #4294967295	; 0xffffffff
 8004874:	d003      	beq.n	800487e <HAL_SPI_TransmitReceive+0x1d8>
      {
        errorcode = HAL_TIMEOUT;
 8004876:	2303      	movs	r3, #3
 8004878:	f887 302b 	strb.w	r3, [r7, #43]	; 0x2b
        goto error;
 800487c:	e0a7      	b.n	80049ce <HAL_SPI_TransmitReceive+0x328>
    while ((hspi->TxXferCount > 0U) || (hspi->RxXferCount > 0U))
 800487e:	68fb      	ldr	r3, [r7, #12]
 8004880:	8edb      	ldrh	r3, [r3, #54]	; 0x36
 8004882:	b29b      	uxth	r3, r3
 8004884:	2b00      	cmp	r3, #0
 8004886:	d1a6      	bne.n	80047d6 <HAL_SPI_TransmitReceive+0x130>
 8004888:	68fb      	ldr	r3, [r7, #12]
 800488a:	8fdb      	ldrh	r3, [r3, #62]	; 0x3e
 800488c:	b29b      	uxth	r3, r3
 800488e:	2b00      	cmp	r3, #0
 8004890:	d1a1      	bne.n	80047d6 <HAL_SPI_TransmitReceive+0x130>
 8004892:	e07c      	b.n	800498e <HAL_SPI_TransmitReceive+0x2e8>
    }
  }
  /* Transmit and Receive data in 8 Bit mode */
  else
  {
    if ((hspi->Init.Mode == SPI_MODE_SLAVE) || (initial_TxXferCount == 0x01U))
 8004894:	68fb      	ldr	r3, [r7, #12]
 8004896:	685b      	ldr	r3, [r3, #4]
 8004898:	2b00      	cmp	r3, #0
 800489a:	d002      	beq.n	80048a2 <HAL_SPI_TransmitReceive+0x1fc>
 800489c:	8b7b      	ldrh	r3, [r7, #26]
 800489e:	2b01      	cmp	r3, #1
 80048a0:	d16b      	bne.n	800497a <HAL_SPI_TransmitReceive+0x2d4>
    {
      *((__IO uint8_t *)&hspi->Instance->DR) = (*hspi->pTxBuffPtr);
 80048a2:	68fb      	ldr	r3, [r7, #12]
 80048a4:	6b1a      	ldr	r2, [r3, #48]	; 0x30
 80048a6:	68fb      	ldr	r3, [r7, #12]
 80048a8:	681b      	ldr	r3, [r3, #0]
 80048aa:	330c      	adds	r3, #12
 80048ac:	7812      	ldrb	r2, [r2, #0]
 80048ae:	701a      	strb	r2, [r3, #0]
      hspi->pTxBuffPtr += sizeof(uint8_t);
 80048b0:	68fb      	ldr	r3, [r7, #12]
 80048b2:	6b1b      	ldr	r3, [r3, #48]	; 0x30
 80048b4:	1c5a      	adds	r2, r3, #1
 80048b6:	68fb      	ldr	r3, [r7, #12]
 80048b8:	631a      	str	r2, [r3, #48]	; 0x30
      hspi->TxXferCount--;
 80048ba:	68fb      	ldr	r3, [r7, #12]
 80048bc:	8edb      	ldrh	r3, [r3, #54]	; 0x36
 80048be:	b29b      	uxth	r3, r3
 80048c0:	3b01      	subs	r3, #1
 80048c2:	b29a      	uxth	r2, r3
 80048c4:	68fb      	ldr	r3, [r7, #12]
 80048c6:	86da      	strh	r2, [r3, #54]	; 0x36
    }
    while ((hspi->TxXferCount > 0U) || (hspi->RxXferCount > 0U))
 80048c8:	e057      	b.n	800497a <HAL_SPI_TransmitReceive+0x2d4>
    {
      /* Check TXE flag */
      if ((__HAL_SPI_GET_FLAG(hspi, SPI_FLAG_TXE)) && (hspi->TxXferCount > 0U) && (txallowed == 1U))
 80048ca:	68fb      	ldr	r3, [r7, #12]
 80048cc:	681b      	ldr	r3, [r3, #0]
 80048ce:	689b      	ldr	r3, [r3, #8]
 80048d0:	f003 0302 	and.w	r3, r3, #2
 80048d4:	2b02      	cmp	r3, #2
 80048d6:	d11c      	bne.n	8004912 <HAL_SPI_TransmitReceive+0x26c>
 80048d8:	68fb      	ldr	r3, [r7, #12]
 80048da:	8edb      	ldrh	r3, [r3, #54]	; 0x36
 80048dc:	b29b      	uxth	r3, r3
 80048de:	2b00      	cmp	r3, #0
 80048e0:	d017      	beq.n	8004912 <HAL_SPI_TransmitReceive+0x26c>
 80048e2:	6afb      	ldr	r3, [r7, #44]	; 0x2c
 80048e4:	2b01      	cmp	r3, #1
 80048e6:	d114      	bne.n	8004912 <HAL_SPI_TransmitReceive+0x26c>
      {
        *(__IO uint8_t *)&hspi->Instance->DR = (*hspi->pTxBuffPtr);
 80048e8:	68fb      	ldr	r3, [r7, #12]
 80048ea:	6b1a      	ldr	r2, [r3, #48]	; 0x30
 80048ec:	68fb      	ldr	r3, [r7, #12]
 80048ee:	681b      	ldr	r3, [r3, #0]
 80048f0:	330c      	adds	r3, #12
 80048f2:	7812      	ldrb	r2, [r2, #0]
 80048f4:	701a      	strb	r2, [r3, #0]
        hspi->pTxBuffPtr++;
 80048f6:	68fb      	ldr	r3, [r7, #12]
 80048f8:	6b1b      	ldr	r3, [r3, #48]	; 0x30
 80048fa:	1c5a      	adds	r2, r3, #1
 80048fc:	68fb      	ldr	r3, [r7, #12]
 80048fe:	631a      	str	r2, [r3, #48]	; 0x30
        hspi->TxXferCount--;
 8004900:	68fb      	ldr	r3, [r7, #12]
 8004902:	8edb      	ldrh	r3, [r3, #54]	; 0x36
 8004904:	b29b      	uxth	r3, r3
 8004906:	3b01      	subs	r3, #1
 8004908:	b29a      	uxth	r2, r3
 800490a:	68fb      	ldr	r3, [r7, #12]
 800490c:	86da      	strh	r2, [r3, #54]	; 0x36
        /* Next Data is a reception (Rx). Tx not allowed */
        txallowed = 0U;
 800490e:	2300      	movs	r3, #0
 8004910:	62fb      	str	r3, [r7, #44]	; 0x2c
        }
#endif /* USE_SPI_CRC */
      }

      /* Wait until RXNE flag is reset */
      if ((__HAL_SPI_GET_FLAG(hspi, SPI_FLAG_RXNE)) && (hspi->RxXferCount > 0U))
 8004912:	68fb      	ldr	r3, [r7, #12]
 8004914:	681b      	ldr	r3, [r3, #0]
 8004916:	689b      	ldr	r3, [r3, #8]
 8004918:	f003 0301 	and.w	r3, r3, #1
 800491c:	2b01      	cmp	r3, #1
 800491e:	d119      	bne.n	8004954 <HAL_SPI_TransmitReceive+0x2ae>
 8004920:	68fb      	ldr	r3, [r7, #12]
 8004922:	8fdb      	ldrh	r3, [r3, #62]	; 0x3e
 8004924:	b29b      	uxth	r3, r3
 8004926:	2b00      	cmp	r3, #0
 8004928:	d014      	beq.n	8004954 <HAL_SPI_TransmitReceive+0x2ae>
      {
        (*(uint8_t *)hspi->pRxBuffPtr) = hspi->Instance->DR;
 800492a:	68fb      	ldr	r3, [r7, #12]
 800492c:	681b      	ldr	r3, [r3, #0]
 800492e:	68da      	ldr	r2, [r3, #12]
 8004930:	68fb      	ldr	r3, [r7, #12]
 8004932:	6b9b      	ldr	r3, [r3, #56]	; 0x38
 8004934:	b2d2      	uxtb	r2, r2
 8004936:	701a      	strb	r2, [r3, #0]
        hspi->pRxBuffPtr++;
 8004938:	68fb      	ldr	r3, [r7, #12]
 800493a:	6b9b      	ldr	r3, [r3, #56]	; 0x38
 800493c:	1c5a      	adds	r2, r3, #1
 800493e:	68fb      	ldr	r3, [r7, #12]
 8004940:	639a      	str	r2, [r3, #56]	; 0x38
        hspi->RxXferCount--;
 8004942:	68fb      	ldr	r3, [r7, #12]
 8004944:	8fdb      	ldrh	r3, [r3, #62]	; 0x3e
 8004946:	b29b      	uxth	r3, r3
 8004948:	3b01      	subs	r3, #1
 800494a:	b29a      	uxth	r2, r3
 800494c:	68fb      	ldr	r3, [r7, #12]
 800494e:	87da      	strh	r2, [r3, #62]	; 0x3e
        /* Next Data is a Transmission (Tx). Tx is allowed */
        txallowed = 1U;
 8004950:	2301      	movs	r3, #1
 8004952:	62fb      	str	r3, [r7, #44]	; 0x2c
      }
      if ((((HAL_GetTick() - tickstart) >=  Timeout) && ((Timeout != HAL_MAX_DELAY))) || (Timeout == 0U))
 8004954:	f7fe f944 	bl	8002be0 <HAL_GetTick>
 8004958:	4602      	mov	r2, r0
 800495a:	6a7b      	ldr	r3, [r7, #36]	; 0x24
 800495c:	1ad3      	subs	r3, r2, r3
 800495e:	6bba      	ldr	r2, [r7, #56]	; 0x38
 8004960:	429a      	cmp	r2, r3
 8004962:	d803      	bhi.n	800496c <HAL_SPI_TransmitReceive+0x2c6>
 8004964:	6bbb      	ldr	r3, [r7, #56]	; 0x38
 8004966:	f1b3 3fff 	cmp.w	r3, #4294967295	; 0xffffffff
 800496a:	d102      	bne.n	8004972 <HAL_SPI_TransmitReceive+0x2cc>
 800496c:	6bbb      	ldr	r3, [r7, #56]	; 0x38
 800496e:	2b00      	cmp	r3, #0
 8004970:	d103      	bne.n	800497a <HAL_SPI_TransmitReceive+0x2d4>
      {
        errorcode = HAL_TIMEOUT;
 8004972:	2303      	movs	r3, #3
 8004974:	f887 302b 	strb.w	r3, [r7, #43]	; 0x2b
        goto error;
 8004978:	e029      	b.n	80049ce <HAL_SPI_TransmitReceive+0x328>
    while ((hspi->TxXferCount > 0U) || (hspi->RxXferCount > 0U))
 800497a:	68fb      	ldr	r3, [r7, #12]
 800497c:	8edb      	ldrh	r3, [r3, #54]	; 0x36
 800497e:	b29b      	uxth	r3, r3
 8004980:	2b00      	cmp	r3, #0
 8004982:	d1a2      	bne.n	80048ca <HAL_SPI_TransmitReceive+0x224>
 8004984:	68fb      	ldr	r3, [r7, #12]
 8004986:	8fdb      	ldrh	r3, [r3, #62]	; 0x3e
 8004988:	b29b      	uxth	r3, r3
 800498a:	2b00      	cmp	r3, #0
 800498c:	d19d      	bne.n	80048ca <HAL_SPI_TransmitReceive+0x224>
    errorcode = HAL_ERROR;
  }
#endif /* USE_SPI_CRC */

  /* Check the end of the transaction */
  if (SPI_EndRxTxTransaction(hspi, Timeout, tickstart) != HAL_OK)
 800498e:	6a7a      	ldr	r2, [r7, #36]	; 0x24
 8004990:	6bb9      	ldr	r1, [r7, #56]	; 0x38
 8004992:	68f8      	ldr	r0, [r7, #12]
 8004994:	f000 f8b2 	bl	8004afc <SPI_EndRxTxTransaction>
 8004998:	4603      	mov	r3, r0
 800499a:	2b00      	cmp	r3, #0
 800499c:	d006      	beq.n	80049ac <HAL_SPI_TransmitReceive+0x306>
  {
    errorcode = HAL_ERROR;
 800499e:	2301      	movs	r3, #1
 80049a0:	f887 302b 	strb.w	r3, [r7, #43]	; 0x2b
    hspi->ErrorCode = HAL_SPI_ERROR_FLAG;
 80049a4:	68fb      	ldr	r3, [r7, #12]
 80049a6:	2220      	movs	r2, #32
 80049a8:	655a      	str	r2, [r3, #84]	; 0x54
    goto error;
 80049aa:	e010      	b.n	80049ce <HAL_SPI_TransmitReceive+0x328>
  }

  /* Clear overrun flag in 2 Lines communication mode because received is not read */
  if (hspi->Init.Direction == SPI_DIRECTION_2LINES)
 80049ac:	68fb      	ldr	r3, [r7, #12]
 80049ae:	689b      	ldr	r3, [r3, #8]
 80049b0:	2b00      	cmp	r3, #0
 80049b2:	d10b      	bne.n	80049cc <HAL_SPI_TransmitReceive+0x326>
  {
    __HAL_SPI_CLEAR_OVRFLAG(hspi);
 80049b4:	2300      	movs	r3, #0
 80049b6:	617b      	str	r3, [r7, #20]
 80049b8:	68fb      	ldr	r3, [r7, #12]
 80049ba:	681b      	ldr	r3, [r3, #0]
 80049bc:	68db      	ldr	r3, [r3, #12]
 80049be:	617b      	str	r3, [r7, #20]
 80049c0:	68fb      	ldr	r3, [r7, #12]
 80049c2:	681b      	ldr	r3, [r3, #0]
 80049c4:	689b      	ldr	r3, [r3, #8]
 80049c6:	617b      	str	r3, [r7, #20]
 80049c8:	697b      	ldr	r3, [r7, #20]
 80049ca:	e000      	b.n	80049ce <HAL_SPI_TransmitReceive+0x328>
  }

error :
 80049cc:	bf00      	nop
  hspi->State = HAL_SPI_STATE_READY;
 80049ce:	68fb      	ldr	r3, [r7, #12]
 80049d0:	2201      	movs	r2, #1
 80049d2:	f883 2051 	strb.w	r2, [r3, #81]	; 0x51
  __HAL_UNLOCK(hspi);
 80049d6:	68fb      	ldr	r3, [r7, #12]
 80049d8:	2200      	movs	r2, #0
 80049da:	f883 2050 	strb.w	r2, [r3, #80]	; 0x50
  return errorcode;
 80049de:	f897 302b 	ldrb.w	r3, [r7, #43]	; 0x2b
}
 80049e2:	4618      	mov	r0, r3
 80049e4:	3730      	adds	r7, #48	; 0x30
 80049e6:	46bd      	mov	sp, r7
 80049e8:	bd80      	pop	{r7, pc}
	...

080049ec <SPI_WaitFlagStateUntilTimeout>:
  * @param  Tickstart tick start value
  * @retval HAL status
  */
static HAL_StatusTypeDef SPI_WaitFlagStateUntilTimeout(SPI_HandleTypeDef *hspi, uint32_t Flag, FlagStatus State,
                                                       uint32_t Timeout, uint32_t Tickstart)
{
 80049ec:	b580      	push	{r7, lr}
 80049ee:	b088      	sub	sp, #32
 80049f0:	af00      	add	r7, sp, #0
 80049f2:	60f8      	str	r0, [r7, #12]
 80049f4:	60b9      	str	r1, [r7, #8]
 80049f6:	603b      	str	r3, [r7, #0]
 80049f8:	4613      	mov	r3, r2
 80049fa:	71fb      	strb	r3, [r7, #7]
  __IO uint32_t count;
  uint32_t tmp_timeout;
  uint32_t tmp_tickstart;

  /* Adjust Timeout value  in case of end of transfer */
  tmp_timeout   = Timeout - (HAL_GetTick() - Tickstart);
 80049fc:	f7fe f8f0 	bl	8002be0 <HAL_GetTick>
 8004a00:	4602      	mov	r2, r0
 8004a02:	6abb      	ldr	r3, [r7, #40]	; 0x28
 8004a04:	1a9b      	subs	r3, r3, r2
 8004a06:	683a      	ldr	r2, [r7, #0]
 8004a08:	4413      	add	r3, r2
 8004a0a:	61fb      	str	r3, [r7, #28]
  tmp_tickstart = HAL_GetTick();
 8004a0c:	f7fe f8e8 	bl	8002be0 <HAL_GetTick>
 8004a10:	61b8      	str	r0, [r7, #24]

  /* Calculate Timeout based on a software loop to avoid blocking issue if Systick is disabled */
  count = tmp_timeout * ((SystemCoreClock * 32U) >> 20U);
 8004a12:	4b39      	ldr	r3, [pc, #228]	; (8004af8 <SPI_WaitFlagStateUntilTimeout+0x10c>)
 8004a14:	681b      	ldr	r3, [r3, #0]
 8004a16:	015b      	lsls	r3, r3, #5
 8004a18:	0d1b      	lsrs	r3, r3, #20
 8004a1a:	69fa      	ldr	r2, [r7, #28]
 8004a1c:	fb02 f303 	mul.w	r3, r2, r3
 8004a20:	617b      	str	r3, [r7, #20]

  while ((__HAL_SPI_GET_FLAG(hspi, Flag) ? SET : RESET) != State)
 8004a22:	e054      	b.n	8004ace <SPI_WaitFlagStateUntilTimeout+0xe2>
  {
    if (Timeout != HAL_MAX_DELAY)
 8004a24:	683b      	ldr	r3, [r7, #0]
 8004a26:	f1b3 3fff 	cmp.w	r3, #4294967295	; 0xffffffff
 8004a2a:	d050      	beq.n	8004ace <SPI_WaitFlagStateUntilTimeout+0xe2>
    {
      if (((HAL_GetTick() - tmp_tickstart) >= tmp_timeout) || (tmp_timeout == 0U))
 8004a2c:	f7fe f8d8 	bl	8002be0 <HAL_GetTick>
 8004a30:	4602      	mov	r2, r0
 8004a32:	69bb      	ldr	r3, [r7, #24]
 8004a34:	1ad3      	subs	r3, r2, r3
 8004a36:	69fa      	ldr	r2, [r7, #28]
 8004a38:	429a      	cmp	r2, r3
 8004a3a:	d902      	bls.n	8004a42 <SPI_WaitFlagStateUntilTimeout+0x56>
 8004a3c:	69fb      	ldr	r3, [r7, #28]
 8004a3e:	2b00      	cmp	r3, #0
 8004a40:	d13d      	bne.n	8004abe <SPI_WaitFlagStateUntilTimeout+0xd2>
        /* Disable the SPI and reset the CRC: the CRC value should be cleared
           on both master and slave sides in order to resynchronize the master
           and slave for their respective CRC calculation */

        /* Disable TXE, RXNE and ERR interrupts for the interrupt process */
        __HAL_SPI_DISABLE_IT(hspi, (SPI_IT_TXE | SPI_IT_RXNE | SPI_IT_ERR));
 8004a42:	68fb      	ldr	r3, [r7, #12]
 8004a44:	681b      	ldr	r3, [r3, #0]
 8004a46:	685a      	ldr	r2, [r3, #4]
 8004a48:	68fb      	ldr	r3, [r7, #12]
 8004a4a:	681b      	ldr	r3, [r3, #0]
 8004a4c:	f022 02e0 	bic.w	r2, r2, #224	; 0xe0
 8004a50:	605a      	str	r2, [r3, #4]

        if ((hspi->Init.Mode == SPI_MODE_MASTER) && ((hspi->Init.Direction == SPI_DIRECTION_1LINE)
 8004a52:	68fb      	ldr	r3, [r7, #12]
 8004a54:	685b      	ldr	r3, [r3, #4]
 8004a56:	f5b3 7f82 	cmp.w	r3, #260	; 0x104
 8004a5a:	d111      	bne.n	8004a80 <SPI_WaitFlagStateUntilTimeout+0x94>
 8004a5c:	68fb      	ldr	r3, [r7, #12]
 8004a5e:	689b      	ldr	r3, [r3, #8]
 8004a60:	f5b3 4f00 	cmp.w	r3, #32768	; 0x8000
 8004a64:	d004      	beq.n	8004a70 <SPI_WaitFlagStateUntilTimeout+0x84>
                                                     || (hspi->Init.Direction == SPI_DIRECTION_2LINES_RXONLY)))
 8004a66:	68fb      	ldr	r3, [r7, #12]
 8004a68:	689b      	ldr	r3, [r3, #8]
 8004a6a:	f5b3 6f80 	cmp.w	r3, #1024	; 0x400
 8004a6e:	d107      	bne.n	8004a80 <SPI_WaitFlagStateUntilTimeout+0x94>
        {
          /* Disable SPI peripheral */
          __HAL_SPI_DISABLE(hspi);
 8004a70:	68fb      	ldr	r3, [r7, #12]
 8004a72:	681b      	ldr	r3, [r3, #0]
 8004a74:	681a      	ldr	r2, [r3, #0]
 8004a76:	68fb      	ldr	r3, [r7, #12]
 8004a78:	681b      	ldr	r3, [r3, #0]
 8004a7a:	f022 0240 	bic.w	r2, r2, #64	; 0x40
 8004a7e:	601a      	str	r2, [r3, #0]
        }

        /* Reset CRC Calculation */
        if (hspi->Init.CRCCalculation == SPI_CRCCALCULATION_ENABLE)
 8004a80:	68fb      	ldr	r3, [r7, #12]
 8004a82:	6a9b      	ldr	r3, [r3, #40]	; 0x28
 8004a84:	f5b3 5f00 	cmp.w	r3, #8192	; 0x2000
 8004a88:	d10f      	bne.n	8004aaa <SPI_WaitFlagStateUntilTimeout+0xbe>
        {
          SPI_RESET_CRC(hspi);
 8004a8a:	68fb      	ldr	r3, [r7, #12]
 8004a8c:	681b      	ldr	r3, [r3, #0]
 8004a8e:	681a      	ldr	r2, [r3, #0]
 8004a90:	68fb      	ldr	r3, [r7, #12]
 8004a92:	681b      	ldr	r3, [r3, #0]
 8004a94:	f422 5200 	bic.w	r2, r2, #8192	; 0x2000
 8004a98:	601a      	str	r2, [r3, #0]
 8004a9a:	68fb      	ldr	r3, [r7, #12]
 8004a9c:	681b      	ldr	r3, [r3, #0]
 8004a9e:	681a      	ldr	r2, [r3, #0]
 8004aa0:	68fb      	ldr	r3, [r7, #12]
 8004aa2:	681b      	ldr	r3, [r3, #0]
 8004aa4:	f442 5200 	orr.w	r2, r2, #8192	; 0x2000
 8004aa8:	601a      	str	r2, [r3, #0]
        }

        hspi->State = HAL_SPI_STATE_READY;
 8004aaa:	68fb      	ldr	r3, [r7, #12]
 8004aac:	2201      	movs	r2, #1
 8004aae:	f883 2051 	strb.w	r2, [r3, #81]	; 0x51

        /* Process Unlocked */
        __HAL_UNLOCK(hspi);
 8004ab2:	68fb      	ldr	r3, [r7, #12]
 8004ab4:	2200      	movs	r2, #0
 8004ab6:	f883 2050 	strb.w	r2, [r3, #80]	; 0x50

        return HAL_TIMEOUT;
 8004aba:	2303      	movs	r3, #3
 8004abc:	e017      	b.n	8004aee <SPI_WaitFlagStateUntilTimeout+0x102>
      }
      /* If Systick is disabled or not incremented, deactivate timeout to go in disable loop procedure */
      if (count == 0U)
 8004abe:	697b      	ldr	r3, [r7, #20]
 8004ac0:	2b00      	cmp	r3, #0
 8004ac2:	d101      	bne.n	8004ac8 <SPI_WaitFlagStateUntilTimeout+0xdc>
      {
        tmp_timeout = 0U;
 8004ac4:	2300      	movs	r3, #0
 8004ac6:	61fb      	str	r3, [r7, #28]
      }
      count--;
 8004ac8:	697b      	ldr	r3, [r7, #20]
 8004aca:	3b01      	subs	r3, #1
 8004acc:	617b      	str	r3, [r7, #20]
  while ((__HAL_SPI_GET_FLAG(hspi, Flag) ? SET : RESET) != State)
 8004ace:	68fb      	ldr	r3, [r7, #12]
 8004ad0:	681b      	ldr	r3, [r3, #0]
 8004ad2:	689a      	ldr	r2, [r3, #8]
 8004ad4:	68bb      	ldr	r3, [r7, #8]
 8004ad6:	4013      	ands	r3, r2
 8004ad8:	68ba      	ldr	r2, [r7, #8]
 8004ada:	429a      	cmp	r2, r3
 8004adc:	bf0c      	ite	eq
 8004ade:	2301      	moveq	r3, #1
 8004ae0:	2300      	movne	r3, #0
 8004ae2:	b2db      	uxtb	r3, r3
 8004ae4:	461a      	mov	r2, r3
 8004ae6:	79fb      	ldrb	r3, [r7, #7]
 8004ae8:	429a      	cmp	r2, r3
 8004aea:	d19b      	bne.n	8004a24 <SPI_WaitFlagStateUntilTimeout+0x38>
    }
  }

  return HAL_OK;
 8004aec:	2300      	movs	r3, #0
}
 8004aee:	4618      	mov	r0, r3
 8004af0:	3720      	adds	r7, #32
 8004af2:	46bd      	mov	sp, r7
 8004af4:	bd80      	pop	{r7, pc}
 8004af6:	bf00      	nop
 8004af8:	20000024 	.word	0x20000024

08004afc <SPI_EndRxTxTransaction>:
  * @param  Timeout Timeout duration
  * @param  Tickstart tick start value
  * @retval HAL status
  */
static HAL_StatusTypeDef SPI_EndRxTxTransaction(SPI_HandleTypeDef *hspi, uint32_t Timeout, uint32_t Tickstart)
{
 8004afc:	b580      	push	{r7, lr}
 8004afe:	b088      	sub	sp, #32
 8004b00:	af02      	add	r7, sp, #8
 8004b02:	60f8      	str	r0, [r7, #12]
 8004b04:	60b9      	str	r1, [r7, #8]
 8004b06:	607a      	str	r2, [r7, #4]
  /* Timeout in s */
  __IO uint32_t count = SPI_BSY_FLAG_WORKAROUND_TIMEOUT * (SystemCoreClock / 24U / 1000000U);
 8004b08:	4b1b      	ldr	r3, [pc, #108]	; (8004b78 <SPI_EndRxTxTransaction+0x7c>)
 8004b0a:	681b      	ldr	r3, [r3, #0]
 8004b0c:	4a1b      	ldr	r2, [pc, #108]	; (8004b7c <SPI_EndRxTxTransaction+0x80>)
 8004b0e:	fba2 2303 	umull	r2, r3, r2, r3
 8004b12:	0d5b      	lsrs	r3, r3, #21
 8004b14:	f44f 727a 	mov.w	r2, #1000	; 0x3e8
 8004b18:	fb02 f303 	mul.w	r3, r2, r3
 8004b1c:	617b      	str	r3, [r7, #20]
  /* Erratasheet: BSY bit may stay high at the end of a data transfer in Slave mode */
  if (hspi->Init.Mode == SPI_MODE_MASTER)
 8004b1e:	68fb      	ldr	r3, [r7, #12]
 8004b20:	685b      	ldr	r3, [r3, #4]
 8004b22:	f5b3 7f82 	cmp.w	r3, #260	; 0x104
 8004b26:	d112      	bne.n	8004b4e <SPI_EndRxTxTransaction+0x52>
  {
    /* Control the BSY flag */
    if (SPI_WaitFlagStateUntilTimeout(hspi, SPI_FLAG_BSY, RESET, Timeout, Tickstart) != HAL_OK)
 8004b28:	687b      	ldr	r3, [r7, #4]
 8004b2a:	9300      	str	r3, [sp, #0]
 8004b2c:	68bb      	ldr	r3, [r7, #8]
 8004b2e:	2200      	movs	r2, #0
 8004b30:	2180      	movs	r1, #128	; 0x80
 8004b32:	68f8      	ldr	r0, [r7, #12]
 8004b34:	f7ff ff5a 	bl	80049ec <SPI_WaitFlagStateUntilTimeout>
 8004b38:	4603      	mov	r3, r0
 8004b3a:	2b00      	cmp	r3, #0
 8004b3c:	d016      	beq.n	8004b6c <SPI_EndRxTxTransaction+0x70>
    {
      SET_BIT(hspi->ErrorCode, HAL_SPI_ERROR_FLAG);
 8004b3e:	68fb      	ldr	r3, [r7, #12]
 8004b40:	6d5b      	ldr	r3, [r3, #84]	; 0x54
 8004b42:	f043 0220 	orr.w	r2, r3, #32
 8004b46:	68fb      	ldr	r3, [r7, #12]
 8004b48:	655a      	str	r2, [r3, #84]	; 0x54
      return HAL_TIMEOUT;
 8004b4a:	2303      	movs	r3, #3
 8004b4c:	e00f      	b.n	8004b6e <SPI_EndRxTxTransaction+0x72>
    * User have to calculate the timeout value to fit with the time of 1 byte transfer.
    * This time is directly link with the SPI clock from Master device.
    */
    do
    {
      if (count == 0U)
 8004b4e:	697b      	ldr	r3, [r7, #20]
 8004b50:	2b00      	cmp	r3, #0
 8004b52:	d00a      	beq.n	8004b6a <SPI_EndRxTxTransaction+0x6e>
      {
        break;
      }
      count--;
 8004b54:	697b      	ldr	r3, [r7, #20]
 8004b56:	3b01      	subs	r3, #1
 8004b58:	617b      	str	r3, [r7, #20]
    } while (__HAL_SPI_GET_FLAG(hspi, SPI_FLAG_BSY) != RESET);
 8004b5a:	68fb      	ldr	r3, [r7, #12]
 8004b5c:	681b      	ldr	r3, [r3, #0]
 8004b5e:	689b      	ldr	r3, [r3, #8]
 8004b60:	f003 0380 	and.w	r3, r3, #128	; 0x80
 8004b64:	2b80      	cmp	r3, #128	; 0x80
 8004b66:	d0f2      	beq.n	8004b4e <SPI_EndRxTxTransaction+0x52>
 8004b68:	e000      	b.n	8004b6c <SPI_EndRxTxTransaction+0x70>
        break;
 8004b6a:	bf00      	nop
  }

  return HAL_OK;
 8004b6c:	2300      	movs	r3, #0
}
 8004b6e:	4618      	mov	r0, r3
 8004b70:	3718      	adds	r7, #24
 8004b72:	46bd      	mov	sp, r7
 8004b74:	bd80      	pop	{r7, pc}
 8004b76:	bf00      	nop
 8004b78:	20000024 	.word	0x20000024
 8004b7c:	165e9f81 	.word	0x165e9f81

08004b80 <HAL_TIM_Base_Init>:
  *         Ex: call @ref HAL_TIM_Base_DeInit() before HAL_TIM_Base_Init()
  * @param  htim TIM Base handle
  * @retval HAL status
  */
HAL_StatusTypeDef HAL_TIM_Base_Init(TIM_HandleTypeDef *htim)
{
 8004b80:	b580      	push	{r7, lr}
 8004b82:	b082      	sub	sp, #8
 8004b84:	af00      	add	r7, sp, #0
 8004b86:	6078      	str	r0, [r7, #4]
  /* Check the TIM handle allocation */
  if (htim == NULL)
 8004b88:	687b      	ldr	r3, [r7, #4]
 8004b8a:	2b00      	cmp	r3, #0
 8004b8c:	d101      	bne.n	8004b92 <HAL_TIM_Base_Init+0x12>
  {
    return HAL_ERROR;
 8004b8e:	2301      	movs	r3, #1
 8004b90:	e041      	b.n	8004c16 <HAL_TIM_Base_Init+0x96>
  assert_param(IS_TIM_INSTANCE(htim->Instance));
  assert_param(IS_TIM_COUNTER_MODE(htim->Init.CounterMode));
  assert_param(IS_TIM_CLOCKDIVISION_DIV(htim->Init.ClockDivision));
  assert_param(IS_TIM_AUTORELOAD_PRELOAD(htim->Init.AutoReloadPreload));

  if (htim->State == HAL_TIM_STATE_RESET)
 8004b92:	687b      	ldr	r3, [r7, #4]
 8004b94:	f893 303d 	ldrb.w	r3, [r3, #61]	; 0x3d
 8004b98:	b2db      	uxtb	r3, r3
 8004b9a:	2b00      	cmp	r3, #0
 8004b9c:	d106      	bne.n	8004bac <HAL_TIM_Base_Init+0x2c>
  {
    /* Allocate lock resource and initialize it */
    htim->Lock = HAL_UNLOCKED;
 8004b9e:	687b      	ldr	r3, [r7, #4]
 8004ba0:	2200      	movs	r2, #0
 8004ba2:	f883 203c 	strb.w	r2, [r3, #60]	; 0x3c
    }
    /* Init the low level hardware : GPIO, CLOCK, NVIC */
    htim->Base_MspInitCallback(htim);
#else
    /* Init the low level hardware : GPIO, CLOCK, NVIC */
    HAL_TIM_Base_MspInit(htim);
 8004ba6:	6878      	ldr	r0, [r7, #4]
 8004ba8:	f000 f839 	bl	8004c1e <HAL_TIM_Base_MspInit>
#endif /* USE_HAL_TIM_REGISTER_CALLBACKS */
  }

  /* Set the TIM state */
  htim->State = HAL_TIM_STATE_BUSY;
 8004bac:	687b      	ldr	r3, [r7, #4]
 8004bae:	2202      	movs	r2, #2
 8004bb0:	f883 203d 	strb.w	r2, [r3, #61]	; 0x3d

  /* Set the Time Base configuration */
  TIM_Base_SetConfig(htim->Instance, &htim->Init);
 8004bb4:	687b      	ldr	r3, [r7, #4]
 8004bb6:	681a      	ldr	r2, [r3, #0]
 8004bb8:	687b      	ldr	r3, [r7, #4]
 8004bba:	3304      	adds	r3, #4
 8004bbc:	4619      	mov	r1, r3
 8004bbe:	4610      	mov	r0, r2
 8004bc0:	f000 f9d8 	bl	8004f74 <TIM_Base_SetConfig>

  /* Initialize the DMA burst operation state */
  htim->DMABurstState = HAL_DMA_BURST_STATE_READY;
 8004bc4:	687b      	ldr	r3, [r7, #4]
 8004bc6:	2201      	movs	r2, #1
 8004bc8:	f883 2046 	strb.w	r2, [r3, #70]	; 0x46

  /* Initialize the TIM channels state */
  TIM_CHANNEL_STATE_SET_ALL(htim, HAL_TIM_CHANNEL_STATE_READY);
 8004bcc:	687b      	ldr	r3, [r7, #4]
 8004bce:	2201      	movs	r2, #1
 8004bd0:	f883 203e 	strb.w	r2, [r3, #62]	; 0x3e
 8004bd4:	687b      	ldr	r3, [r7, #4]
 8004bd6:	2201      	movs	r2, #1
 8004bd8:	f883 203f 	strb.w	r2, [r3, #63]	; 0x3f
 8004bdc:	687b      	ldr	r3, [r7, #4]
 8004bde:	2201      	movs	r2, #1
 8004be0:	f883 2040 	strb.w	r2, [r3, #64]	; 0x40
 8004be4:	687b      	ldr	r3, [r7, #4]
 8004be6:	2201      	movs	r2, #1
 8004be8:	f883 2041 	strb.w	r2, [r3, #65]	; 0x41
  TIM_CHANNEL_N_STATE_SET_ALL(htim, HAL_TIM_CHANNEL_STATE_READY);
 8004bec:	687b      	ldr	r3, [r7, #4]
 8004bee:	2201      	movs	r2, #1
 8004bf0:	f883 2042 	strb.w	r2, [r3, #66]	; 0x42
 8004bf4:	687b      	ldr	r3, [r7, #4]
 8004bf6:	2201      	movs	r2, #1
 8004bf8:	f883 2043 	strb.w	r2, [r3, #67]	; 0x43
 8004bfc:	687b      	ldr	r3, [r7, #4]
 8004bfe:	2201      	movs	r2, #1
 8004c00:	f883 2044 	strb.w	r2, [r3, #68]	; 0x44
 8004c04:	687b      	ldr	r3, [r7, #4]
 8004c06:	2201      	movs	r2, #1
 8004c08:	f883 2045 	strb.w	r2, [r3, #69]	; 0x45

  /* Initialize the TIM state*/
  htim->State = HAL_TIM_STATE_READY;
 8004c0c:	687b      	ldr	r3, [r7, #4]
 8004c0e:	2201      	movs	r2, #1
 8004c10:	f883 203d 	strb.w	r2, [r3, #61]	; 0x3d

  return HAL_OK;
 8004c14:	2300      	movs	r3, #0
}
 8004c16:	4618      	mov	r0, r3
 8004c18:	3708      	adds	r7, #8
 8004c1a:	46bd      	mov	sp, r7
 8004c1c:	bd80      	pop	{r7, pc}

08004c1e <HAL_TIM_Base_MspInit>:
  * @brief  Initializes the TIM Base MSP.
  * @param  htim TIM Base handle
  * @retval None
  */
__weak void HAL_TIM_Base_MspInit(TIM_HandleTypeDef *htim)
{
 8004c1e:	b480      	push	{r7}
 8004c20:	b083      	sub	sp, #12
 8004c22:	af00      	add	r7, sp, #0
 8004c24:	6078      	str	r0, [r7, #4]
  UNUSED(htim);

  /* NOTE : This function should not be modified, when the callback is needed,
            the HAL_TIM_Base_MspInit could be implemented in the user file
   */
}
 8004c26:	bf00      	nop
 8004c28:	370c      	adds	r7, #12
 8004c2a:	46bd      	mov	sp, r7
 8004c2c:	f85d 7b04 	ldr.w	r7, [sp], #4
 8004c30:	4770      	bx	lr
	...

08004c34 <HAL_TIM_Base_Start_IT>:
  * @brief  Starts the TIM Base generation in interrupt mode.
  * @param  htim TIM Base handle
  * @retval HAL status
  */
HAL_StatusTypeDef HAL_TIM_Base_Start_IT(TIM_HandleTypeDef *htim)
{
 8004c34:	b480      	push	{r7}
 8004c36:	b085      	sub	sp, #20
 8004c38:	af00      	add	r7, sp, #0
 8004c3a:	6078      	str	r0, [r7, #4]

  /* Check the parameters */
  assert_param(IS_TIM_INSTANCE(htim->Instance));

  /* Check the TIM state */
  if (htim->State != HAL_TIM_STATE_READY)
 8004c3c:	687b      	ldr	r3, [r7, #4]
 8004c3e:	f893 303d 	ldrb.w	r3, [r3, #61]	; 0x3d
 8004c42:	b2db      	uxtb	r3, r3
 8004c44:	2b01      	cmp	r3, #1
 8004c46:	d001      	beq.n	8004c4c <HAL_TIM_Base_Start_IT+0x18>
  {
    return HAL_ERROR;
 8004c48:	2301      	movs	r3, #1
 8004c4a:	e04e      	b.n	8004cea <HAL_TIM_Base_Start_IT+0xb6>
  }

  /* Set the TIM state */
  htim->State = HAL_TIM_STATE_BUSY;
 8004c4c:	687b      	ldr	r3, [r7, #4]
 8004c4e:	2202      	movs	r2, #2
 8004c50:	f883 203d 	strb.w	r2, [r3, #61]	; 0x3d

  /* Enable the TIM Update interrupt */
  __HAL_TIM_ENABLE_IT(htim, TIM_IT_UPDATE);
 8004c54:	687b      	ldr	r3, [r7, #4]
 8004c56:	681b      	ldr	r3, [r3, #0]
 8004c58:	68da      	ldr	r2, [r3, #12]
 8004c5a:	687b      	ldr	r3, [r7, #4]
 8004c5c:	681b      	ldr	r3, [r3, #0]
 8004c5e:	f042 0201 	orr.w	r2, r2, #1
 8004c62:	60da      	str	r2, [r3, #12]

  /* Enable the Peripheral, except in trigger mode where enable is automatically done with trigger */
  if (IS_TIM_SLAVE_INSTANCE(htim->Instance))
 8004c64:	687b      	ldr	r3, [r7, #4]
 8004c66:	681b      	ldr	r3, [r3, #0]
 8004c68:	4a23      	ldr	r2, [pc, #140]	; (8004cf8 <HAL_TIM_Base_Start_IT+0xc4>)
 8004c6a:	4293      	cmp	r3, r2
 8004c6c:	d022      	beq.n	8004cb4 <HAL_TIM_Base_Start_IT+0x80>
 8004c6e:	687b      	ldr	r3, [r7, #4]
 8004c70:	681b      	ldr	r3, [r3, #0]
 8004c72:	f1b3 4f80 	cmp.w	r3, #1073741824	; 0x40000000
 8004c76:	d01d      	beq.n	8004cb4 <HAL_TIM_Base_Start_IT+0x80>
 8004c78:	687b      	ldr	r3, [r7, #4]
 8004c7a:	681b      	ldr	r3, [r3, #0]
 8004c7c:	4a1f      	ldr	r2, [pc, #124]	; (8004cfc <HAL_TIM_Base_Start_IT+0xc8>)
 8004c7e:	4293      	cmp	r3, r2
 8004c80:	d018      	beq.n	8004cb4 <HAL_TIM_Base_Start_IT+0x80>
 8004c82:	687b      	ldr	r3, [r7, #4]
 8004c84:	681b      	ldr	r3, [r3, #0]
 8004c86:	4a1e      	ldr	r2, [pc, #120]	; (8004d00 <HAL_TIM_Base_Start_IT+0xcc>)
 8004c88:	4293      	cmp	r3, r2
 8004c8a:	d013      	beq.n	8004cb4 <HAL_TIM_Base_Start_IT+0x80>
 8004c8c:	687b      	ldr	r3, [r7, #4]
 8004c8e:	681b      	ldr	r3, [r3, #0]
 8004c90:	4a1c      	ldr	r2, [pc, #112]	; (8004d04 <HAL_TIM_Base_Start_IT+0xd0>)
 8004c92:	4293      	cmp	r3, r2
 8004c94:	d00e      	beq.n	8004cb4 <HAL_TIM_Base_Start_IT+0x80>
 8004c96:	687b      	ldr	r3, [r7, #4]
 8004c98:	681b      	ldr	r3, [r3, #0]
 8004c9a:	4a1b      	ldr	r2, [pc, #108]	; (8004d08 <HAL_TIM_Base_Start_IT+0xd4>)
 8004c9c:	4293      	cmp	r3, r2
 8004c9e:	d009      	beq.n	8004cb4 <HAL_TIM_Base_Start_IT+0x80>
 8004ca0:	687b      	ldr	r3, [r7, #4]
 8004ca2:	681b      	ldr	r3, [r3, #0]
 8004ca4:	4a19      	ldr	r2, [pc, #100]	; (8004d0c <HAL_TIM_Base_Start_IT+0xd8>)
 8004ca6:	4293      	cmp	r3, r2
 8004ca8:	d004      	beq.n	8004cb4 <HAL_TIM_Base_Start_IT+0x80>
 8004caa:	687b      	ldr	r3, [r7, #4]
 8004cac:	681b      	ldr	r3, [r3, #0]
 8004cae:	4a18      	ldr	r2, [pc, #96]	; (8004d10 <HAL_TIM_Base_Start_IT+0xdc>)
 8004cb0:	4293      	cmp	r3, r2
 8004cb2:	d111      	bne.n	8004cd8 <HAL_TIM_Base_Start_IT+0xa4>
  {
    tmpsmcr = htim->Instance->SMCR & TIM_SMCR_SMS;
 8004cb4:	687b      	ldr	r3, [r7, #4]
 8004cb6:	681b      	ldr	r3, [r3, #0]
 8004cb8:	689b      	ldr	r3, [r3, #8]
 8004cba:	f003 0307 	and.w	r3, r3, #7
 8004cbe:	60fb      	str	r3, [r7, #12]
    if (!IS_TIM_SLAVEMODE_TRIGGER_ENABLED(tmpsmcr))
 8004cc0:	68fb      	ldr	r3, [r7, #12]
 8004cc2:	2b06      	cmp	r3, #6
 8004cc4:	d010      	beq.n	8004ce8 <HAL_TIM_Base_Start_IT+0xb4>
    {
      __HAL_TIM_ENABLE(htim);
 8004cc6:	687b      	ldr	r3, [r7, #4]
 8004cc8:	681b      	ldr	r3, [r3, #0]
 8004cca:	681a      	ldr	r2, [r3, #0]
 8004ccc:	687b      	ldr	r3, [r7, #4]
 8004cce:	681b      	ldr	r3, [r3, #0]
 8004cd0:	f042 0201 	orr.w	r2, r2, #1
 8004cd4:	601a      	str	r2, [r3, #0]
    if (!IS_TIM_SLAVEMODE_TRIGGER_ENABLED(tmpsmcr))
 8004cd6:	e007      	b.n	8004ce8 <HAL_TIM_Base_Start_IT+0xb4>
    }
  }
  else
  {
    __HAL_TIM_ENABLE(htim);
 8004cd8:	687b      	ldr	r3, [r7, #4]
 8004cda:	681b      	ldr	r3, [r3, #0]
 8004cdc:	681a      	ldr	r2, [r3, #0]
 8004cde:	687b      	ldr	r3, [r7, #4]
 8004ce0:	681b      	ldr	r3, [r3, #0]
 8004ce2:	f042 0201 	orr.w	r2, r2, #1
 8004ce6:	601a      	str	r2, [r3, #0]
  }

  /* Return function status */
  return HAL_OK;
 8004ce8:	2300      	movs	r3, #0
}
 8004cea:	4618      	mov	r0, r3
 8004cec:	3714      	adds	r7, #20
 8004cee:	46bd      	mov	sp, r7
 8004cf0:	f85d 7b04 	ldr.w	r7, [sp], #4
 8004cf4:	4770      	bx	lr
 8004cf6:	bf00      	nop
 8004cf8:	40010000 	.word	0x40010000
 8004cfc:	40000400 	.word	0x40000400
 8004d00:	40000800 	.word	0x40000800
 8004d04:	40000c00 	.word	0x40000c00
 8004d08:	40010400 	.word	0x40010400
 8004d0c:	40014000 	.word	0x40014000
 8004d10:	40001800 	.word	0x40001800

08004d14 <HAL_TIM_IRQHandler>:
  * @brief  This function handles TIM interrupts requests.
  * @param  htim TIM  handle
  * @retval None
  */
void HAL_TIM_IRQHandler(TIM_HandleTypeDef *htim)
{
 8004d14:	b580      	push	{r7, lr}
 8004d16:	b082      	sub	sp, #8
 8004d18:	af00      	add	r7, sp, #0
 8004d1a:	6078      	str	r0, [r7, #4]
  /* Capture compare 1 event */
  if (__HAL_TIM_GET_FLAG(htim, TIM_FLAG_CC1) != RESET)
 8004d1c:	687b      	ldr	r3, [r7, #4]
 8004d1e:	681b      	ldr	r3, [r3, #0]
 8004d20:	691b      	ldr	r3, [r3, #16]
 8004d22:	f003 0302 	and.w	r3, r3, #2
 8004d26:	2b02      	cmp	r3, #2
 8004d28:	d122      	bne.n	8004d70 <HAL_TIM_IRQHandler+0x5c>
  {
    if (__HAL_TIM_GET_IT_SOURCE(htim, TIM_IT_CC1) != RESET)
 8004d2a:	687b      	ldr	r3, [r7, #4]
 8004d2c:	681b      	ldr	r3, [r3, #0]
 8004d2e:	68db      	ldr	r3, [r3, #12]
 8004d30:	f003 0302 	and.w	r3, r3, #2
 8004d34:	2b02      	cmp	r3, #2
 8004d36:	d11b      	bne.n	8004d70 <HAL_TIM_IRQHandler+0x5c>
    {
      {
        __HAL_TIM_CLEAR_IT(htim, TIM_IT_CC1);
 8004d38:	687b      	ldr	r3, [r7, #4]
 8004d3a:	681b      	ldr	r3, [r3, #0]
 8004d3c:	f06f 0202 	mvn.w	r2, #2
 8004d40:	611a      	str	r2, [r3, #16]
        htim->Channel = HAL_TIM_ACTIVE_CHANNEL_1;
 8004d42:	687b      	ldr	r3, [r7, #4]
 8004d44:	2201      	movs	r2, #1
 8004d46:	771a      	strb	r2, [r3, #28]

        /* Input capture event */
        if ((htim->Instance->CCMR1 & TIM_CCMR1_CC1S) != 0x00U)
 8004d48:	687b      	ldr	r3, [r7, #4]
 8004d4a:	681b      	ldr	r3, [r3, #0]
 8004d4c:	699b      	ldr	r3, [r3, #24]
 8004d4e:	f003 0303 	and.w	r3, r3, #3
 8004d52:	2b00      	cmp	r3, #0
 8004d54:	d003      	beq.n	8004d5e <HAL_TIM_IRQHandler+0x4a>
        {
#if (USE_HAL_TIM_REGISTER_CALLBACKS == 1)
          htim->IC_CaptureCallback(htim);
#else
          HAL_TIM_IC_CaptureCallback(htim);
 8004d56:	6878      	ldr	r0, [r7, #4]
 8004d58:	f000 f8ee 	bl	8004f38 <HAL_TIM_IC_CaptureCallback>
 8004d5c:	e005      	b.n	8004d6a <HAL_TIM_IRQHandler+0x56>
        {
#if (USE_HAL_TIM_REGISTER_CALLBACKS == 1)
          htim->OC_DelayElapsedCallback(htim);
          htim->PWM_PulseFinishedCallback(htim);
#else
          HAL_TIM_OC_DelayElapsedCallback(htim);
 8004d5e:	6878      	ldr	r0, [r7, #4]
 8004d60:	f000 f8e0 	bl	8004f24 <HAL_TIM_OC_DelayElapsedCallback>
          HAL_TIM_PWM_PulseFinishedCallback(htim);
 8004d64:	6878      	ldr	r0, [r7, #4]
 8004d66:	f000 f8f1 	bl	8004f4c <HAL_TIM_PWM_PulseFinishedCallback>
#endif /* USE_HAL_TIM_REGISTER_CALLBACKS */
        }
        htim->Channel = HAL_TIM_ACTIVE_CHANNEL_CLEARED;
 8004d6a:	687b      	ldr	r3, [r7, #4]
 8004d6c:	2200      	movs	r2, #0
 8004d6e:	771a      	strb	r2, [r3, #28]
      }
    }
  }
  /* Capture compare 2 event */
  if (__HAL_TIM_GET_FLAG(htim, TIM_FLAG_CC2) != RESET)
 8004d70:	687b      	ldr	r3, [r7, #4]
 8004d72:	681b      	ldr	r3, [r3, #0]
 8004d74:	691b      	ldr	r3, [r3, #16]
 8004d76:	f003 0304 	and.w	r3, r3, #4
 8004d7a:	2b04      	cmp	r3, #4
 8004d7c:	d122      	bne.n	8004dc4 <HAL_TIM_IRQHandler+0xb0>
  {
    if (__HAL_TIM_GET_IT_SOURCE(htim, TIM_IT_CC2) != RESET)
 8004d7e:	687b      	ldr	r3, [r7, #4]
 8004d80:	681b      	ldr	r3, [r3, #0]
 8004d82:	68db      	ldr	r3, [r3, #12]
 8004d84:	f003 0304 	and.w	r3, r3, #4
 8004d88:	2b04      	cmp	r3, #4
 8004d8a:	d11b      	bne.n	8004dc4 <HAL_TIM_IRQHandler+0xb0>
    {
      __HAL_TIM_CLEAR_IT(htim, TIM_IT_CC2);
 8004d8c:	687b      	ldr	r3, [r7, #4]
 8004d8e:	681b      	ldr	r3, [r3, #0]
 8004d90:	f06f 0204 	mvn.w	r2, #4
 8004d94:	611a      	str	r2, [r3, #16]
      htim->Channel = HAL_TIM_ACTIVE_CHANNEL_2;
 8004d96:	687b      	ldr	r3, [r7, #4]
 8004d98:	2202      	movs	r2, #2
 8004d9a:	771a      	strb	r2, [r3, #28]
      /* Input capture event */
      if ((htim->Instance->CCMR1 & TIM_CCMR1_CC2S) != 0x00U)
 8004d9c:	687b      	ldr	r3, [r7, #4]
 8004d9e:	681b      	ldr	r3, [r3, #0]
 8004da0:	699b      	ldr	r3, [r3, #24]
 8004da2:	f403 7340 	and.w	r3, r3, #768	; 0x300
 8004da6:	2b00      	cmp	r3, #0
 8004da8:	d003      	beq.n	8004db2 <HAL_TIM_IRQHandler+0x9e>
      {
#if (USE_HAL_TIM_REGISTER_CALLBACKS == 1)
        htim->IC_CaptureCallback(htim);
#else
        HAL_TIM_IC_CaptureCallback(htim);
 8004daa:	6878      	ldr	r0, [r7, #4]
 8004dac:	f000 f8c4 	bl	8004f38 <HAL_TIM_IC_CaptureCallback>
 8004db0:	e005      	b.n	8004dbe <HAL_TIM_IRQHandler+0xaa>
      {
#if (USE_HAL_TIM_REGISTER_CALLBACKS == 1)
        htim->OC_DelayElapsedCallback(htim);
        htim->PWM_PulseFinishedCallback(htim);
#else
        HAL_TIM_OC_DelayElapsedCallback(htim);
 8004db2:	6878      	ldr	r0, [r7, #4]
 8004db4:	f000 f8b6 	bl	8004f24 <HAL_TIM_OC_DelayElapsedCallback>
        HAL_TIM_PWM_PulseFinishedCallback(htim);
 8004db8:	6878      	ldr	r0, [r7, #4]
 8004dba:	f000 f8c7 	bl	8004f4c <HAL_TIM_PWM_PulseFinishedCallback>
#endif /* USE_HAL_TIM_REGISTER_CALLBACKS */
      }
      htim->Channel = HAL_TIM_ACTIVE_CHANNEL_CLEARED;
 8004dbe:	687b      	ldr	r3, [r7, #4]
 8004dc0:	2200      	movs	r2, #0
 8004dc2:	771a      	strb	r2, [r3, #28]
    }
  }
  /* Capture compare 3 event */
  if (__HAL_TIM_GET_FLAG(htim, TIM_FLAG_CC3) != RESET)
 8004dc4:	687b      	ldr	r3, [r7, #4]
 8004dc6:	681b      	ldr	r3, [r3, #0]
 8004dc8:	691b      	ldr	r3, [r3, #16]
 8004dca:	f003 0308 	and.w	r3, r3, #8
 8004dce:	2b08      	cmp	r3, #8
 8004dd0:	d122      	bne.n	8004e18 <HAL_TIM_IRQHandler+0x104>
  {
    if (__HAL_TIM_GET_IT_SOURCE(htim, TIM_IT_CC3) != RESET)
 8004dd2:	687b      	ldr	r3, [r7, #4]
 8004dd4:	681b      	ldr	r3, [r3, #0]
 8004dd6:	68db      	ldr	r3, [r3, #12]
 8004dd8:	f003 0308 	and.w	r3, r3, #8
 8004ddc:	2b08      	cmp	r3, #8
 8004dde:	d11b      	bne.n	8004e18 <HAL_TIM_IRQHandler+0x104>
    {
      __HAL_TIM_CLEAR_IT(htim, TIM_IT_CC3);
 8004de0:	687b      	ldr	r3, [r7, #4]
 8004de2:	681b      	ldr	r3, [r3, #0]
 8004de4:	f06f 0208 	mvn.w	r2, #8
 8004de8:	611a      	str	r2, [r3, #16]
      htim->Channel = HAL_TIM_ACTIVE_CHANNEL_3;
 8004dea:	687b      	ldr	r3, [r7, #4]
 8004dec:	2204      	movs	r2, #4
 8004dee:	771a      	strb	r2, [r3, #28]
      /* Input capture event */
      if ((htim->Instance->CCMR2 & TIM_CCMR2_CC3S) != 0x00U)
 8004df0:	687b      	ldr	r3, [r7, #4]
 8004df2:	681b      	ldr	r3, [r3, #0]
 8004df4:	69db      	ldr	r3, [r3, #28]
 8004df6:	f003 0303 	and.w	r3, r3, #3
 8004dfa:	2b00      	cmp	r3, #0
 8004dfc:	d003      	beq.n	8004e06 <HAL_TIM_IRQHandler+0xf2>
      {
#if (USE_HAL_TIM_REGISTER_CALLBACKS == 1)
        htim->IC_CaptureCallback(htim);
#else
        HAL_TIM_IC_CaptureCallback(htim);
 8004dfe:	6878      	ldr	r0, [r7, #4]
 8004e00:	f000 f89a 	bl	8004f38 <HAL_TIM_IC_CaptureCallback>
 8004e04:	e005      	b.n	8004e12 <HAL_TIM_IRQHandler+0xfe>
      {
#if (USE_HAL_TIM_REGISTER_CALLBACKS == 1)
        htim->OC_DelayElapsedCallback(htim);
        htim->PWM_PulseFinishedCallback(htim);
#else
        HAL_TIM_OC_DelayElapsedCallback(htim);
 8004e06:	6878      	ldr	r0, [r7, #4]
 8004e08:	f000 f88c 	bl	8004f24 <HAL_TIM_OC_DelayElapsedCallback>
        HAL_TIM_PWM_PulseFinishedCallback(htim);
 8004e0c:	6878      	ldr	r0, [r7, #4]
 8004e0e:	f000 f89d 	bl	8004f4c <HAL_TIM_PWM_PulseFinishedCallback>
#endif /* USE_HAL_TIM_REGISTER_CALLBACKS */
      }
      htim->Channel = HAL_TIM_ACTIVE_CHANNEL_CLEARED;
 8004e12:	687b      	ldr	r3, [r7, #4]
 8004e14:	2200      	movs	r2, #0
 8004e16:	771a      	strb	r2, [r3, #28]
    }
  }
  /* Capture compare 4 event */
  if (__HAL_TIM_GET_FLAG(htim, TIM_FLAG_CC4) != RESET)
 8004e18:	687b      	ldr	r3, [r7, #4]
 8004e1a:	681b      	ldr	r3, [r3, #0]
 8004e1c:	691b      	ldr	r3, [r3, #16]
 8004e1e:	f003 0310 	and.w	r3, r3, #16
 8004e22:	2b10      	cmp	r3, #16
 8004e24:	d122      	bne.n	8004e6c <HAL_TIM_IRQHandler+0x158>
  {
    if (__HAL_TIM_GET_IT_SOURCE(htim, TIM_IT_CC4) != RESET)
 8004e26:	687b      	ldr	r3, [r7, #4]
 8004e28:	681b      	ldr	r3, [r3, #0]
 8004e2a:	68db      	ldr	r3, [r3, #12]
 8004e2c:	f003 0310 	and.w	r3, r3, #16
 8004e30:	2b10      	cmp	r3, #16
 8004e32:	d11b      	bne.n	8004e6c <HAL_TIM_IRQHandler+0x158>
    {
      __HAL_TIM_CLEAR_IT(htim, TIM_IT_CC4);
 8004e34:	687b      	ldr	r3, [r7, #4]
 8004e36:	681b      	ldr	r3, [r3, #0]
 8004e38:	f06f 0210 	mvn.w	r2, #16
 8004e3c:	611a      	str	r2, [r3, #16]
      htim->Channel = HAL_TIM_ACTIVE_CHANNEL_4;
 8004e3e:	687b      	ldr	r3, [r7, #4]
 8004e40:	2208      	movs	r2, #8
 8004e42:	771a      	strb	r2, [r3, #28]
      /* Input capture event */
      if ((htim->Instance->CCMR2 & TIM_CCMR2_CC4S) != 0x00U)
 8004e44:	687b      	ldr	r3, [r7, #4]
 8004e46:	681b      	ldr	r3, [r3, #0]
 8004e48:	69db      	ldr	r3, [r3, #28]
 8004e4a:	f403 7340 	and.w	r3, r3, #768	; 0x300
 8004e4e:	2b00      	cmp	r3, #0
 8004e50:	d003      	beq.n	8004e5a <HAL_TIM_IRQHandler+0x146>
      {
#if (USE_HAL_TIM_REGISTER_CALLBACKS == 1)
        htim->IC_CaptureCallback(htim);
#else
        HAL_TIM_IC_CaptureCallback(htim);
 8004e52:	6878      	ldr	r0, [r7, #4]
 8004e54:	f000 f870 	bl	8004f38 <HAL_TIM_IC_CaptureCallback>
 8004e58:	e005      	b.n	8004e66 <HAL_TIM_IRQHandler+0x152>
      {
#if (USE_HAL_TIM_REGISTER_CALLBACKS == 1)
        htim->OC_DelayElapsedCallback(htim);
        htim->PWM_PulseFinishedCallback(htim);
#else
        HAL_TIM_OC_DelayElapsedCallback(htim);
 8004e5a:	6878      	ldr	r0, [r7, #4]
 8004e5c:	f000 f862 	bl	8004f24 <HAL_TIM_OC_DelayElapsedCallback>
        HAL_TIM_PWM_PulseFinishedCallback(htim);
 8004e60:	6878      	ldr	r0, [r7, #4]
 8004e62:	f000 f873 	bl	8004f4c <HAL_TIM_PWM_PulseFinishedCallback>
#endif /* USE_HAL_TIM_REGISTER_CALLBACKS */
      }
      htim->Channel = HAL_TIM_ACTIVE_CHANNEL_CLEARED;
 8004e66:	687b      	ldr	r3, [r7, #4]
 8004e68:	2200      	movs	r2, #0
 8004e6a:	771a      	strb	r2, [r3, #28]
    }
  }
  /* TIM Update event */
  if (__HAL_TIM_GET_FLAG(htim, TIM_FLAG_UPDATE) != RESET)
 8004e6c:	687b      	ldr	r3, [r7, #4]
 8004e6e:	681b      	ldr	r3, [r3, #0]
 8004e70:	691b      	ldr	r3, [r3, #16]
 8004e72:	f003 0301 	and.w	r3, r3, #1
 8004e76:	2b01      	cmp	r3, #1
 8004e78:	d10e      	bne.n	8004e98 <HAL_TIM_IRQHandler+0x184>
  {
    if (__HAL_TIM_GET_IT_SOURCE(htim, TIM_IT_UPDATE) != RESET)
 8004e7a:	687b      	ldr	r3, [r7, #4]
 8004e7c:	681b      	ldr	r3, [r3, #0]
 8004e7e:	68db      	ldr	r3, [r3, #12]
 8004e80:	f003 0301 	and.w	r3, r3, #1
 8004e84:	2b01      	cmp	r3, #1
 8004e86:	d107      	bne.n	8004e98 <HAL_TIM_IRQHandler+0x184>
    {
      __HAL_TIM_CLEAR_IT(htim, TIM_IT_UPDATE);
 8004e88:	687b      	ldr	r3, [r7, #4]
 8004e8a:	681b      	ldr	r3, [r3, #0]
 8004e8c:	f06f 0201 	mvn.w	r2, #1
 8004e90:	611a      	str	r2, [r3, #16]
#if (USE_HAL_TIM_REGISTER_CALLBACKS == 1)
      htim->PeriodElapsedCallback(htim);
#else
      HAL_TIM_PeriodElapsedCallback(htim);
 8004e92:	6878      	ldr	r0, [r7, #4]
 8004e94:	f7fd f870 	bl	8001f78 <HAL_TIM_PeriodElapsedCallback>
#endif /* USE_HAL_TIM_REGISTER_CALLBACKS */
    }
  }
  /* TIM Break input event */
  if (__HAL_TIM_GET_FLAG(htim, TIM_FLAG_BREAK) != RESET)
 8004e98:	687b      	ldr	r3, [r7, #4]
 8004e9a:	681b      	ldr	r3, [r3, #0]
 8004e9c:	691b      	ldr	r3, [r3, #16]
 8004e9e:	f003 0380 	and.w	r3, r3, #128	; 0x80
 8004ea2:	2b80      	cmp	r3, #128	; 0x80
 8004ea4:	d10e      	bne.n	8004ec4 <HAL_TIM_IRQHandler+0x1b0>
  {
    if (__HAL_TIM_GET_IT_SOURCE(htim, TIM_IT_BREAK) != RESET)
 8004ea6:	687b      	ldr	r3, [r7, #4]
 8004ea8:	681b      	ldr	r3, [r3, #0]
 8004eaa:	68db      	ldr	r3, [r3, #12]
 8004eac:	f003 0380 	and.w	r3, r3, #128	; 0x80
 8004eb0:	2b80      	cmp	r3, #128	; 0x80
 8004eb2:	d107      	bne.n	8004ec4 <HAL_TIM_IRQHandler+0x1b0>
    {
      __HAL_TIM_CLEAR_IT(htim, TIM_IT_BREAK);
 8004eb4:	687b      	ldr	r3, [r7, #4]
 8004eb6:	681b      	ldr	r3, [r3, #0]
 8004eb8:	f06f 0280 	mvn.w	r2, #128	; 0x80
 8004ebc:	611a      	str	r2, [r3, #16]
#if (USE_HAL_TIM_REGISTER_CALLBACKS == 1)
      htim->BreakCallback(htim);
#else
      HAL_TIMEx_BreakCallback(htim);
 8004ebe:	6878      	ldr	r0, [r7, #4]
 8004ec0:	f000 f902 	bl	80050c8 <HAL_TIMEx_BreakCallback>
#endif /* USE_HAL_TIM_REGISTER_CALLBACKS */
    }
  }
  /* TIM Trigger detection event */
  if (__HAL_TIM_GET_FLAG(htim, TIM_FLAG_TRIGGER) != RESET)
 8004ec4:	687b      	ldr	r3, [r7, #4]
 8004ec6:	681b      	ldr	r3, [r3, #0]
 8004ec8:	691b      	ldr	r3, [r3, #16]
 8004eca:	f003 0340 	and.w	r3, r3, #64	; 0x40
 8004ece:	2b40      	cmp	r3, #64	; 0x40
 8004ed0:	d10e      	bne.n	8004ef0 <HAL_TIM_IRQHandler+0x1dc>
  {
    if (__HAL_TIM_GET_IT_SOURCE(htim, TIM_IT_TRIGGER) != RESET)
 8004ed2:	687b      	ldr	r3, [r7, #4]
 8004ed4:	681b      	ldr	r3, [r3, #0]
 8004ed6:	68db      	ldr	r3, [r3, #12]
 8004ed8:	f003 0340 	and.w	r3, r3, #64	; 0x40
 8004edc:	2b40      	cmp	r3, #64	; 0x40
 8004ede:	d107      	bne.n	8004ef0 <HAL_TIM_IRQHandler+0x1dc>
    {
      __HAL_TIM_CLEAR_IT(htim, TIM_IT_TRIGGER);
 8004ee0:	687b      	ldr	r3, [r7, #4]
 8004ee2:	681b      	ldr	r3, [r3, #0]
 8004ee4:	f06f 0240 	mvn.w	r2, #64	; 0x40
 8004ee8:	611a      	str	r2, [r3, #16]
#if (USE_HAL_TIM_REGISTER_CALLBACKS == 1)
      htim->TriggerCallback(htim);
#else
      HAL_TIM_TriggerCallback(htim);
 8004eea:	6878      	ldr	r0, [r7, #4]
 8004eec:	f000 f838 	bl	8004f60 <HAL_TIM_TriggerCallback>
#endif /* USE_HAL_TIM_REGISTER_CALLBACKS */
    }
  }
  /* TIM commutation event */
  if (__HAL_TIM_GET_FLAG(htim, TIM_FLAG_COM) != RESET)
 8004ef0:	687b      	ldr	r3, [r7, #4]
 8004ef2:	681b      	ldr	r3, [r3, #0]
 8004ef4:	691b      	ldr	r3, [r3, #16]
 8004ef6:	f003 0320 	and.w	r3, r3, #32
 8004efa:	2b20      	cmp	r3, #32
 8004efc:	d10e      	bne.n	8004f1c <HAL_TIM_IRQHandler+0x208>
  {
    if (__HAL_TIM_GET_IT_SOURCE(htim, TIM_IT_COM) != RESET)
 8004efe:	687b      	ldr	r3, [r7, #4]
 8004f00:	681b      	ldr	r3, [r3, #0]
 8004f02:	68db      	ldr	r3, [r3, #12]
 8004f04:	f003 0320 	and.w	r3, r3, #32
 8004f08:	2b20      	cmp	r3, #32
 8004f0a:	d107      	bne.n	8004f1c <HAL_TIM_IRQHandler+0x208>
    {
      __HAL_TIM_CLEAR_IT(htim, TIM_FLAG_COM);
 8004f0c:	687b      	ldr	r3, [r7, #4]
 8004f0e:	681b      	ldr	r3, [r3, #0]
 8004f10:	f06f 0220 	mvn.w	r2, #32
 8004f14:	611a      	str	r2, [r3, #16]
#if (USE_HAL_TIM_REGISTER_CALLBACKS == 1)
      htim->CommutationCallback(htim);
#else
      HAL_TIMEx_CommutCallback(htim);
 8004f16:	6878      	ldr	r0, [r7, #4]
 8004f18:	f000 f8cc 	bl	80050b4 <HAL_TIMEx_CommutCallback>
#endif /* USE_HAL_TIM_REGISTER_CALLBACKS */
    }
  }
}
 8004f1c:	bf00      	nop
 8004f1e:	3708      	adds	r7, #8
 8004f20:	46bd      	mov	sp, r7
 8004f22:	bd80      	pop	{r7, pc}

08004f24 <HAL_TIM_OC_DelayElapsedCallback>:
  * @brief  Output Compare callback in non-blocking mode
  * @param  htim TIM OC handle
  * @retval None
  */
__weak void HAL_TIM_OC_DelayElapsedCallback(TIM_HandleTypeDef *htim)
{
 8004f24:	b480      	push	{r7}
 8004f26:	b083      	sub	sp, #12
 8004f28:	af00      	add	r7, sp, #0
 8004f2a:	6078      	str	r0, [r7, #4]
  UNUSED(htim);

  /* NOTE : This function should not be modified, when the callback is needed,
            the HAL_TIM_OC_DelayElapsedCallback could be implemented in the user file
   */
}
 8004f2c:	bf00      	nop
 8004f2e:	370c      	adds	r7, #12
 8004f30:	46bd      	mov	sp, r7
 8004f32:	f85d 7b04 	ldr.w	r7, [sp], #4
 8004f36:	4770      	bx	lr

08004f38 <HAL_TIM_IC_CaptureCallback>:
  * @brief  Input Capture callback in non-blocking mode
  * @param  htim TIM IC handle
  * @retval None
  */
__weak void HAL_TIM_IC_CaptureCallback(TIM_HandleTypeDef *htim)
{
 8004f38:	b480      	push	{r7}
 8004f3a:	b083      	sub	sp, #12
 8004f3c:	af00      	add	r7, sp, #0
 8004f3e:	6078      	str	r0, [r7, #4]
  UNUSED(htim);

  /* NOTE : This function should not be modified, when the callback is needed,
            the HAL_TIM_IC_CaptureCallback could be implemented in the user file
   */
}
 8004f40:	bf00      	nop
 8004f42:	370c      	adds	r7, #12
 8004f44:	46bd      	mov	sp, r7
 8004f46:	f85d 7b04 	ldr.w	r7, [sp], #4
 8004f4a:	4770      	bx	lr

08004f4c <HAL_TIM_PWM_PulseFinishedCallback>:
  * @brief  PWM Pulse finished callback in non-blocking mode
  * @param  htim TIM handle
  * @retval None
  */
__weak void HAL_TIM_PWM_PulseFinishedCallback(TIM_HandleTypeDef *htim)
{
 8004f4c:	b480      	push	{r7}
 8004f4e:	b083      	sub	sp, #12
 8004f50:	af00      	add	r7, sp, #0
 8004f52:	6078      	str	r0, [r7, #4]
  UNUSED(htim);

  /* NOTE : This function should not be modified, when the callback is needed,
            the HAL_TIM_PWM_PulseFinishedCallback could be implemented in the user file
   */
}
 8004f54:	bf00      	nop
 8004f56:	370c      	adds	r7, #12
 8004f58:	46bd      	mov	sp, r7
 8004f5a:	f85d 7b04 	ldr.w	r7, [sp], #4
 8004f5e:	4770      	bx	lr

08004f60 <HAL_TIM_TriggerCallback>:
  * @brief  Hall Trigger detection callback in non-blocking mode
  * @param  htim TIM handle
  * @retval None
  */
__weak void HAL_TIM_TriggerCallback(TIM_HandleTypeDef *htim)
{
 8004f60:	b480      	push	{r7}
 8004f62:	b083      	sub	sp, #12
 8004f64:	af00      	add	r7, sp, #0
 8004f66:	6078      	str	r0, [r7, #4]
  UNUSED(htim);

  /* NOTE : This function should not be modified, when the callback is needed,
            the HAL_TIM_TriggerCallback could be implemented in the user file
   */
}
 8004f68:	bf00      	nop
 8004f6a:	370c      	adds	r7, #12
 8004f6c:	46bd      	mov	sp, r7
 8004f6e:	f85d 7b04 	ldr.w	r7, [sp], #4
 8004f72:	4770      	bx	lr

08004f74 <TIM_Base_SetConfig>:
  * @param  TIMx TIM peripheral
  * @param  Structure TIM Base configuration structure
  * @retval None
  */
void TIM_Base_SetConfig(TIM_TypeDef *TIMx, TIM_Base_InitTypeDef *Structure)
{
 8004f74:	b480      	push	{r7}
 8004f76:	b085      	sub	sp, #20
 8004f78:	af00      	add	r7, sp, #0
 8004f7a:	6078      	str	r0, [r7, #4]
 8004f7c:	6039      	str	r1, [r7, #0]
  uint32_t tmpcr1;
  tmpcr1 = TIMx->CR1;
 8004f7e:	687b      	ldr	r3, [r7, #4]
 8004f80:	681b      	ldr	r3, [r3, #0]
 8004f82:	60fb      	str	r3, [r7, #12]

  /* Set TIM Time Base Unit parameters ---------------------------------------*/
  if (IS_TIM_COUNTER_MODE_SELECT_INSTANCE(TIMx))
 8004f84:	687b      	ldr	r3, [r7, #4]
 8004f86:	4a40      	ldr	r2, [pc, #256]	; (8005088 <TIM_Base_SetConfig+0x114>)
 8004f88:	4293      	cmp	r3, r2
 8004f8a:	d013      	beq.n	8004fb4 <TIM_Base_SetConfig+0x40>
 8004f8c:	687b      	ldr	r3, [r7, #4]
 8004f8e:	f1b3 4f80 	cmp.w	r3, #1073741824	; 0x40000000
 8004f92:	d00f      	beq.n	8004fb4 <TIM_Base_SetConfig+0x40>
 8004f94:	687b      	ldr	r3, [r7, #4]
 8004f96:	4a3d      	ldr	r2, [pc, #244]	; (800508c <TIM_Base_SetConfig+0x118>)
 8004f98:	4293      	cmp	r3, r2
 8004f9a:	d00b      	beq.n	8004fb4 <TIM_Base_SetConfig+0x40>
 8004f9c:	687b      	ldr	r3, [r7, #4]
 8004f9e:	4a3c      	ldr	r2, [pc, #240]	; (8005090 <TIM_Base_SetConfig+0x11c>)
 8004fa0:	4293      	cmp	r3, r2
 8004fa2:	d007      	beq.n	8004fb4 <TIM_Base_SetConfig+0x40>
 8004fa4:	687b      	ldr	r3, [r7, #4]
 8004fa6:	4a3b      	ldr	r2, [pc, #236]	; (8005094 <TIM_Base_SetConfig+0x120>)
 8004fa8:	4293      	cmp	r3, r2
 8004faa:	d003      	beq.n	8004fb4 <TIM_Base_SetConfig+0x40>
 8004fac:	687b      	ldr	r3, [r7, #4]
 8004fae:	4a3a      	ldr	r2, [pc, #232]	; (8005098 <TIM_Base_SetConfig+0x124>)
 8004fb0:	4293      	cmp	r3, r2
 8004fb2:	d108      	bne.n	8004fc6 <TIM_Base_SetConfig+0x52>
  {
    /* Select the Counter Mode */
    tmpcr1 &= ~(TIM_CR1_DIR | TIM_CR1_CMS);
 8004fb4:	68fb      	ldr	r3, [r7, #12]
 8004fb6:	f023 0370 	bic.w	r3, r3, #112	; 0x70
 8004fba:	60fb      	str	r3, [r7, #12]
    tmpcr1 |= Structure->CounterMode;
 8004fbc:	683b      	ldr	r3, [r7, #0]
 8004fbe:	685b      	ldr	r3, [r3, #4]
 8004fc0:	68fa      	ldr	r2, [r7, #12]
 8004fc2:	4313      	orrs	r3, r2
 8004fc4:	60fb      	str	r3, [r7, #12]
  }

  if (IS_TIM_CLOCK_DIVISION_INSTANCE(TIMx))
 8004fc6:	687b      	ldr	r3, [r7, #4]
 8004fc8:	4a2f      	ldr	r2, [pc, #188]	; (8005088 <TIM_Base_SetConfig+0x114>)
 8004fca:	4293      	cmp	r3, r2
 8004fcc:	d02b      	beq.n	8005026 <TIM_Base_SetConfig+0xb2>
 8004fce:	687b      	ldr	r3, [r7, #4]
 8004fd0:	f1b3 4f80 	cmp.w	r3, #1073741824	; 0x40000000
 8004fd4:	d027      	beq.n	8005026 <TIM_Base_SetConfig+0xb2>
 8004fd6:	687b      	ldr	r3, [r7, #4]
 8004fd8:	4a2c      	ldr	r2, [pc, #176]	; (800508c <TIM_Base_SetConfig+0x118>)
 8004fda:	4293      	cmp	r3, r2
 8004fdc:	d023      	beq.n	8005026 <TIM_Base_SetConfig+0xb2>
 8004fde:	687b      	ldr	r3, [r7, #4]
 8004fe0:	4a2b      	ldr	r2, [pc, #172]	; (8005090 <TIM_Base_SetConfig+0x11c>)
 8004fe2:	4293      	cmp	r3, r2
 8004fe4:	d01f      	beq.n	8005026 <TIM_Base_SetConfig+0xb2>
 8004fe6:	687b      	ldr	r3, [r7, #4]
 8004fe8:	4a2a      	ldr	r2, [pc, #168]	; (8005094 <TIM_Base_SetConfig+0x120>)
 8004fea:	4293      	cmp	r3, r2
 8004fec:	d01b      	beq.n	8005026 <TIM_Base_SetConfig+0xb2>
 8004fee:	687b      	ldr	r3, [r7, #4]
 8004ff0:	4a29      	ldr	r2, [pc, #164]	; (8005098 <TIM_Base_SetConfig+0x124>)
 8004ff2:	4293      	cmp	r3, r2
 8004ff4:	d017      	beq.n	8005026 <TIM_Base_SetConfig+0xb2>
 8004ff6:	687b      	ldr	r3, [r7, #4]
 8004ff8:	4a28      	ldr	r2, [pc, #160]	; (800509c <TIM_Base_SetConfig+0x128>)
 8004ffa:	4293      	cmp	r3, r2
 8004ffc:	d013      	beq.n	8005026 <TIM_Base_SetConfig+0xb2>
 8004ffe:	687b      	ldr	r3, [r7, #4]
 8005000:	4a27      	ldr	r2, [pc, #156]	; (80050a0 <TIM_Base_SetConfig+0x12c>)
 8005002:	4293      	cmp	r3, r2
 8005004:	d00f      	beq.n	8005026 <TIM_Base_SetConfig+0xb2>
 8005006:	687b      	ldr	r3, [r7, #4]
 8005008:	4a26      	ldr	r2, [pc, #152]	; (80050a4 <TIM_Base_SetConfig+0x130>)
 800500a:	4293      	cmp	r3, r2
 800500c:	d00b      	beq.n	8005026 <TIM_Base_SetConfig+0xb2>
 800500e:	687b      	ldr	r3, [r7, #4]
 8005010:	4a25      	ldr	r2, [pc, #148]	; (80050a8 <TIM_Base_SetConfig+0x134>)
 8005012:	4293      	cmp	r3, r2
 8005014:	d007      	beq.n	8005026 <TIM_Base_SetConfig+0xb2>
 8005016:	687b      	ldr	r3, [r7, #4]
 8005018:	4a24      	ldr	r2, [pc, #144]	; (80050ac <TIM_Base_SetConfig+0x138>)
 800501a:	4293      	cmp	r3, r2
 800501c:	d003      	beq.n	8005026 <TIM_Base_SetConfig+0xb2>
 800501e:	687b      	ldr	r3, [r7, #4]
 8005020:	4a23      	ldr	r2, [pc, #140]	; (80050b0 <TIM_Base_SetConfig+0x13c>)
 8005022:	4293      	cmp	r3, r2
 8005024:	d108      	bne.n	8005038 <TIM_Base_SetConfig+0xc4>
  {
    /* Set the clock division */
    tmpcr1 &= ~TIM_CR1_CKD;
 8005026:	68fb      	ldr	r3, [r7, #12]
 8005028:	f423 7340 	bic.w	r3, r3, #768	; 0x300
 800502c:	60fb      	str	r3, [r7, #12]
    tmpcr1 |= (uint32_t)Structure->ClockDivision;
 800502e:	683b      	ldr	r3, [r7, #0]
 8005030:	68db      	ldr	r3, [r3, #12]
 8005032:	68fa      	ldr	r2, [r7, #12]
 8005034:	4313      	orrs	r3, r2
 8005036:	60fb      	str	r3, [r7, #12]
  }

  /* Set the auto-reload preload */
  MODIFY_REG(tmpcr1, TIM_CR1_ARPE, Structure->AutoReloadPreload);
 8005038:	68fb      	ldr	r3, [r7, #12]
 800503a:	f023 0280 	bic.w	r2, r3, #128	; 0x80
 800503e:	683b      	ldr	r3, [r7, #0]
 8005040:	695b      	ldr	r3, [r3, #20]
 8005042:	4313      	orrs	r3, r2
 8005044:	60fb      	str	r3, [r7, #12]

  TIMx->CR1 = tmpcr1;
 8005046:	687b      	ldr	r3, [r7, #4]
 8005048:	68fa      	ldr	r2, [r7, #12]
 800504a:	601a      	str	r2, [r3, #0]

  /* Set the Autoreload value */
  TIMx->ARR = (uint32_t)Structure->Period ;
 800504c:	683b      	ldr	r3, [r7, #0]
 800504e:	689a      	ldr	r2, [r3, #8]
 8005050:	687b      	ldr	r3, [r7, #4]
 8005052:	62da      	str	r2, [r3, #44]	; 0x2c

  /* Set the Prescaler value */
  TIMx->PSC = Structure->Prescaler;
 8005054:	683b      	ldr	r3, [r7, #0]
 8005056:	681a      	ldr	r2, [r3, #0]
 8005058:	687b      	ldr	r3, [r7, #4]
 800505a:	629a      	str	r2, [r3, #40]	; 0x28

  if (IS_TIM_REPETITION_COUNTER_INSTANCE(TIMx))
 800505c:	687b      	ldr	r3, [r7, #4]
 800505e:	4a0a      	ldr	r2, [pc, #40]	; (8005088 <TIM_Base_SetConfig+0x114>)
 8005060:	4293      	cmp	r3, r2
 8005062:	d003      	beq.n	800506c <TIM_Base_SetConfig+0xf8>
 8005064:	687b      	ldr	r3, [r7, #4]
 8005066:	4a0c      	ldr	r2, [pc, #48]	; (8005098 <TIM_Base_SetConfig+0x124>)
 8005068:	4293      	cmp	r3, r2
 800506a:	d103      	bne.n	8005074 <TIM_Base_SetConfig+0x100>
  {
    /* Set the Repetition Counter value */
    TIMx->RCR = Structure->RepetitionCounter;
 800506c:	683b      	ldr	r3, [r7, #0]
 800506e:	691a      	ldr	r2, [r3, #16]
 8005070:	687b      	ldr	r3, [r7, #4]
 8005072:	631a      	str	r2, [r3, #48]	; 0x30
  }

  /* Generate an update event to reload the Prescaler
     and the repetition counter (only for advanced timer) value immediately */
  TIMx->EGR = TIM_EGR_UG;
 8005074:	687b      	ldr	r3, [r7, #4]
 8005076:	2201      	movs	r2, #1
 8005078:	615a      	str	r2, [r3, #20]
}
 800507a:	bf00      	nop
 800507c:	3714      	adds	r7, #20
 800507e:	46bd      	mov	sp, r7
 8005080:	f85d 7b04 	ldr.w	r7, [sp], #4
 8005084:	4770      	bx	lr
 8005086:	bf00      	nop
 8005088:	40010000 	.word	0x40010000
 800508c:	40000400 	.word	0x40000400
 8005090:	40000800 	.word	0x40000800
 8005094:	40000c00 	.word	0x40000c00
 8005098:	40010400 	.word	0x40010400
 800509c:	40014000 	.word	0x40014000
 80050a0:	40014400 	.word	0x40014400
 80050a4:	40014800 	.word	0x40014800
 80050a8:	40001800 	.word	0x40001800
 80050ac:	40001c00 	.word	0x40001c00
 80050b0:	40002000 	.word	0x40002000

080050b4 <HAL_TIMEx_CommutCallback>:
  * @brief  Hall commutation changed callback in non-blocking mode
  * @param  htim TIM handle
  * @retval None
  */
__weak void HAL_TIMEx_CommutCallback(TIM_HandleTypeDef *htim)
{
 80050b4:	b480      	push	{r7}
 80050b6:	b083      	sub	sp, #12
 80050b8:	af00      	add	r7, sp, #0
 80050ba:	6078      	str	r0, [r7, #4]
  UNUSED(htim);

  /* NOTE : This function should not be modified, when the callback is needed,
            the HAL_TIMEx_CommutCallback could be implemented in the user file
   */
}
 80050bc:	bf00      	nop
 80050be:	370c      	adds	r7, #12
 80050c0:	46bd      	mov	sp, r7
 80050c2:	f85d 7b04 	ldr.w	r7, [sp], #4
 80050c6:	4770      	bx	lr

080050c8 <HAL_TIMEx_BreakCallback>:
  * @brief  Hall Break detection callback in non-blocking mode
  * @param  htim TIM handle
  * @retval None
  */
__weak void HAL_TIMEx_BreakCallback(TIM_HandleTypeDef *htim)
{
 80050c8:	b480      	push	{r7}
 80050ca:	b083      	sub	sp, #12
 80050cc:	af00      	add	r7, sp, #0
 80050ce:	6078      	str	r0, [r7, #4]
  UNUSED(htim);

  /* NOTE : This function should not be modified, when the callback is needed,
            the HAL_TIMEx_BreakCallback could be implemented in the user file
   */
}
 80050d0:	bf00      	nop
 80050d2:	370c      	adds	r7, #12
 80050d4:	46bd      	mov	sp, r7
 80050d6:	f85d 7b04 	ldr.w	r7, [sp], #4
 80050da:	4770      	bx	lr

080050dc <HAL_UART_Init>:
  * @param  huart  Pointer to a UART_HandleTypeDef structure that contains
  *                the configuration information for the specified UART module.
  * @retval HAL status
  */
HAL_StatusTypeDef HAL_UART_Init(UART_HandleTypeDef *huart)
{
 80050dc:	b580      	push	{r7, lr}
 80050de:	b082      	sub	sp, #8
 80050e0:	af00      	add	r7, sp, #0
 80050e2:	6078      	str	r0, [r7, #4]
  /* Check the UART handle allocation */
  if (huart == NULL)
 80050e4:	687b      	ldr	r3, [r7, #4]
 80050e6:	2b00      	cmp	r3, #0
 80050e8:	d101      	bne.n	80050ee <HAL_UART_Init+0x12>
  {
    return HAL_ERROR;
 80050ea:	2301      	movs	r3, #1
 80050ec:	e03f      	b.n	800516e <HAL_UART_Init+0x92>
    assert_param(IS_UART_INSTANCE(huart->Instance));
  }
  assert_param(IS_UART_WORD_LENGTH(huart->Init.WordLength));
  assert_param(IS_UART_OVERSAMPLING(huart->Init.OverSampling));

  if (huart->gState == HAL_UART_STATE_RESET)
 80050ee:	687b      	ldr	r3, [r7, #4]
 80050f0:	f893 303d 	ldrb.w	r3, [r3, #61]	; 0x3d
 80050f4:	b2db      	uxtb	r3, r3
 80050f6:	2b00      	cmp	r3, #0
 80050f8:	d106      	bne.n	8005108 <HAL_UART_Init+0x2c>
  {
    /* Allocate lock resource and initialize it */
    huart->Lock = HAL_UNLOCKED;
 80050fa:	687b      	ldr	r3, [r7, #4]
 80050fc:	2200      	movs	r2, #0
 80050fe:	f883 203c 	strb.w	r2, [r3, #60]	; 0x3c

    /* Init the low level hardware */
    huart->MspInitCallback(huart);
#else
    /* Init the low level hardware : GPIO, CLOCK */
    HAL_UART_MspInit(huart);
 8005102:	6878      	ldr	r0, [r7, #4]
 8005104:	f7fd fb3a 	bl	800277c <HAL_UART_MspInit>
#endif /* (USE_HAL_UART_REGISTER_CALLBACKS) */
  }

  huart->gState = HAL_UART_STATE_BUSY;
 8005108:	687b      	ldr	r3, [r7, #4]
 800510a:	2224      	movs	r2, #36	; 0x24
 800510c:	f883 203d 	strb.w	r2, [r3, #61]	; 0x3d

  /* Disable the peripheral */
  __HAL_UART_DISABLE(huart);
 8005110:	687b      	ldr	r3, [r7, #4]
 8005112:	681b      	ldr	r3, [r3, #0]
 8005114:	68da      	ldr	r2, [r3, #12]
 8005116:	687b      	ldr	r3, [r7, #4]
 8005118:	681b      	ldr	r3, [r3, #0]
 800511a:	f422 5200 	bic.w	r2, r2, #8192	; 0x2000
 800511e:	60da      	str	r2, [r3, #12]

  /* Set the UART Communication parameters */
  UART_SetConfig(huart);
 8005120:	6878      	ldr	r0, [r7, #4]
 8005122:	f000 f929 	bl	8005378 <UART_SetConfig>

  /* In asynchronous mode, the following bits must be kept cleared:
     - LINEN and CLKEN bits in the USART_CR2 register,
     - SCEN, HDSEL and IREN  bits in the USART_CR3 register.*/
  CLEAR_BIT(huart->Instance->CR2, (USART_CR2_LINEN | USART_CR2_CLKEN));
 8005126:	687b      	ldr	r3, [r7, #4]
 8005128:	681b      	ldr	r3, [r3, #0]
 800512a:	691a      	ldr	r2, [r3, #16]
 800512c:	687b      	ldr	r3, [r7, #4]
 800512e:	681b      	ldr	r3, [r3, #0]
 8005130:	f422 4290 	bic.w	r2, r2, #18432	; 0x4800
 8005134:	611a      	str	r2, [r3, #16]
  CLEAR_BIT(huart->Instance->CR3, (USART_CR3_SCEN | USART_CR3_HDSEL | USART_CR3_IREN));
 8005136:	687b      	ldr	r3, [r7, #4]
 8005138:	681b      	ldr	r3, [r3, #0]
 800513a:	695a      	ldr	r2, [r3, #20]
 800513c:	687b      	ldr	r3, [r7, #4]
 800513e:	681b      	ldr	r3, [r3, #0]
 8005140:	f022 022a 	bic.w	r2, r2, #42	; 0x2a
 8005144:	615a      	str	r2, [r3, #20]

  /* Enable the peripheral */
  __HAL_UART_ENABLE(huart);
 8005146:	687b      	ldr	r3, [r7, #4]
 8005148:	681b      	ldr	r3, [r3, #0]
 800514a:	68da      	ldr	r2, [r3, #12]
 800514c:	687b      	ldr	r3, [r7, #4]
 800514e:	681b      	ldr	r3, [r3, #0]
 8005150:	f442 5200 	orr.w	r2, r2, #8192	; 0x2000
 8005154:	60da      	str	r2, [r3, #12]

  /* Initialize the UART state */
  huart->ErrorCode = HAL_UART_ERROR_NONE;
 8005156:	687b      	ldr	r3, [r7, #4]
 8005158:	2200      	movs	r2, #0
 800515a:	641a      	str	r2, [r3, #64]	; 0x40
  huart->gState = HAL_UART_STATE_READY;
 800515c:	687b      	ldr	r3, [r7, #4]
 800515e:	2220      	movs	r2, #32
 8005160:	f883 203d 	strb.w	r2, [r3, #61]	; 0x3d
  huart->RxState = HAL_UART_STATE_READY;
 8005164:	687b      	ldr	r3, [r7, #4]
 8005166:	2220      	movs	r2, #32
 8005168:	f883 203e 	strb.w	r2, [r3, #62]	; 0x3e

  return HAL_OK;
 800516c:	2300      	movs	r3, #0
}
 800516e:	4618      	mov	r0, r3
 8005170:	3708      	adds	r7, #8
 8005172:	46bd      	mov	sp, r7
 8005174:	bd80      	pop	{r7, pc}

08005176 <HAL_UART_Transmit>:
  * @param  Size  Amount of data elements (u8 or u16) to be sent
  * @param  Timeout Timeout duration
  * @retval HAL status
  */
HAL_StatusTypeDef HAL_UART_Transmit(UART_HandleTypeDef *huart, const uint8_t *pData, uint16_t Size, uint32_t Timeout)
{
 8005176:	b580      	push	{r7, lr}
 8005178:	b08a      	sub	sp, #40	; 0x28
 800517a:	af02      	add	r7, sp, #8
 800517c:	60f8      	str	r0, [r7, #12]
 800517e:	60b9      	str	r1, [r7, #8]
 8005180:	603b      	str	r3, [r7, #0]
 8005182:	4613      	mov	r3, r2
 8005184:	80fb      	strh	r3, [r7, #6]
  const uint8_t  *pdata8bits;
  const uint16_t *pdata16bits;
  uint32_t tickstart = 0U;
 8005186:	2300      	movs	r3, #0
 8005188:	617b      	str	r3, [r7, #20]

  /* Check that a Tx process is not already ongoing */
  if (huart->gState == HAL_UART_STATE_READY)
 800518a:	68fb      	ldr	r3, [r7, #12]
 800518c:	f893 303d 	ldrb.w	r3, [r3, #61]	; 0x3d
 8005190:	b2db      	uxtb	r3, r3
 8005192:	2b20      	cmp	r3, #32
 8005194:	d17c      	bne.n	8005290 <HAL_UART_Transmit+0x11a>
  {
    if ((pData == NULL) || (Size == 0U))
 8005196:	68bb      	ldr	r3, [r7, #8]
 8005198:	2b00      	cmp	r3, #0
 800519a:	d002      	beq.n	80051a2 <HAL_UART_Transmit+0x2c>
 800519c:	88fb      	ldrh	r3, [r7, #6]
 800519e:	2b00      	cmp	r3, #0
 80051a0:	d101      	bne.n	80051a6 <HAL_UART_Transmit+0x30>
    {
      return  HAL_ERROR;
 80051a2:	2301      	movs	r3, #1
 80051a4:	e075      	b.n	8005292 <HAL_UART_Transmit+0x11c>
    }

    /* Process Locked */
    __HAL_LOCK(huart);
 80051a6:	68fb      	ldr	r3, [r7, #12]
 80051a8:	f893 303c 	ldrb.w	r3, [r3, #60]	; 0x3c
 80051ac:	2b01      	cmp	r3, #1
 80051ae:	d101      	bne.n	80051b4 <HAL_UART_Transmit+0x3e>
 80051b0:	2302      	movs	r3, #2
 80051b2:	e06e      	b.n	8005292 <HAL_UART_Transmit+0x11c>
 80051b4:	68fb      	ldr	r3, [r7, #12]
 80051b6:	2201      	movs	r2, #1
 80051b8:	f883 203c 	strb.w	r2, [r3, #60]	; 0x3c

    huart->ErrorCode = HAL_UART_ERROR_NONE;
 80051bc:	68fb      	ldr	r3, [r7, #12]
 80051be:	2200      	movs	r2, #0
 80051c0:	641a      	str	r2, [r3, #64]	; 0x40
    huart->gState = HAL_UART_STATE_BUSY_TX;
 80051c2:	68fb      	ldr	r3, [r7, #12]
 80051c4:	2221      	movs	r2, #33	; 0x21
 80051c6:	f883 203d 	strb.w	r2, [r3, #61]	; 0x3d

    /* Init tickstart for timeout management */
    tickstart = HAL_GetTick();
 80051ca:	f7fd fd09 	bl	8002be0 <HAL_GetTick>
 80051ce:	6178      	str	r0, [r7, #20]

    huart->TxXferSize = Size;
 80051d0:	68fb      	ldr	r3, [r7, #12]
 80051d2:	88fa      	ldrh	r2, [r7, #6]
 80051d4:	849a      	strh	r2, [r3, #36]	; 0x24
    huart->TxXferCount = Size;
 80051d6:	68fb      	ldr	r3, [r7, #12]
 80051d8:	88fa      	ldrh	r2, [r7, #6]
 80051da:	84da      	strh	r2, [r3, #38]	; 0x26

    /* In case of 9bits/No Parity transfer, pData needs to be handled as a uint16_t pointer */
    if ((huart->Init.WordLength == UART_WORDLENGTH_9B) && (huart->Init.Parity == UART_PARITY_NONE))
 80051dc:	68fb      	ldr	r3, [r7, #12]
 80051de:	689b      	ldr	r3, [r3, #8]
 80051e0:	f5b3 5f80 	cmp.w	r3, #4096	; 0x1000
 80051e4:	d108      	bne.n	80051f8 <HAL_UART_Transmit+0x82>
 80051e6:	68fb      	ldr	r3, [r7, #12]
 80051e8:	691b      	ldr	r3, [r3, #16]
 80051ea:	2b00      	cmp	r3, #0
 80051ec:	d104      	bne.n	80051f8 <HAL_UART_Transmit+0x82>
    {
      pdata8bits  = NULL;
 80051ee:	2300      	movs	r3, #0
 80051f0:	61fb      	str	r3, [r7, #28]
      pdata16bits = (const uint16_t *) pData;
 80051f2:	68bb      	ldr	r3, [r7, #8]
 80051f4:	61bb      	str	r3, [r7, #24]
 80051f6:	e003      	b.n	8005200 <HAL_UART_Transmit+0x8a>
    }
    else
    {
      pdata8bits  = pData;
 80051f8:	68bb      	ldr	r3, [r7, #8]
 80051fa:	61fb      	str	r3, [r7, #28]
      pdata16bits = NULL;
 80051fc:	2300      	movs	r3, #0
 80051fe:	61bb      	str	r3, [r7, #24]
    }

    /* Process Unlocked */
    __HAL_UNLOCK(huart);
 8005200:	68fb      	ldr	r3, [r7, #12]
 8005202:	2200      	movs	r2, #0
 8005204:	f883 203c 	strb.w	r2, [r3, #60]	; 0x3c

    while (huart->TxXferCount > 0U)
 8005208:	e02a      	b.n	8005260 <HAL_UART_Transmit+0xea>
    {
      if (UART_WaitOnFlagUntilTimeout(huart, UART_FLAG_TXE, RESET, tickstart, Timeout) != HAL_OK)
 800520a:	683b      	ldr	r3, [r7, #0]
 800520c:	9300      	str	r3, [sp, #0]
 800520e:	697b      	ldr	r3, [r7, #20]
 8005210:	2200      	movs	r2, #0
 8005212:	2180      	movs	r1, #128	; 0x80
 8005214:	68f8      	ldr	r0, [r7, #12]
 8005216:	f000 f840 	bl	800529a <UART_WaitOnFlagUntilTimeout>
 800521a:	4603      	mov	r3, r0
 800521c:	2b00      	cmp	r3, #0
 800521e:	d001      	beq.n	8005224 <HAL_UART_Transmit+0xae>
      {
        return HAL_TIMEOUT;
 8005220:	2303      	movs	r3, #3
 8005222:	e036      	b.n	8005292 <HAL_UART_Transmit+0x11c>
      }
      if (pdata8bits == NULL)
 8005224:	69fb      	ldr	r3, [r7, #28]
 8005226:	2b00      	cmp	r3, #0
 8005228:	d10b      	bne.n	8005242 <HAL_UART_Transmit+0xcc>
      {
        huart->Instance->DR = (uint16_t)(*pdata16bits & 0x01FFU);
 800522a:	69bb      	ldr	r3, [r7, #24]
 800522c:	881b      	ldrh	r3, [r3, #0]
 800522e:	461a      	mov	r2, r3
 8005230:	68fb      	ldr	r3, [r7, #12]
 8005232:	681b      	ldr	r3, [r3, #0]
 8005234:	f3c2 0208 	ubfx	r2, r2, #0, #9
 8005238:	605a      	str	r2, [r3, #4]
        pdata16bits++;
 800523a:	69bb      	ldr	r3, [r7, #24]
 800523c:	3302      	adds	r3, #2
 800523e:	61bb      	str	r3, [r7, #24]
 8005240:	e007      	b.n	8005252 <HAL_UART_Transmit+0xdc>
      }
      else
      {
        huart->Instance->DR = (uint8_t)(*pdata8bits & 0xFFU);
 8005242:	69fb      	ldr	r3, [r7, #28]
 8005244:	781a      	ldrb	r2, [r3, #0]
 8005246:	68fb      	ldr	r3, [r7, #12]
 8005248:	681b      	ldr	r3, [r3, #0]
 800524a:	605a      	str	r2, [r3, #4]
        pdata8bits++;
 800524c:	69fb      	ldr	r3, [r7, #28]
 800524e:	3301      	adds	r3, #1
 8005250:	61fb      	str	r3, [r7, #28]
      }
      huart->TxXferCount--;
 8005252:	68fb      	ldr	r3, [r7, #12]
 8005254:	8cdb      	ldrh	r3, [r3, #38]	; 0x26
 8005256:	b29b      	uxth	r3, r3
 8005258:	3b01      	subs	r3, #1
 800525a:	b29a      	uxth	r2, r3
 800525c:	68fb      	ldr	r3, [r7, #12]
 800525e:	84da      	strh	r2, [r3, #38]	; 0x26
    while (huart->TxXferCount > 0U)
 8005260:	68fb      	ldr	r3, [r7, #12]
 8005262:	8cdb      	ldrh	r3, [r3, #38]	; 0x26
 8005264:	b29b      	uxth	r3, r3
 8005266:	2b00      	cmp	r3, #0
 8005268:	d1cf      	bne.n	800520a <HAL_UART_Transmit+0x94>
    }

    if (UART_WaitOnFlagUntilTimeout(huart, UART_FLAG_TC, RESET, tickstart, Timeout) != HAL_OK)
 800526a:	683b      	ldr	r3, [r7, #0]
 800526c:	9300      	str	r3, [sp, #0]
 800526e:	697b      	ldr	r3, [r7, #20]
 8005270:	2200      	movs	r2, #0
 8005272:	2140      	movs	r1, #64	; 0x40
 8005274:	68f8      	ldr	r0, [r7, #12]
 8005276:	f000 f810 	bl	800529a <UART_WaitOnFlagUntilTimeout>
 800527a:	4603      	mov	r3, r0
 800527c:	2b00      	cmp	r3, #0
 800527e:	d001      	beq.n	8005284 <HAL_UART_Transmit+0x10e>
    {
      return HAL_TIMEOUT;
 8005280:	2303      	movs	r3, #3
 8005282:	e006      	b.n	8005292 <HAL_UART_Transmit+0x11c>
    }

    /* At end of Tx process, restore huart->gState to Ready */
    huart->gState = HAL_UART_STATE_READY;
 8005284:	68fb      	ldr	r3, [r7, #12]
 8005286:	2220      	movs	r2, #32
 8005288:	f883 203d 	strb.w	r2, [r3, #61]	; 0x3d

    return HAL_OK;
 800528c:	2300      	movs	r3, #0
 800528e:	e000      	b.n	8005292 <HAL_UART_Transmit+0x11c>
  }
  else
  {
    return HAL_BUSY;
 8005290:	2302      	movs	r3, #2
  }
}
 8005292:	4618      	mov	r0, r3
 8005294:	3720      	adds	r7, #32
 8005296:	46bd      	mov	sp, r7
 8005298:	bd80      	pop	{r7, pc}

0800529a <UART_WaitOnFlagUntilTimeout>:
  * @param  Timeout Timeout duration
  * @retval HAL status
  */
static HAL_StatusTypeDef UART_WaitOnFlagUntilTimeout(UART_HandleTypeDef *huart, uint32_t Flag, FlagStatus Status,
                                                     uint32_t Tickstart, uint32_t Timeout)
{
 800529a:	b580      	push	{r7, lr}
 800529c:	b090      	sub	sp, #64	; 0x40
 800529e:	af00      	add	r7, sp, #0
 80052a0:	60f8      	str	r0, [r7, #12]
 80052a2:	60b9      	str	r1, [r7, #8]
 80052a4:	603b      	str	r3, [r7, #0]
 80052a6:	4613      	mov	r3, r2
 80052a8:	71fb      	strb	r3, [r7, #7]
  /* Wait until flag is set */
  while ((__HAL_UART_GET_FLAG(huart, Flag) ? SET : RESET) == Status)
 80052aa:	e050      	b.n	800534e <UART_WaitOnFlagUntilTimeout+0xb4>
  {
    /* Check for the Timeout */
    if (Timeout != HAL_MAX_DELAY)
 80052ac:	6cbb      	ldr	r3, [r7, #72]	; 0x48
 80052ae:	f1b3 3fff 	cmp.w	r3, #4294967295	; 0xffffffff
 80052b2:	d04c      	beq.n	800534e <UART_WaitOnFlagUntilTimeout+0xb4>
    {
      if ((Timeout == 0U) || ((HAL_GetTick() - Tickstart) > Timeout))
 80052b4:	6cbb      	ldr	r3, [r7, #72]	; 0x48
 80052b6:	2b00      	cmp	r3, #0
 80052b8:	d007      	beq.n	80052ca <UART_WaitOnFlagUntilTimeout+0x30>
 80052ba:	f7fd fc91 	bl	8002be0 <HAL_GetTick>
 80052be:	4602      	mov	r2, r0
 80052c0:	683b      	ldr	r3, [r7, #0]
 80052c2:	1ad3      	subs	r3, r2, r3
 80052c4:	6cba      	ldr	r2, [r7, #72]	; 0x48
 80052c6:	429a      	cmp	r2, r3
 80052c8:	d241      	bcs.n	800534e <UART_WaitOnFlagUntilTimeout+0xb4>
      {
        /* Disable TXE, RXNE, PE and ERR (Frame error, noise error, overrun error) interrupts for the interrupt process */
        ATOMIC_CLEAR_BIT(huart->Instance->CR1, (USART_CR1_RXNEIE | USART_CR1_PEIE | USART_CR1_TXEIE));
 80052ca:	68fb      	ldr	r3, [r7, #12]
 80052cc:	681b      	ldr	r3, [r3, #0]
 80052ce:	330c      	adds	r3, #12
 80052d0:	62bb      	str	r3, [r7, #40]	; 0x28
 */
__STATIC_FORCEINLINE uint32_t __LDREXW(volatile uint32_t *addr)
{
    uint32_t result;

   __ASM volatile ("ldrex %0, %1" : "=r" (result) : "Q" (*addr) );
 80052d2:	6abb      	ldr	r3, [r7, #40]	; 0x28
 80052d4:	e853 3f00 	ldrex	r3, [r3]
 80052d8:	627b      	str	r3, [r7, #36]	; 0x24
   return(result);
 80052da:	6a7b      	ldr	r3, [r7, #36]	; 0x24
 80052dc:	f423 73d0 	bic.w	r3, r3, #416	; 0x1a0
 80052e0:	63fb      	str	r3, [r7, #60]	; 0x3c
 80052e2:	68fb      	ldr	r3, [r7, #12]
 80052e4:	681b      	ldr	r3, [r3, #0]
 80052e6:	330c      	adds	r3, #12
 80052e8:	6bfa      	ldr	r2, [r7, #60]	; 0x3c
 80052ea:	637a      	str	r2, [r7, #52]	; 0x34
 80052ec:	633b      	str	r3, [r7, #48]	; 0x30
 */
__STATIC_FORCEINLINE uint32_t __STREXW(uint32_t value, volatile uint32_t *addr)
{
   uint32_t result;

   __ASM volatile ("strex %0, %2, %1" : "=&r" (result), "=Q" (*addr) : "r" (value) );
 80052ee:	6b39      	ldr	r1, [r7, #48]	; 0x30
 80052f0:	6b7a      	ldr	r2, [r7, #52]	; 0x34
 80052f2:	e841 2300 	strex	r3, r2, [r1]
 80052f6:	62fb      	str	r3, [r7, #44]	; 0x2c
   return(result);
 80052f8:	6afb      	ldr	r3, [r7, #44]	; 0x2c
 80052fa:	2b00      	cmp	r3, #0
 80052fc:	d1e5      	bne.n	80052ca <UART_WaitOnFlagUntilTimeout+0x30>
        ATOMIC_CLEAR_BIT(huart->Instance->CR3, USART_CR3_EIE);
 80052fe:	68fb      	ldr	r3, [r7, #12]
 8005300:	681b      	ldr	r3, [r3, #0]
 8005302:	3314      	adds	r3, #20
 8005304:	617b      	str	r3, [r7, #20]
   __ASM volatile ("ldrex %0, %1" : "=r" (result) : "Q" (*addr) );
 8005306:	697b      	ldr	r3, [r7, #20]
 8005308:	e853 3f00 	ldrex	r3, [r3]
 800530c:	613b      	str	r3, [r7, #16]
   return(result);
 800530e:	693b      	ldr	r3, [r7, #16]
 8005310:	f023 0301 	bic.w	r3, r3, #1
 8005314:	63bb      	str	r3, [r7, #56]	; 0x38
 8005316:	68fb      	ldr	r3, [r7, #12]
 8005318:	681b      	ldr	r3, [r3, #0]
 800531a:	3314      	adds	r3, #20
 800531c:	6bba      	ldr	r2, [r7, #56]	; 0x38
 800531e:	623a      	str	r2, [r7, #32]
 8005320:	61fb      	str	r3, [r7, #28]
   __ASM volatile ("strex %0, %2, %1" : "=&r" (result), "=Q" (*addr) : "r" (value) );
 8005322:	69f9      	ldr	r1, [r7, #28]
 8005324:	6a3a      	ldr	r2, [r7, #32]
 8005326:	e841 2300 	strex	r3, r2, [r1]
 800532a:	61bb      	str	r3, [r7, #24]
   return(result);
 800532c:	69bb      	ldr	r3, [r7, #24]
 800532e:	2b00      	cmp	r3, #0
 8005330:	d1e5      	bne.n	80052fe <UART_WaitOnFlagUntilTimeout+0x64>

        huart->gState  = HAL_UART_STATE_READY;
 8005332:	68fb      	ldr	r3, [r7, #12]
 8005334:	2220      	movs	r2, #32
 8005336:	f883 203d 	strb.w	r2, [r3, #61]	; 0x3d
        huart->RxState = HAL_UART_STATE_READY;
 800533a:	68fb      	ldr	r3, [r7, #12]
 800533c:	2220      	movs	r2, #32
 800533e:	f883 203e 	strb.w	r2, [r3, #62]	; 0x3e

        /* Process Unlocked */
        __HAL_UNLOCK(huart);
 8005342:	68fb      	ldr	r3, [r7, #12]
 8005344:	2200      	movs	r2, #0
 8005346:	f883 203c 	strb.w	r2, [r3, #60]	; 0x3c

        return HAL_TIMEOUT;
 800534a:	2303      	movs	r3, #3
 800534c:	e00f      	b.n	800536e <UART_WaitOnFlagUntilTimeout+0xd4>
  while ((__HAL_UART_GET_FLAG(huart, Flag) ? SET : RESET) == Status)
 800534e:	68fb      	ldr	r3, [r7, #12]
 8005350:	681b      	ldr	r3, [r3, #0]
 8005352:	681a      	ldr	r2, [r3, #0]
 8005354:	68bb      	ldr	r3, [r7, #8]
 8005356:	4013      	ands	r3, r2
 8005358:	68ba      	ldr	r2, [r7, #8]
 800535a:	429a      	cmp	r2, r3
 800535c:	bf0c      	ite	eq
 800535e:	2301      	moveq	r3, #1
 8005360:	2300      	movne	r3, #0
 8005362:	b2db      	uxtb	r3, r3
 8005364:	461a      	mov	r2, r3
 8005366:	79fb      	ldrb	r3, [r7, #7]
 8005368:	429a      	cmp	r2, r3
 800536a:	d09f      	beq.n	80052ac <UART_WaitOnFlagUntilTimeout+0x12>
      }
    }
  }
  return HAL_OK;
 800536c:	2300      	movs	r3, #0
}
 800536e:	4618      	mov	r0, r3
 8005370:	3740      	adds	r7, #64	; 0x40
 8005372:	46bd      	mov	sp, r7
 8005374:	bd80      	pop	{r7, pc}
	...

08005378 <UART_SetConfig>:
  * @param  huart  Pointer to a UART_HandleTypeDef structure that contains
  *                the configuration information for the specified UART module.
  * @retval None
  */
static void UART_SetConfig(UART_HandleTypeDef *huart)
{
 8005378:	e92d 4fb0 	stmdb	sp!, {r4, r5, r7, r8, r9, sl, fp, lr}
 800537c:	b0c0      	sub	sp, #256	; 0x100
 800537e:	af00      	add	r7, sp, #0
 8005380:	f8c7 00f4 	str.w	r0, [r7, #244]	; 0xf4
  assert_param(IS_UART_MODE(huart->Init.Mode));

  /*-------------------------- USART CR2 Configuration -----------------------*/
  /* Configure the UART Stop Bits: Set STOP[13:12] bits
     according to huart->Init.StopBits value */
  MODIFY_REG(huart->Instance->CR2, USART_CR2_STOP, huart->Init.StopBits);
 8005384:	f8d7 30f4 	ldr.w	r3, [r7, #244]	; 0xf4
 8005388:	681b      	ldr	r3, [r3, #0]
 800538a:	691b      	ldr	r3, [r3, #16]
 800538c:	f423 5040 	bic.w	r0, r3, #12288	; 0x3000
 8005390:	f8d7 30f4 	ldr.w	r3, [r7, #244]	; 0xf4
 8005394:	68d9      	ldr	r1, [r3, #12]
 8005396:	f8d7 30f4 	ldr.w	r3, [r7, #244]	; 0xf4
 800539a:	681a      	ldr	r2, [r3, #0]
 800539c:	ea40 0301 	orr.w	r3, r0, r1
 80053a0:	6113      	str	r3, [r2, #16]
     Set the M bits according to huart->Init.WordLength value
     Set PCE and PS bits according to huart->Init.Parity value
     Set TE and RE bits according to huart->Init.Mode value
     Set OVER8 bit according to huart->Init.OverSampling value */

  tmpreg = (uint32_t)huart->Init.WordLength | huart->Init.Parity | huart->Init.Mode | huart->Init.OverSampling;
 80053a2:	f8d7 30f4 	ldr.w	r3, [r7, #244]	; 0xf4
 80053a6:	689a      	ldr	r2, [r3, #8]
 80053a8:	f8d7 30f4 	ldr.w	r3, [r7, #244]	; 0xf4
 80053ac:	691b      	ldr	r3, [r3, #16]
 80053ae:	431a      	orrs	r2, r3
 80053b0:	f8d7 30f4 	ldr.w	r3, [r7, #244]	; 0xf4
 80053b4:	695b      	ldr	r3, [r3, #20]
 80053b6:	431a      	orrs	r2, r3
 80053b8:	f8d7 30f4 	ldr.w	r3, [r7, #244]	; 0xf4
 80053bc:	69db      	ldr	r3, [r3, #28]
 80053be:	4313      	orrs	r3, r2
 80053c0:	f8c7 30f8 	str.w	r3, [r7, #248]	; 0xf8
  MODIFY_REG(huart->Instance->CR1,
 80053c4:	f8d7 30f4 	ldr.w	r3, [r7, #244]	; 0xf4
 80053c8:	681b      	ldr	r3, [r3, #0]
 80053ca:	68db      	ldr	r3, [r3, #12]
 80053cc:	f423 4116 	bic.w	r1, r3, #38400	; 0x9600
 80053d0:	f021 010c 	bic.w	r1, r1, #12
 80053d4:	f8d7 30f4 	ldr.w	r3, [r7, #244]	; 0xf4
 80053d8:	681a      	ldr	r2, [r3, #0]
 80053da:	f8d7 30f8 	ldr.w	r3, [r7, #248]	; 0xf8
 80053de:	430b      	orrs	r3, r1
 80053e0:	60d3      	str	r3, [r2, #12]
             (uint32_t)(USART_CR1_M | USART_CR1_PCE | USART_CR1_PS | USART_CR1_TE | USART_CR1_RE | USART_CR1_OVER8),
             tmpreg);

  /*-------------------------- USART CR3 Configuration -----------------------*/
  /* Configure the UART HFC: Set CTSE and RTSE bits according to huart->Init.HwFlowCtl value */
  MODIFY_REG(huart->Instance->CR3, (USART_CR3_RTSE | USART_CR3_CTSE), huart->Init.HwFlowCtl);
 80053e2:	f8d7 30f4 	ldr.w	r3, [r7, #244]	; 0xf4
 80053e6:	681b      	ldr	r3, [r3, #0]
 80053e8:	695b      	ldr	r3, [r3, #20]
 80053ea:	f423 7040 	bic.w	r0, r3, #768	; 0x300
 80053ee:	f8d7 30f4 	ldr.w	r3, [r7, #244]	; 0xf4
 80053f2:	6999      	ldr	r1, [r3, #24]
 80053f4:	f8d7 30f4 	ldr.w	r3, [r7, #244]	; 0xf4
 80053f8:	681a      	ldr	r2, [r3, #0]
 80053fa:	ea40 0301 	orr.w	r3, r0, r1
 80053fe:	6153      	str	r3, [r2, #20]
    if ((huart->Instance == USART1) || (huart->Instance == USART6) || (huart->Instance == UART9) || (huart->Instance == UART10))
    {
      pclk = HAL_RCC_GetPCLK2Freq();
    }
#elif defined(USART6)
    if ((huart->Instance == USART1) || (huart->Instance == USART6))
 8005400:	f8d7 30f4 	ldr.w	r3, [r7, #244]	; 0xf4
 8005404:	681a      	ldr	r2, [r3, #0]
 8005406:	4b8f      	ldr	r3, [pc, #572]	; (8005644 <UART_SetConfig+0x2cc>)
 8005408:	429a      	cmp	r2, r3
 800540a:	d005      	beq.n	8005418 <UART_SetConfig+0xa0>
 800540c:	f8d7 30f4 	ldr.w	r3, [r7, #244]	; 0xf4
 8005410:	681a      	ldr	r2, [r3, #0]
 8005412:	4b8d      	ldr	r3, [pc, #564]	; (8005648 <UART_SetConfig+0x2d0>)
 8005414:	429a      	cmp	r2, r3
 8005416:	d104      	bne.n	8005422 <UART_SetConfig+0xaa>
    {
      pclk = HAL_RCC_GetPCLK2Freq();
 8005418:	f7ff f84e 	bl	80044b8 <HAL_RCC_GetPCLK2Freq>
 800541c:	f8c7 00fc 	str.w	r0, [r7, #252]	; 0xfc
 8005420:	e003      	b.n	800542a <UART_SetConfig+0xb2>
      pclk = HAL_RCC_GetPCLK2Freq();
    }
#endif /* USART6 */
    else
    {
      pclk = HAL_RCC_GetPCLK1Freq();
 8005422:	f7ff f835 	bl	8004490 <HAL_RCC_GetPCLK1Freq>
 8005426:	f8c7 00fc 	str.w	r0, [r7, #252]	; 0xfc
    }
  /*-------------------------- USART BRR Configuration ---------------------*/
  if (huart->Init.OverSampling == UART_OVERSAMPLING_8)
 800542a:	f8d7 30f4 	ldr.w	r3, [r7, #244]	; 0xf4
 800542e:	69db      	ldr	r3, [r3, #28]
 8005430:	f5b3 4f00 	cmp.w	r3, #32768	; 0x8000
 8005434:	f040 810c 	bne.w	8005650 <UART_SetConfig+0x2d8>
  {
    huart->Instance->BRR = UART_BRR_SAMPLING8(pclk, huart->Init.BaudRate);
 8005438:	f8d7 30fc 	ldr.w	r3, [r7, #252]	; 0xfc
 800543c:	2200      	movs	r2, #0
 800543e:	f8c7 30e8 	str.w	r3, [r7, #232]	; 0xe8
 8005442:	f8c7 20ec 	str.w	r2, [r7, #236]	; 0xec
 8005446:	e9d7 453a 	ldrd	r4, r5, [r7, #232]	; 0xe8
 800544a:	4622      	mov	r2, r4
 800544c:	462b      	mov	r3, r5
 800544e:	1891      	adds	r1, r2, r2
 8005450:	65b9      	str	r1, [r7, #88]	; 0x58
 8005452:	415b      	adcs	r3, r3
 8005454:	65fb      	str	r3, [r7, #92]	; 0x5c
 8005456:	e9d7 2316 	ldrd	r2, r3, [r7, #88]	; 0x58
 800545a:	4621      	mov	r1, r4
 800545c:	eb12 0801 	adds.w	r8, r2, r1
 8005460:	4629      	mov	r1, r5
 8005462:	eb43 0901 	adc.w	r9, r3, r1
 8005466:	f04f 0200 	mov.w	r2, #0
 800546a:	f04f 0300 	mov.w	r3, #0
 800546e:	ea4f 03c9 	mov.w	r3, r9, lsl #3
 8005472:	ea43 7358 	orr.w	r3, r3, r8, lsr #29
 8005476:	ea4f 02c8 	mov.w	r2, r8, lsl #3
 800547a:	4690      	mov	r8, r2
 800547c:	4699      	mov	r9, r3
 800547e:	4623      	mov	r3, r4
 8005480:	eb18 0303 	adds.w	r3, r8, r3
 8005484:	f8c7 30e0 	str.w	r3, [r7, #224]	; 0xe0
 8005488:	462b      	mov	r3, r5
 800548a:	eb49 0303 	adc.w	r3, r9, r3
 800548e:	f8c7 30e4 	str.w	r3, [r7, #228]	; 0xe4
 8005492:	f8d7 30f4 	ldr.w	r3, [r7, #244]	; 0xf4
 8005496:	685b      	ldr	r3, [r3, #4]
 8005498:	2200      	movs	r2, #0
 800549a:	f8c7 30d8 	str.w	r3, [r7, #216]	; 0xd8
 800549e:	f8c7 20dc 	str.w	r2, [r7, #220]	; 0xdc
 80054a2:	e9d7 1236 	ldrd	r1, r2, [r7, #216]	; 0xd8
 80054a6:	460b      	mov	r3, r1
 80054a8:	18db      	adds	r3, r3, r3
 80054aa:	653b      	str	r3, [r7, #80]	; 0x50
 80054ac:	4613      	mov	r3, r2
 80054ae:	eb42 0303 	adc.w	r3, r2, r3
 80054b2:	657b      	str	r3, [r7, #84]	; 0x54
 80054b4:	e9d7 2314 	ldrd	r2, r3, [r7, #80]	; 0x50
 80054b8:	e9d7 0138 	ldrd	r0, r1, [r7, #224]	; 0xe0
 80054bc:	f7fa fee0 	bl	8000280 <__aeabi_uldivmod>
 80054c0:	4602      	mov	r2, r0
 80054c2:	460b      	mov	r3, r1
 80054c4:	4b61      	ldr	r3, [pc, #388]	; (800564c <UART_SetConfig+0x2d4>)
 80054c6:	fba3 2302 	umull	r2, r3, r3, r2
 80054ca:	095b      	lsrs	r3, r3, #5
 80054cc:	011c      	lsls	r4, r3, #4
 80054ce:	f8d7 30fc 	ldr.w	r3, [r7, #252]	; 0xfc
 80054d2:	2200      	movs	r2, #0
 80054d4:	f8c7 30d0 	str.w	r3, [r7, #208]	; 0xd0
 80054d8:	f8c7 20d4 	str.w	r2, [r7, #212]	; 0xd4
 80054dc:	e9d7 8934 	ldrd	r8, r9, [r7, #208]	; 0xd0
 80054e0:	4642      	mov	r2, r8
 80054e2:	464b      	mov	r3, r9
 80054e4:	1891      	adds	r1, r2, r2
 80054e6:	64b9      	str	r1, [r7, #72]	; 0x48
 80054e8:	415b      	adcs	r3, r3
 80054ea:	64fb      	str	r3, [r7, #76]	; 0x4c
 80054ec:	e9d7 2312 	ldrd	r2, r3, [r7, #72]	; 0x48
 80054f0:	4641      	mov	r1, r8
 80054f2:	eb12 0a01 	adds.w	sl, r2, r1
 80054f6:	4649      	mov	r1, r9
 80054f8:	eb43 0b01 	adc.w	fp, r3, r1
 80054fc:	f04f 0200 	mov.w	r2, #0
 8005500:	f04f 0300 	mov.w	r3, #0
 8005504:	ea4f 03cb 	mov.w	r3, fp, lsl #3
 8005508:	ea43 735a 	orr.w	r3, r3, sl, lsr #29
 800550c:	ea4f 02ca 	mov.w	r2, sl, lsl #3
 8005510:	4692      	mov	sl, r2
 8005512:	469b      	mov	fp, r3
 8005514:	4643      	mov	r3, r8
 8005516:	eb1a 0303 	adds.w	r3, sl, r3
 800551a:	f8c7 30c8 	str.w	r3, [r7, #200]	; 0xc8
 800551e:	464b      	mov	r3, r9
 8005520:	eb4b 0303 	adc.w	r3, fp, r3
 8005524:	f8c7 30cc 	str.w	r3, [r7, #204]	; 0xcc
 8005528:	f8d7 30f4 	ldr.w	r3, [r7, #244]	; 0xf4
 800552c:	685b      	ldr	r3, [r3, #4]
 800552e:	2200      	movs	r2, #0
 8005530:	f8c7 30c0 	str.w	r3, [r7, #192]	; 0xc0
 8005534:	f8c7 20c4 	str.w	r2, [r7, #196]	; 0xc4
 8005538:	e9d7 1230 	ldrd	r1, r2, [r7, #192]	; 0xc0
 800553c:	460b      	mov	r3, r1
 800553e:	18db      	adds	r3, r3, r3
 8005540:	643b      	str	r3, [r7, #64]	; 0x40
 8005542:	4613      	mov	r3, r2
 8005544:	eb42 0303 	adc.w	r3, r2, r3
 8005548:	647b      	str	r3, [r7, #68]	; 0x44
 800554a:	e9d7 2310 	ldrd	r2, r3, [r7, #64]	; 0x40
 800554e:	e9d7 0132 	ldrd	r0, r1, [r7, #200]	; 0xc8
 8005552:	f7fa fe95 	bl	8000280 <__aeabi_uldivmod>
 8005556:	4602      	mov	r2, r0
 8005558:	460b      	mov	r3, r1
 800555a:	4611      	mov	r1, r2
 800555c:	4b3b      	ldr	r3, [pc, #236]	; (800564c <UART_SetConfig+0x2d4>)
 800555e:	fba3 2301 	umull	r2, r3, r3, r1
 8005562:	095b      	lsrs	r3, r3, #5
 8005564:	2264      	movs	r2, #100	; 0x64
 8005566:	fb02 f303 	mul.w	r3, r2, r3
 800556a:	1acb      	subs	r3, r1, r3
 800556c:	00db      	lsls	r3, r3, #3
 800556e:	f103 0232 	add.w	r2, r3, #50	; 0x32
 8005572:	4b36      	ldr	r3, [pc, #216]	; (800564c <UART_SetConfig+0x2d4>)
 8005574:	fba3 2302 	umull	r2, r3, r3, r2
 8005578:	095b      	lsrs	r3, r3, #5
 800557a:	005b      	lsls	r3, r3, #1
 800557c:	f403 73f8 	and.w	r3, r3, #496	; 0x1f0
 8005580:	441c      	add	r4, r3
 8005582:	f8d7 30fc 	ldr.w	r3, [r7, #252]	; 0xfc
 8005586:	2200      	movs	r2, #0
 8005588:	f8c7 30b8 	str.w	r3, [r7, #184]	; 0xb8
 800558c:	f8c7 20bc 	str.w	r2, [r7, #188]	; 0xbc
 8005590:	e9d7 892e 	ldrd	r8, r9, [r7, #184]	; 0xb8
 8005594:	4642      	mov	r2, r8
 8005596:	464b      	mov	r3, r9
 8005598:	1891      	adds	r1, r2, r2
 800559a:	63b9      	str	r1, [r7, #56]	; 0x38
 800559c:	415b      	adcs	r3, r3
 800559e:	63fb      	str	r3, [r7, #60]	; 0x3c
 80055a0:	e9d7 230e 	ldrd	r2, r3, [r7, #56]	; 0x38
 80055a4:	4641      	mov	r1, r8
 80055a6:	1851      	adds	r1, r2, r1
 80055a8:	6339      	str	r1, [r7, #48]	; 0x30
 80055aa:	4649      	mov	r1, r9
 80055ac:	414b      	adcs	r3, r1
 80055ae:	637b      	str	r3, [r7, #52]	; 0x34
 80055b0:	f04f 0200 	mov.w	r2, #0
 80055b4:	f04f 0300 	mov.w	r3, #0
 80055b8:	e9d7 ab0c 	ldrd	sl, fp, [r7, #48]	; 0x30
 80055bc:	4659      	mov	r1, fp
 80055be:	00cb      	lsls	r3, r1, #3
 80055c0:	4651      	mov	r1, sl
 80055c2:	ea43 7351 	orr.w	r3, r3, r1, lsr #29
 80055c6:	4651      	mov	r1, sl
 80055c8:	00ca      	lsls	r2, r1, #3
 80055ca:	4610      	mov	r0, r2
 80055cc:	4619      	mov	r1, r3
 80055ce:	4603      	mov	r3, r0
 80055d0:	4642      	mov	r2, r8
 80055d2:	189b      	adds	r3, r3, r2
 80055d4:	f8c7 30b0 	str.w	r3, [r7, #176]	; 0xb0
 80055d8:	464b      	mov	r3, r9
 80055da:	460a      	mov	r2, r1
 80055dc:	eb42 0303 	adc.w	r3, r2, r3
 80055e0:	f8c7 30b4 	str.w	r3, [r7, #180]	; 0xb4
 80055e4:	f8d7 30f4 	ldr.w	r3, [r7, #244]	; 0xf4
 80055e8:	685b      	ldr	r3, [r3, #4]
 80055ea:	2200      	movs	r2, #0
 80055ec:	f8c7 30a8 	str.w	r3, [r7, #168]	; 0xa8
 80055f0:	f8c7 20ac 	str.w	r2, [r7, #172]	; 0xac
 80055f4:	e9d7 122a 	ldrd	r1, r2, [r7, #168]	; 0xa8
 80055f8:	460b      	mov	r3, r1
 80055fa:	18db      	adds	r3, r3, r3
 80055fc:	62bb      	str	r3, [r7, #40]	; 0x28
 80055fe:	4613      	mov	r3, r2
 8005600:	eb42 0303 	adc.w	r3, r2, r3
 8005604:	62fb      	str	r3, [r7, #44]	; 0x2c
 8005606:	e9d7 230a 	ldrd	r2, r3, [r7, #40]	; 0x28
 800560a:	e9d7 012c 	ldrd	r0, r1, [r7, #176]	; 0xb0
 800560e:	f7fa fe37 	bl	8000280 <__aeabi_uldivmod>
 8005612:	4602      	mov	r2, r0
 8005614:	460b      	mov	r3, r1
 8005616:	4b0d      	ldr	r3, [pc, #52]	; (800564c <UART_SetConfig+0x2d4>)
 8005618:	fba3 1302 	umull	r1, r3, r3, r2
 800561c:	095b      	lsrs	r3, r3, #5
 800561e:	2164      	movs	r1, #100	; 0x64
 8005620:	fb01 f303 	mul.w	r3, r1, r3
 8005624:	1ad3      	subs	r3, r2, r3
 8005626:	00db      	lsls	r3, r3, #3
 8005628:	3332      	adds	r3, #50	; 0x32
 800562a:	4a08      	ldr	r2, [pc, #32]	; (800564c <UART_SetConfig+0x2d4>)
 800562c:	fba2 2303 	umull	r2, r3, r2, r3
 8005630:	095b      	lsrs	r3, r3, #5
 8005632:	f003 0207 	and.w	r2, r3, #7
 8005636:	f8d7 30f4 	ldr.w	r3, [r7, #244]	; 0xf4
 800563a:	681b      	ldr	r3, [r3, #0]
 800563c:	4422      	add	r2, r4
 800563e:	609a      	str	r2, [r3, #8]
  }
  else
  {
    huart->Instance->BRR = UART_BRR_SAMPLING16(pclk, huart->Init.BaudRate);
  }
}
 8005640:	e105      	b.n	800584e <UART_SetConfig+0x4d6>
 8005642:	bf00      	nop
 8005644:	40011000 	.word	0x40011000
 8005648:	40011400 	.word	0x40011400
 800564c:	51eb851f 	.word	0x51eb851f
    huart->Instance->BRR = UART_BRR_SAMPLING16(pclk, huart->Init.BaudRate);
 8005650:	f8d7 30fc 	ldr.w	r3, [r7, #252]	; 0xfc
 8005654:	2200      	movs	r2, #0
 8005656:	f8c7 30a0 	str.w	r3, [r7, #160]	; 0xa0
 800565a:	f8c7 20a4 	str.w	r2, [r7, #164]	; 0xa4
 800565e:	e9d7 8928 	ldrd	r8, r9, [r7, #160]	; 0xa0
 8005662:	4642      	mov	r2, r8
 8005664:	464b      	mov	r3, r9
 8005666:	1891      	adds	r1, r2, r2
 8005668:	6239      	str	r1, [r7, #32]
 800566a:	415b      	adcs	r3, r3
 800566c:	627b      	str	r3, [r7, #36]	; 0x24
 800566e:	e9d7 2308 	ldrd	r2, r3, [r7, #32]
 8005672:	4641      	mov	r1, r8
 8005674:	1854      	adds	r4, r2, r1
 8005676:	4649      	mov	r1, r9
 8005678:	eb43 0501 	adc.w	r5, r3, r1
 800567c:	f04f 0200 	mov.w	r2, #0
 8005680:	f04f 0300 	mov.w	r3, #0
 8005684:	00eb      	lsls	r3, r5, #3
 8005686:	ea43 7354 	orr.w	r3, r3, r4, lsr #29
 800568a:	00e2      	lsls	r2, r4, #3
 800568c:	4614      	mov	r4, r2
 800568e:	461d      	mov	r5, r3
 8005690:	4643      	mov	r3, r8
 8005692:	18e3      	adds	r3, r4, r3
 8005694:	f8c7 3098 	str.w	r3, [r7, #152]	; 0x98
 8005698:	464b      	mov	r3, r9
 800569a:	eb45 0303 	adc.w	r3, r5, r3
 800569e:	f8c7 309c 	str.w	r3, [r7, #156]	; 0x9c
 80056a2:	f8d7 30f4 	ldr.w	r3, [r7, #244]	; 0xf4
 80056a6:	685b      	ldr	r3, [r3, #4]
 80056a8:	2200      	movs	r2, #0
 80056aa:	f8c7 3090 	str.w	r3, [r7, #144]	; 0x90
 80056ae:	f8c7 2094 	str.w	r2, [r7, #148]	; 0x94
 80056b2:	f04f 0200 	mov.w	r2, #0
 80056b6:	f04f 0300 	mov.w	r3, #0
 80056ba:	e9d7 4524 	ldrd	r4, r5, [r7, #144]	; 0x90
 80056be:	4629      	mov	r1, r5
 80056c0:	008b      	lsls	r3, r1, #2
 80056c2:	4621      	mov	r1, r4
 80056c4:	ea43 7391 	orr.w	r3, r3, r1, lsr #30
 80056c8:	4621      	mov	r1, r4
 80056ca:	008a      	lsls	r2, r1, #2
 80056cc:	e9d7 0126 	ldrd	r0, r1, [r7, #152]	; 0x98
 80056d0:	f7fa fdd6 	bl	8000280 <__aeabi_uldivmod>
 80056d4:	4602      	mov	r2, r0
 80056d6:	460b      	mov	r3, r1
 80056d8:	4b60      	ldr	r3, [pc, #384]	; (800585c <UART_SetConfig+0x4e4>)
 80056da:	fba3 2302 	umull	r2, r3, r3, r2
 80056de:	095b      	lsrs	r3, r3, #5
 80056e0:	011c      	lsls	r4, r3, #4
 80056e2:	f8d7 30fc 	ldr.w	r3, [r7, #252]	; 0xfc
 80056e6:	2200      	movs	r2, #0
 80056e8:	f8c7 3088 	str.w	r3, [r7, #136]	; 0x88
 80056ec:	f8c7 208c 	str.w	r2, [r7, #140]	; 0x8c
 80056f0:	e9d7 8922 	ldrd	r8, r9, [r7, #136]	; 0x88
 80056f4:	4642      	mov	r2, r8
 80056f6:	464b      	mov	r3, r9
 80056f8:	1891      	adds	r1, r2, r2
 80056fa:	61b9      	str	r1, [r7, #24]
 80056fc:	415b      	adcs	r3, r3
 80056fe:	61fb      	str	r3, [r7, #28]
 8005700:	e9d7 2306 	ldrd	r2, r3, [r7, #24]
 8005704:	4641      	mov	r1, r8
 8005706:	1851      	adds	r1, r2, r1
 8005708:	6139      	str	r1, [r7, #16]
 800570a:	4649      	mov	r1, r9
 800570c:	414b      	adcs	r3, r1
 800570e:	617b      	str	r3, [r7, #20]
 8005710:	f04f 0200 	mov.w	r2, #0
 8005714:	f04f 0300 	mov.w	r3, #0
 8005718:	e9d7 ab04 	ldrd	sl, fp, [r7, #16]
 800571c:	4659      	mov	r1, fp
 800571e:	00cb      	lsls	r3, r1, #3
 8005720:	4651      	mov	r1, sl
 8005722:	ea43 7351 	orr.w	r3, r3, r1, lsr #29
 8005726:	4651      	mov	r1, sl
 8005728:	00ca      	lsls	r2, r1, #3
 800572a:	4610      	mov	r0, r2
 800572c:	4619      	mov	r1, r3
 800572e:	4603      	mov	r3, r0
 8005730:	4642      	mov	r2, r8
 8005732:	189b      	adds	r3, r3, r2
 8005734:	f8c7 3080 	str.w	r3, [r7, #128]	; 0x80
 8005738:	464b      	mov	r3, r9
 800573a:	460a      	mov	r2, r1
 800573c:	eb42 0303 	adc.w	r3, r2, r3
 8005740:	f8c7 3084 	str.w	r3, [r7, #132]	; 0x84
 8005744:	f8d7 30f4 	ldr.w	r3, [r7, #244]	; 0xf4
 8005748:	685b      	ldr	r3, [r3, #4]
 800574a:	2200      	movs	r2, #0
 800574c:	67bb      	str	r3, [r7, #120]	; 0x78
 800574e:	67fa      	str	r2, [r7, #124]	; 0x7c
 8005750:	f04f 0200 	mov.w	r2, #0
 8005754:	f04f 0300 	mov.w	r3, #0
 8005758:	e9d7 891e 	ldrd	r8, r9, [r7, #120]	; 0x78
 800575c:	4649      	mov	r1, r9
 800575e:	008b      	lsls	r3, r1, #2
 8005760:	4641      	mov	r1, r8
 8005762:	ea43 7391 	orr.w	r3, r3, r1, lsr #30
 8005766:	4641      	mov	r1, r8
 8005768:	008a      	lsls	r2, r1, #2
 800576a:	e9d7 0120 	ldrd	r0, r1, [r7, #128]	; 0x80
 800576e:	f7fa fd87 	bl	8000280 <__aeabi_uldivmod>
 8005772:	4602      	mov	r2, r0
 8005774:	460b      	mov	r3, r1
 8005776:	4b39      	ldr	r3, [pc, #228]	; (800585c <UART_SetConfig+0x4e4>)
 8005778:	fba3 1302 	umull	r1, r3, r3, r2
 800577c:	095b      	lsrs	r3, r3, #5
 800577e:	2164      	movs	r1, #100	; 0x64
 8005780:	fb01 f303 	mul.w	r3, r1, r3
 8005784:	1ad3      	subs	r3, r2, r3
 8005786:	011b      	lsls	r3, r3, #4
 8005788:	3332      	adds	r3, #50	; 0x32
 800578a:	4a34      	ldr	r2, [pc, #208]	; (800585c <UART_SetConfig+0x4e4>)
 800578c:	fba2 2303 	umull	r2, r3, r2, r3
 8005790:	095b      	lsrs	r3, r3, #5
 8005792:	f003 03f0 	and.w	r3, r3, #240	; 0xf0
 8005796:	441c      	add	r4, r3
 8005798:	f8d7 30fc 	ldr.w	r3, [r7, #252]	; 0xfc
 800579c:	2200      	movs	r2, #0
 800579e:	673b      	str	r3, [r7, #112]	; 0x70
 80057a0:	677a      	str	r2, [r7, #116]	; 0x74
 80057a2:	e9d7 891c 	ldrd	r8, r9, [r7, #112]	; 0x70
 80057a6:	4642      	mov	r2, r8
 80057a8:	464b      	mov	r3, r9
 80057aa:	1891      	adds	r1, r2, r2
 80057ac:	60b9      	str	r1, [r7, #8]
 80057ae:	415b      	adcs	r3, r3
 80057b0:	60fb      	str	r3, [r7, #12]
 80057b2:	e9d7 2302 	ldrd	r2, r3, [r7, #8]
 80057b6:	4641      	mov	r1, r8
 80057b8:	1851      	adds	r1, r2, r1
 80057ba:	6039      	str	r1, [r7, #0]
 80057bc:	4649      	mov	r1, r9
 80057be:	414b      	adcs	r3, r1
 80057c0:	607b      	str	r3, [r7, #4]
 80057c2:	f04f 0200 	mov.w	r2, #0
 80057c6:	f04f 0300 	mov.w	r3, #0
 80057ca:	e9d7 ab00 	ldrd	sl, fp, [r7]
 80057ce:	4659      	mov	r1, fp
 80057d0:	00cb      	lsls	r3, r1, #3
 80057d2:	4651      	mov	r1, sl
 80057d4:	ea43 7351 	orr.w	r3, r3, r1, lsr #29
 80057d8:	4651      	mov	r1, sl
 80057da:	00ca      	lsls	r2, r1, #3
 80057dc:	4610      	mov	r0, r2
 80057de:	4619      	mov	r1, r3
 80057e0:	4603      	mov	r3, r0
 80057e2:	4642      	mov	r2, r8
 80057e4:	189b      	adds	r3, r3, r2
 80057e6:	66bb      	str	r3, [r7, #104]	; 0x68
 80057e8:	464b      	mov	r3, r9
 80057ea:	460a      	mov	r2, r1
 80057ec:	eb42 0303 	adc.w	r3, r2, r3
 80057f0:	66fb      	str	r3, [r7, #108]	; 0x6c
 80057f2:	f8d7 30f4 	ldr.w	r3, [r7, #244]	; 0xf4
 80057f6:	685b      	ldr	r3, [r3, #4]
 80057f8:	2200      	movs	r2, #0
 80057fa:	663b      	str	r3, [r7, #96]	; 0x60
 80057fc:	667a      	str	r2, [r7, #100]	; 0x64
 80057fe:	f04f 0200 	mov.w	r2, #0
 8005802:	f04f 0300 	mov.w	r3, #0
 8005806:	e9d7 8918 	ldrd	r8, r9, [r7, #96]	; 0x60
 800580a:	4649      	mov	r1, r9
 800580c:	008b      	lsls	r3, r1, #2
 800580e:	4641      	mov	r1, r8
 8005810:	ea43 7391 	orr.w	r3, r3, r1, lsr #30
 8005814:	4641      	mov	r1, r8
 8005816:	008a      	lsls	r2, r1, #2
 8005818:	e9d7 011a 	ldrd	r0, r1, [r7, #104]	; 0x68
 800581c:	f7fa fd30 	bl	8000280 <__aeabi_uldivmod>
 8005820:	4602      	mov	r2, r0
 8005822:	460b      	mov	r3, r1
 8005824:	4b0d      	ldr	r3, [pc, #52]	; (800585c <UART_SetConfig+0x4e4>)
 8005826:	fba3 1302 	umull	r1, r3, r3, r2
 800582a:	095b      	lsrs	r3, r3, #5
 800582c:	2164      	movs	r1, #100	; 0x64
 800582e:	fb01 f303 	mul.w	r3, r1, r3
 8005832:	1ad3      	subs	r3, r2, r3
 8005834:	011b      	lsls	r3, r3, #4
 8005836:	3332      	adds	r3, #50	; 0x32
 8005838:	4a08      	ldr	r2, [pc, #32]	; (800585c <UART_SetConfig+0x4e4>)
 800583a:	fba2 2303 	umull	r2, r3, r2, r3
 800583e:	095b      	lsrs	r3, r3, #5
 8005840:	f003 020f 	and.w	r2, r3, #15
 8005844:	f8d7 30f4 	ldr.w	r3, [r7, #244]	; 0xf4
 8005848:	681b      	ldr	r3, [r3, #0]
 800584a:	4422      	add	r2, r4
 800584c:	609a      	str	r2, [r3, #8]
}
 800584e:	bf00      	nop
 8005850:	f507 7780 	add.w	r7, r7, #256	; 0x100
 8005854:	46bd      	mov	sp, r7
 8005856:	e8bd 8fb0 	ldmia.w	sp!, {r4, r5, r7, r8, r9, sl, fp, pc}
 800585a:	bf00      	nop
 800585c:	51eb851f 	.word	0x51eb851f

08005860 <vListInitialise>:
/*-----------------------------------------------------------
 * PUBLIC LIST API documented in list.h
 *----------------------------------------------------------*/

void vListInitialise( List_t * const pxList )
{
 8005860:	b480      	push	{r7}
 8005862:	b083      	sub	sp, #12
 8005864:	af00      	add	r7, sp, #0
 8005866:	6078      	str	r0, [r7, #4]
	/* The list structure contains a list item which is used to mark the
	end of the list.  To initialise the list the list end is inserted
	as the only list entry. */
	pxList->pxIndex = ( ListItem_t * ) &( pxList->xListEnd );			/*lint !e826 !e740 !e9087 The mini list structure is used as the list end to save RAM.  This is checked and valid. */
 8005868:	687b      	ldr	r3, [r7, #4]
 800586a:	f103 0208 	add.w	r2, r3, #8
 800586e:	687b      	ldr	r3, [r7, #4]
 8005870:	605a      	str	r2, [r3, #4]

	/* The list end value is the highest possible value in the list to
	ensure it remains at the end of the list. */
	pxList->xListEnd.xItemValue = portMAX_DELAY;
 8005872:	687b      	ldr	r3, [r7, #4]
 8005874:	f04f 32ff 	mov.w	r2, #4294967295	; 0xffffffff
 8005878:	609a      	str	r2, [r3, #8]

	/* The list end next and previous pointers point to itself so we know
	when the list is empty. */
	pxList->xListEnd.pxNext = ( ListItem_t * ) &( pxList->xListEnd );	/*lint !e826 !e740 !e9087 The mini list structure is used as the list end to save RAM.  This is checked and valid. */
 800587a:	687b      	ldr	r3, [r7, #4]
 800587c:	f103 0208 	add.w	r2, r3, #8
 8005880:	687b      	ldr	r3, [r7, #4]
 8005882:	60da      	str	r2, [r3, #12]
	pxList->xListEnd.pxPrevious = ( ListItem_t * ) &( pxList->xListEnd );/*lint !e826 !e740 !e9087 The mini list structure is used as the list end to save RAM.  This is checked and valid. */
 8005884:	687b      	ldr	r3, [r7, #4]
 8005886:	f103 0208 	add.w	r2, r3, #8
 800588a:	687b      	ldr	r3, [r7, #4]
 800588c:	611a      	str	r2, [r3, #16]

	pxList->uxNumberOfItems = ( UBaseType_t ) 0U;
 800588e:	687b      	ldr	r3, [r7, #4]
 8005890:	2200      	movs	r2, #0
 8005892:	601a      	str	r2, [r3, #0]

	/* Write known values into the list if
	configUSE_LIST_DATA_INTEGRITY_CHECK_BYTES is set to 1. */
	listSET_LIST_INTEGRITY_CHECK_1_VALUE( pxList );
	listSET_LIST_INTEGRITY_CHECK_2_VALUE( pxList );
}
 8005894:	bf00      	nop
 8005896:	370c      	adds	r7, #12
 8005898:	46bd      	mov	sp, r7
 800589a:	f85d 7b04 	ldr.w	r7, [sp], #4
 800589e:	4770      	bx	lr

080058a0 <vListInitialiseItem>:
/*-----------------------------------------------------------*/

void vListInitialiseItem( ListItem_t * const pxItem )
{
 80058a0:	b480      	push	{r7}
 80058a2:	b083      	sub	sp, #12
 80058a4:	af00      	add	r7, sp, #0
 80058a6:	6078      	str	r0, [r7, #4]
	/* Make sure the list item is not recorded as being on a list. */
	pxItem->pxContainer = NULL;
 80058a8:	687b      	ldr	r3, [r7, #4]
 80058aa:	2200      	movs	r2, #0
 80058ac:	611a      	str	r2, [r3, #16]

	/* Write known values into the list item if
	configUSE_LIST_DATA_INTEGRITY_CHECK_BYTES is set to 1. */
	listSET_FIRST_LIST_ITEM_INTEGRITY_CHECK_VALUE( pxItem );
	listSET_SECOND_LIST_ITEM_INTEGRITY_CHECK_VALUE( pxItem );
}
 80058ae:	bf00      	nop
 80058b0:	370c      	adds	r7, #12
 80058b2:	46bd      	mov	sp, r7
 80058b4:	f85d 7b04 	ldr.w	r7, [sp], #4
 80058b8:	4770      	bx	lr

080058ba <vListInsertEnd>:
/*-----------------------------------------------------------*/

void vListInsertEnd( List_t * const pxList, ListItem_t * const pxNewListItem )
{
 80058ba:	b480      	push	{r7}
 80058bc:	b085      	sub	sp, #20
 80058be:	af00      	add	r7, sp, #0
 80058c0:	6078      	str	r0, [r7, #4]
 80058c2:	6039      	str	r1, [r7, #0]
ListItem_t * const pxIndex = pxList->pxIndex;
 80058c4:	687b      	ldr	r3, [r7, #4]
 80058c6:	685b      	ldr	r3, [r3, #4]
 80058c8:	60fb      	str	r3, [r7, #12]
	listTEST_LIST_ITEM_INTEGRITY( pxNewListItem );

	/* Insert a new list item into pxList, but rather than sort the list,
	makes the new list item the last item to be removed by a call to
	listGET_OWNER_OF_NEXT_ENTRY(). */
	pxNewListItem->pxNext = pxIndex;
 80058ca:	683b      	ldr	r3, [r7, #0]
 80058cc:	68fa      	ldr	r2, [r7, #12]
 80058ce:	605a      	str	r2, [r3, #4]
	pxNewListItem->pxPrevious = pxIndex->pxPrevious;
 80058d0:	68fb      	ldr	r3, [r7, #12]
 80058d2:	689a      	ldr	r2, [r3, #8]
 80058d4:	683b      	ldr	r3, [r7, #0]
 80058d6:	609a      	str	r2, [r3, #8]

	/* Only used during decision coverage testing. */
	mtCOVERAGE_TEST_DELAY();

	pxIndex->pxPrevious->pxNext = pxNewListItem;
 80058d8:	68fb      	ldr	r3, [r7, #12]
 80058da:	689b      	ldr	r3, [r3, #8]
 80058dc:	683a      	ldr	r2, [r7, #0]
 80058de:	605a      	str	r2, [r3, #4]
	pxIndex->pxPrevious = pxNewListItem;
 80058e0:	68fb      	ldr	r3, [r7, #12]
 80058e2:	683a      	ldr	r2, [r7, #0]
 80058e4:	609a      	str	r2, [r3, #8]

	/* Remember which list the item is in. */
	pxNewListItem->pxContainer = pxList;
 80058e6:	683b      	ldr	r3, [r7, #0]
 80058e8:	687a      	ldr	r2, [r7, #4]
 80058ea:	611a      	str	r2, [r3, #16]

	( pxList->uxNumberOfItems )++;
 80058ec:	687b      	ldr	r3, [r7, #4]
 80058ee:	681b      	ldr	r3, [r3, #0]
 80058f0:	1c5a      	adds	r2, r3, #1
 80058f2:	687b      	ldr	r3, [r7, #4]
 80058f4:	601a      	str	r2, [r3, #0]
}
 80058f6:	bf00      	nop
 80058f8:	3714      	adds	r7, #20
 80058fa:	46bd      	mov	sp, r7
 80058fc:	f85d 7b04 	ldr.w	r7, [sp], #4
 8005900:	4770      	bx	lr

08005902 <vListInsert>:
/*-----------------------------------------------------------*/

void vListInsert( List_t * const pxList, ListItem_t * const pxNewListItem )
{
 8005902:	b480      	push	{r7}
 8005904:	b085      	sub	sp, #20
 8005906:	af00      	add	r7, sp, #0
 8005908:	6078      	str	r0, [r7, #4]
 800590a:	6039      	str	r1, [r7, #0]
ListItem_t *pxIterator;
const TickType_t xValueOfInsertion = pxNewListItem->xItemValue;
 800590c:	683b      	ldr	r3, [r7, #0]
 800590e:	681b      	ldr	r3, [r3, #0]
 8005910:	60bb      	str	r3, [r7, #8]
	new list item should be placed after it.  This ensures that TCBs which are
	stored in ready lists (all of which have the same xItemValue value) get a
	share of the CPU.  However, if the xItemValue is the same as the back marker
	the iteration loop below will not end.  Therefore the value is checked
	first, and the algorithm slightly modified if necessary. */
	if( xValueOfInsertion == portMAX_DELAY )
 8005912:	68bb      	ldr	r3, [r7, #8]
 8005914:	f1b3 3fff 	cmp.w	r3, #4294967295	; 0xffffffff
 8005918:	d103      	bne.n	8005922 <vListInsert+0x20>
	{
		pxIterator = pxList->xListEnd.pxPrevious;
 800591a:	687b      	ldr	r3, [r7, #4]
 800591c:	691b      	ldr	r3, [r3, #16]
 800591e:	60fb      	str	r3, [r7, #12]
 8005920:	e00c      	b.n	800593c <vListInsert+0x3a>
			4) Using a queue or semaphore before it has been initialised or
			   before the scheduler has been started (are interrupts firing
			   before vTaskStartScheduler() has been called?).
		**********************************************************************/

		for( pxIterator = ( ListItem_t * ) &( pxList->xListEnd ); pxIterator->pxNext->xItemValue <= xValueOfInsertion; pxIterator = pxIterator->pxNext ) /*lint !e826 !e740 !e9087 The mini list structure is used as the list end to save RAM.  This is checked and valid. *//*lint !e440 The iterator moves to a different value, not xValueOfInsertion. */
 8005922:	687b      	ldr	r3, [r7, #4]
 8005924:	3308      	adds	r3, #8
 8005926:	60fb      	str	r3, [r7, #12]
 8005928:	e002      	b.n	8005930 <vListInsert+0x2e>
 800592a:	68fb      	ldr	r3, [r7, #12]
 800592c:	685b      	ldr	r3, [r3, #4]
 800592e:	60fb      	str	r3, [r7, #12]
 8005930:	68fb      	ldr	r3, [r7, #12]
 8005932:	685b      	ldr	r3, [r3, #4]
 8005934:	681b      	ldr	r3, [r3, #0]
 8005936:	68ba      	ldr	r2, [r7, #8]
 8005938:	429a      	cmp	r2, r3
 800593a:	d2f6      	bcs.n	800592a <vListInsert+0x28>
			/* There is nothing to do here, just iterating to the wanted
			insertion position. */
		}
	}

	pxNewListItem->pxNext = pxIterator->pxNext;
 800593c:	68fb      	ldr	r3, [r7, #12]
 800593e:	685a      	ldr	r2, [r3, #4]
 8005940:	683b      	ldr	r3, [r7, #0]
 8005942:	605a      	str	r2, [r3, #4]
	pxNewListItem->pxNext->pxPrevious = pxNewListItem;
 8005944:	683b      	ldr	r3, [r7, #0]
 8005946:	685b      	ldr	r3, [r3, #4]
 8005948:	683a      	ldr	r2, [r7, #0]
 800594a:	609a      	str	r2, [r3, #8]
	pxNewListItem->pxPrevious = pxIterator;
 800594c:	683b      	ldr	r3, [r7, #0]
 800594e:	68fa      	ldr	r2, [r7, #12]
 8005950:	609a      	str	r2, [r3, #8]
	pxIterator->pxNext = pxNewListItem;
 8005952:	68fb      	ldr	r3, [r7, #12]
 8005954:	683a      	ldr	r2, [r7, #0]
 8005956:	605a      	str	r2, [r3, #4]

	/* Remember which list the item is in.  This allows fast removal of the
	item later. */
	pxNewListItem->pxContainer = pxList;
 8005958:	683b      	ldr	r3, [r7, #0]
 800595a:	687a      	ldr	r2, [r7, #4]
 800595c:	611a      	str	r2, [r3, #16]

	( pxList->uxNumberOfItems )++;
 800595e:	687b      	ldr	r3, [r7, #4]
 8005960:	681b      	ldr	r3, [r3, #0]
 8005962:	1c5a      	adds	r2, r3, #1
 8005964:	687b      	ldr	r3, [r7, #4]
 8005966:	601a      	str	r2, [r3, #0]
}
 8005968:	bf00      	nop
 800596a:	3714      	adds	r7, #20
 800596c:	46bd      	mov	sp, r7
 800596e:	f85d 7b04 	ldr.w	r7, [sp], #4
 8005972:	4770      	bx	lr

08005974 <uxListRemove>:
/*-----------------------------------------------------------*/

UBaseType_t uxListRemove( ListItem_t * const pxItemToRemove )
{
 8005974:	b480      	push	{r7}
 8005976:	b085      	sub	sp, #20
 8005978:	af00      	add	r7, sp, #0
 800597a:	6078      	str	r0, [r7, #4]
/* The list item knows which list it is in.  Obtain the list from the list
item. */
List_t * const pxList = pxItemToRemove->pxContainer;
 800597c:	687b      	ldr	r3, [r7, #4]
 800597e:	691b      	ldr	r3, [r3, #16]
 8005980:	60fb      	str	r3, [r7, #12]

	pxItemToRemove->pxNext->pxPrevious = pxItemToRemove->pxPrevious;
 8005982:	687b      	ldr	r3, [r7, #4]
 8005984:	685b      	ldr	r3, [r3, #4]
 8005986:	687a      	ldr	r2, [r7, #4]
 8005988:	6892      	ldr	r2, [r2, #8]
 800598a:	609a      	str	r2, [r3, #8]
	pxItemToRemove->pxPrevious->pxNext = pxItemToRemove->pxNext;
 800598c:	687b      	ldr	r3, [r7, #4]
 800598e:	689b      	ldr	r3, [r3, #8]
 8005990:	687a      	ldr	r2, [r7, #4]
 8005992:	6852      	ldr	r2, [r2, #4]
 8005994:	605a      	str	r2, [r3, #4]

	/* Only used during decision coverage testing. */
	mtCOVERAGE_TEST_DELAY();

	/* Make sure the index is left pointing to a valid item. */
	if( pxList->pxIndex == pxItemToRemove )
 8005996:	68fb      	ldr	r3, [r7, #12]
 8005998:	685b      	ldr	r3, [r3, #4]
 800599a:	687a      	ldr	r2, [r7, #4]
 800599c:	429a      	cmp	r2, r3
 800599e:	d103      	bne.n	80059a8 <uxListRemove+0x34>
	{
		pxList->pxIndex = pxItemToRemove->pxPrevious;
 80059a0:	687b      	ldr	r3, [r7, #4]
 80059a2:	689a      	ldr	r2, [r3, #8]
 80059a4:	68fb      	ldr	r3, [r7, #12]
 80059a6:	605a      	str	r2, [r3, #4]
	else
	{
		mtCOVERAGE_TEST_MARKER();
	}

	pxItemToRemove->pxContainer = NULL;
 80059a8:	687b      	ldr	r3, [r7, #4]
 80059aa:	2200      	movs	r2, #0
 80059ac:	611a      	str	r2, [r3, #16]
	( pxList->uxNumberOfItems )--;
 80059ae:	68fb      	ldr	r3, [r7, #12]
 80059b0:	681b      	ldr	r3, [r3, #0]
 80059b2:	1e5a      	subs	r2, r3, #1
 80059b4:	68fb      	ldr	r3, [r7, #12]
 80059b6:	601a      	str	r2, [r3, #0]

	return pxList->uxNumberOfItems;
 80059b8:	68fb      	ldr	r3, [r7, #12]
 80059ba:	681b      	ldr	r3, [r3, #0]
}
 80059bc:	4618      	mov	r0, r3
 80059be:	3714      	adds	r7, #20
 80059c0:	46bd      	mov	sp, r7
 80059c2:	f85d 7b04 	ldr.w	r7, [sp], #4
 80059c6:	4770      	bx	lr

080059c8 <xQueueGenericReset>:
	}														\
	taskEXIT_CRITICAL()
/*-----------------------------------------------------------*/

BaseType_t xQueueGenericReset( QueueHandle_t xQueue, BaseType_t xNewQueue )
{
 80059c8:	b580      	push	{r7, lr}
 80059ca:	b084      	sub	sp, #16
 80059cc:	af00      	add	r7, sp, #0
 80059ce:	6078      	str	r0, [r7, #4]
 80059d0:	6039      	str	r1, [r7, #0]
Queue_t * const pxQueue = xQueue;
 80059d2:	687b      	ldr	r3, [r7, #4]
 80059d4:	60fb      	str	r3, [r7, #12]

	configASSERT( pxQueue );
 80059d6:	68fb      	ldr	r3, [r7, #12]
 80059d8:	2b00      	cmp	r3, #0
 80059da:	d10a      	bne.n	80059f2 <xQueueGenericReset+0x2a>

portFORCE_INLINE static void vPortRaiseBASEPRI( void )
{
uint32_t ulNewBASEPRI;

	__asm volatile
 80059dc:	f04f 0350 	mov.w	r3, #80	; 0x50
 80059e0:	f383 8811 	msr	BASEPRI, r3
 80059e4:	f3bf 8f6f 	isb	sy
 80059e8:	f3bf 8f4f 	dsb	sy
 80059ec:	60bb      	str	r3, [r7, #8]
		"	msr basepri, %0											\n" \
		"	isb														\n" \
		"	dsb														\n" \
		:"=r" (ulNewBASEPRI) : "i" ( configMAX_SYSCALL_INTERRUPT_PRIORITY ) : "memory"
	);
}
 80059ee:	bf00      	nop
 80059f0:	e7fe      	b.n	80059f0 <xQueueGenericReset+0x28>

	taskENTER_CRITICAL();
 80059f2:	f001 ff57 	bl	80078a4 <vPortEnterCritical>
	{
		pxQueue->u.xQueue.pcTail = pxQueue->pcHead + ( pxQueue->uxLength * pxQueue->uxItemSize ); /*lint !e9016 Pointer arithmetic allowed on char types, especially when it assists conveying intent. */
 80059f6:	68fb      	ldr	r3, [r7, #12]
 80059f8:	681a      	ldr	r2, [r3, #0]
 80059fa:	68fb      	ldr	r3, [r7, #12]
 80059fc:	6bdb      	ldr	r3, [r3, #60]	; 0x3c
 80059fe:	68f9      	ldr	r1, [r7, #12]
 8005a00:	6c09      	ldr	r1, [r1, #64]	; 0x40
 8005a02:	fb01 f303 	mul.w	r3, r1, r3
 8005a06:	441a      	add	r2, r3
 8005a08:	68fb      	ldr	r3, [r7, #12]
 8005a0a:	609a      	str	r2, [r3, #8]
		pxQueue->uxMessagesWaiting = ( UBaseType_t ) 0U;
 8005a0c:	68fb      	ldr	r3, [r7, #12]
 8005a0e:	2200      	movs	r2, #0
 8005a10:	639a      	str	r2, [r3, #56]	; 0x38
		pxQueue->pcWriteTo = pxQueue->pcHead;
 8005a12:	68fb      	ldr	r3, [r7, #12]
 8005a14:	681a      	ldr	r2, [r3, #0]
 8005a16:	68fb      	ldr	r3, [r7, #12]
 8005a18:	605a      	str	r2, [r3, #4]
		pxQueue->u.xQueue.pcReadFrom = pxQueue->pcHead + ( ( pxQueue->uxLength - 1U ) * pxQueue->uxItemSize ); /*lint !e9016 Pointer arithmetic allowed on char types, especially when it assists conveying intent. */
 8005a1a:	68fb      	ldr	r3, [r7, #12]
 8005a1c:	681a      	ldr	r2, [r3, #0]
 8005a1e:	68fb      	ldr	r3, [r7, #12]
 8005a20:	6bdb      	ldr	r3, [r3, #60]	; 0x3c
 8005a22:	3b01      	subs	r3, #1
 8005a24:	68f9      	ldr	r1, [r7, #12]
 8005a26:	6c09      	ldr	r1, [r1, #64]	; 0x40
 8005a28:	fb01 f303 	mul.w	r3, r1, r3
 8005a2c:	441a      	add	r2, r3
 8005a2e:	68fb      	ldr	r3, [r7, #12]
 8005a30:	60da      	str	r2, [r3, #12]
		pxQueue->cRxLock = queueUNLOCKED;
 8005a32:	68fb      	ldr	r3, [r7, #12]
 8005a34:	22ff      	movs	r2, #255	; 0xff
 8005a36:	f883 2044 	strb.w	r2, [r3, #68]	; 0x44
		pxQueue->cTxLock = queueUNLOCKED;
 8005a3a:	68fb      	ldr	r3, [r7, #12]
 8005a3c:	22ff      	movs	r2, #255	; 0xff
 8005a3e:	f883 2045 	strb.w	r2, [r3, #69]	; 0x45

		if( xNewQueue == pdFALSE )
 8005a42:	683b      	ldr	r3, [r7, #0]
 8005a44:	2b00      	cmp	r3, #0
 8005a46:	d114      	bne.n	8005a72 <xQueueGenericReset+0xaa>
			/* If there are tasks blocked waiting to read from the queue, then
			the tasks will remain blocked as after this function exits the queue
			will still be empty.  If there are tasks blocked waiting to write to
			the queue, then one should be unblocked as after this function exits
			it will be possible to write to it. */
			if( listLIST_IS_EMPTY( &( pxQueue->xTasksWaitingToSend ) ) == pdFALSE )
 8005a48:	68fb      	ldr	r3, [r7, #12]
 8005a4a:	691b      	ldr	r3, [r3, #16]
 8005a4c:	2b00      	cmp	r3, #0
 8005a4e:	d01a      	beq.n	8005a86 <xQueueGenericReset+0xbe>
			{
				if( xTaskRemoveFromEventList( &( pxQueue->xTasksWaitingToSend ) ) != pdFALSE )
 8005a50:	68fb      	ldr	r3, [r7, #12]
 8005a52:	3310      	adds	r3, #16
 8005a54:	4618      	mov	r0, r3
 8005a56:	f001 f841 	bl	8006adc <xTaskRemoveFromEventList>
 8005a5a:	4603      	mov	r3, r0
 8005a5c:	2b00      	cmp	r3, #0
 8005a5e:	d012      	beq.n	8005a86 <xQueueGenericReset+0xbe>
				{
					queueYIELD_IF_USING_PREEMPTION();
 8005a60:	4b0c      	ldr	r3, [pc, #48]	; (8005a94 <xQueueGenericReset+0xcc>)
 8005a62:	f04f 5280 	mov.w	r2, #268435456	; 0x10000000
 8005a66:	601a      	str	r2, [r3, #0]
 8005a68:	f3bf 8f4f 	dsb	sy
 8005a6c:	f3bf 8f6f 	isb	sy
 8005a70:	e009      	b.n	8005a86 <xQueueGenericReset+0xbe>
			}
		}
		else
		{
			/* Ensure the event queues start in the correct state. */
			vListInitialise( &( pxQueue->xTasksWaitingToSend ) );
 8005a72:	68fb      	ldr	r3, [r7, #12]
 8005a74:	3310      	adds	r3, #16
 8005a76:	4618      	mov	r0, r3
 8005a78:	f7ff fef2 	bl	8005860 <vListInitialise>
			vListInitialise( &( pxQueue->xTasksWaitingToReceive ) );
 8005a7c:	68fb      	ldr	r3, [r7, #12]
 8005a7e:	3324      	adds	r3, #36	; 0x24
 8005a80:	4618      	mov	r0, r3
 8005a82:	f7ff feed 	bl	8005860 <vListInitialise>
		}
	}
	taskEXIT_CRITICAL();
 8005a86:	f001 ff3d 	bl	8007904 <vPortExitCritical>

	/* A value is returned for calling semantic consistency with previous
	versions. */
	return pdPASS;
 8005a8a:	2301      	movs	r3, #1
}
 8005a8c:	4618      	mov	r0, r3
 8005a8e:	3710      	adds	r7, #16
 8005a90:	46bd      	mov	sp, r7
 8005a92:	bd80      	pop	{r7, pc}
 8005a94:	e000ed04 	.word	0xe000ed04

08005a98 <xQueueGenericCreate>:
/*-----------------------------------------------------------*/

#if( configSUPPORT_DYNAMIC_ALLOCATION == 1 )

	QueueHandle_t xQueueGenericCreate( const UBaseType_t uxQueueLength, const UBaseType_t uxItemSize, const uint8_t ucQueueType )
	{
 8005a98:	b580      	push	{r7, lr}
 8005a9a:	b08a      	sub	sp, #40	; 0x28
 8005a9c:	af02      	add	r7, sp, #8
 8005a9e:	60f8      	str	r0, [r7, #12]
 8005aa0:	60b9      	str	r1, [r7, #8]
 8005aa2:	4613      	mov	r3, r2
 8005aa4:	71fb      	strb	r3, [r7, #7]
	Queue_t *pxNewQueue;
	size_t xQueueSizeInBytes;
	uint8_t *pucQueueStorage;

		configASSERT( uxQueueLength > ( UBaseType_t ) 0 );
 8005aa6:	68fb      	ldr	r3, [r7, #12]
 8005aa8:	2b00      	cmp	r3, #0
 8005aaa:	d10a      	bne.n	8005ac2 <xQueueGenericCreate+0x2a>
	__asm volatile
 8005aac:	f04f 0350 	mov.w	r3, #80	; 0x50
 8005ab0:	f383 8811 	msr	BASEPRI, r3
 8005ab4:	f3bf 8f6f 	isb	sy
 8005ab8:	f3bf 8f4f 	dsb	sy
 8005abc:	613b      	str	r3, [r7, #16]
}
 8005abe:	bf00      	nop
 8005ac0:	e7fe      	b.n	8005ac0 <xQueueGenericCreate+0x28>

		if( uxItemSize == ( UBaseType_t ) 0 )
 8005ac2:	68bb      	ldr	r3, [r7, #8]
 8005ac4:	2b00      	cmp	r3, #0
 8005ac6:	d102      	bne.n	8005ace <xQueueGenericCreate+0x36>
		{
			/* There is not going to be a queue storage area. */
			xQueueSizeInBytes = ( size_t ) 0;
 8005ac8:	2300      	movs	r3, #0
 8005aca:	61fb      	str	r3, [r7, #28]
 8005acc:	e004      	b.n	8005ad8 <xQueueGenericCreate+0x40>
		}
		else
		{
			/* Allocate enough space to hold the maximum number of items that
			can be in the queue at any time. */
			xQueueSizeInBytes = ( size_t ) ( uxQueueLength * uxItemSize ); /*lint !e961 MISRA exception as the casts are only redundant for some ports. */
 8005ace:	68fb      	ldr	r3, [r7, #12]
 8005ad0:	68ba      	ldr	r2, [r7, #8]
 8005ad2:	fb02 f303 	mul.w	r3, r2, r3
 8005ad6:	61fb      	str	r3, [r7, #28]
		alignment requirements of the Queue_t structure - which in this case
		is an int8_t *.  Therefore, whenever the stack alignment requirements
		are greater than or equal to the pointer to char requirements the cast
		is safe.  In other cases alignment requirements are not strict (one or
		two bytes). */
		pxNewQueue = ( Queue_t * ) pvPortMalloc( sizeof( Queue_t ) + xQueueSizeInBytes ); /*lint !e9087 !e9079 see comment above. */
 8005ad8:	69fb      	ldr	r3, [r7, #28]
 8005ada:	3350      	adds	r3, #80	; 0x50
 8005adc:	4618      	mov	r0, r3
 8005ade:	f002 f803 	bl	8007ae8 <pvPortMalloc>
 8005ae2:	61b8      	str	r0, [r7, #24]

		if( pxNewQueue != NULL )
 8005ae4:	69bb      	ldr	r3, [r7, #24]
 8005ae6:	2b00      	cmp	r3, #0
 8005ae8:	d00d      	beq.n	8005b06 <xQueueGenericCreate+0x6e>
		{
			/* Jump past the queue structure to find the location of the queue
			storage area. */
			pucQueueStorage = ( uint8_t * ) pxNewQueue;
 8005aea:	69bb      	ldr	r3, [r7, #24]
 8005aec:	617b      	str	r3, [r7, #20]
			pucQueueStorage += sizeof( Queue_t ); /*lint !e9016 Pointer arithmetic allowed on char types, especially when it assists conveying intent. */
 8005aee:	697b      	ldr	r3, [r7, #20]
 8005af0:	3350      	adds	r3, #80	; 0x50
 8005af2:	617b      	str	r3, [r7, #20]
				deleted. */
				pxNewQueue->ucStaticallyAllocated = pdFALSE;
			}
			#endif /* configSUPPORT_STATIC_ALLOCATION */

			prvInitialiseNewQueue( uxQueueLength, uxItemSize, pucQueueStorage, ucQueueType, pxNewQueue );
 8005af4:	79fa      	ldrb	r2, [r7, #7]
 8005af6:	69bb      	ldr	r3, [r7, #24]
 8005af8:	9300      	str	r3, [sp, #0]
 8005afa:	4613      	mov	r3, r2
 8005afc:	697a      	ldr	r2, [r7, #20]
 8005afe:	68b9      	ldr	r1, [r7, #8]
 8005b00:	68f8      	ldr	r0, [r7, #12]
 8005b02:	f000 f805 	bl	8005b10 <prvInitialiseNewQueue>
		{
			traceQUEUE_CREATE_FAILED( ucQueueType );
			mtCOVERAGE_TEST_MARKER();
		}

		return pxNewQueue;
 8005b06:	69bb      	ldr	r3, [r7, #24]
	}
 8005b08:	4618      	mov	r0, r3
 8005b0a:	3720      	adds	r7, #32
 8005b0c:	46bd      	mov	sp, r7
 8005b0e:	bd80      	pop	{r7, pc}

08005b10 <prvInitialiseNewQueue>:

#endif /* configSUPPORT_STATIC_ALLOCATION */
/*-----------------------------------------------------------*/

static void prvInitialiseNewQueue( const UBaseType_t uxQueueLength, const UBaseType_t uxItemSize, uint8_t *pucQueueStorage, const uint8_t ucQueueType, Queue_t *pxNewQueue )
{
 8005b10:	b580      	push	{r7, lr}
 8005b12:	b084      	sub	sp, #16
 8005b14:	af00      	add	r7, sp, #0
 8005b16:	60f8      	str	r0, [r7, #12]
 8005b18:	60b9      	str	r1, [r7, #8]
 8005b1a:	607a      	str	r2, [r7, #4]
 8005b1c:	70fb      	strb	r3, [r7, #3]
	/* Remove compiler warnings about unused parameters should
	configUSE_TRACE_FACILITY not be set to 1. */
	( void ) ucQueueType;

	if( uxItemSize == ( UBaseType_t ) 0 )
 8005b1e:	68bb      	ldr	r3, [r7, #8]
 8005b20:	2b00      	cmp	r3, #0
 8005b22:	d103      	bne.n	8005b2c <prvInitialiseNewQueue+0x1c>
	{
		/* No RAM was allocated for the queue storage area, but PC head cannot
		be set to NULL because NULL is used as a key to say the queue is used as
		a mutex.  Therefore just set pcHead to point to the queue as a benign
		value that is known to be within the memory map. */
		pxNewQueue->pcHead = ( int8_t * ) pxNewQueue;
 8005b24:	69bb      	ldr	r3, [r7, #24]
 8005b26:	69ba      	ldr	r2, [r7, #24]
 8005b28:	601a      	str	r2, [r3, #0]
 8005b2a:	e002      	b.n	8005b32 <prvInitialiseNewQueue+0x22>
	}
	else
	{
		/* Set the head to the start of the queue storage area. */
		pxNewQueue->pcHead = ( int8_t * ) pucQueueStorage;
 8005b2c:	69bb      	ldr	r3, [r7, #24]
 8005b2e:	687a      	ldr	r2, [r7, #4]
 8005b30:	601a      	str	r2, [r3, #0]
	}

	/* Initialise the queue members as described where the queue type is
	defined. */
	pxNewQueue->uxLength = uxQueueLength;
 8005b32:	69bb      	ldr	r3, [r7, #24]
 8005b34:	68fa      	ldr	r2, [r7, #12]
 8005b36:	63da      	str	r2, [r3, #60]	; 0x3c
	pxNewQueue->uxItemSize = uxItemSize;
 8005b38:	69bb      	ldr	r3, [r7, #24]
 8005b3a:	68ba      	ldr	r2, [r7, #8]
 8005b3c:	641a      	str	r2, [r3, #64]	; 0x40
	( void ) xQueueGenericReset( pxNewQueue, pdTRUE );
 8005b3e:	2101      	movs	r1, #1
 8005b40:	69b8      	ldr	r0, [r7, #24]
 8005b42:	f7ff ff41 	bl	80059c8 <xQueueGenericReset>

	#if ( configUSE_TRACE_FACILITY == 1 )
	{
		pxNewQueue->ucQueueType = ucQueueType;
 8005b46:	69bb      	ldr	r3, [r7, #24]
 8005b48:	78fa      	ldrb	r2, [r7, #3]
 8005b4a:	f883 204c 	strb.w	r2, [r3, #76]	; 0x4c
		pxNewQueue->pxQueueSetContainer = NULL;
	}
	#endif /* configUSE_QUEUE_SETS */

	traceQUEUE_CREATE( pxNewQueue );
}
 8005b4e:	bf00      	nop
 8005b50:	3710      	adds	r7, #16
 8005b52:	46bd      	mov	sp, r7
 8005b54:	bd80      	pop	{r7, pc}
	...

08005b58 <xQueueGenericSend>:

#endif /* ( ( configUSE_COUNTING_SEMAPHORES == 1 ) && ( configSUPPORT_DYNAMIC_ALLOCATION == 1 ) ) */
/*-----------------------------------------------------------*/

BaseType_t xQueueGenericSend( QueueHandle_t xQueue, const void * const pvItemToQueue, TickType_t xTicksToWait, const BaseType_t xCopyPosition )
{
 8005b58:	b580      	push	{r7, lr}
 8005b5a:	b08e      	sub	sp, #56	; 0x38
 8005b5c:	af00      	add	r7, sp, #0
 8005b5e:	60f8      	str	r0, [r7, #12]
 8005b60:	60b9      	str	r1, [r7, #8]
 8005b62:	607a      	str	r2, [r7, #4]
 8005b64:	603b      	str	r3, [r7, #0]
BaseType_t xEntryTimeSet = pdFALSE, xYieldRequired;
 8005b66:	2300      	movs	r3, #0
 8005b68:	637b      	str	r3, [r7, #52]	; 0x34
TimeOut_t xTimeOut;
Queue_t * const pxQueue = xQueue;
 8005b6a:	68fb      	ldr	r3, [r7, #12]
 8005b6c:	633b      	str	r3, [r7, #48]	; 0x30

	configASSERT( pxQueue );
 8005b6e:	6b3b      	ldr	r3, [r7, #48]	; 0x30
 8005b70:	2b00      	cmp	r3, #0
 8005b72:	d10a      	bne.n	8005b8a <xQueueGenericSend+0x32>
	__asm volatile
 8005b74:	f04f 0350 	mov.w	r3, #80	; 0x50
 8005b78:	f383 8811 	msr	BASEPRI, r3
 8005b7c:	f3bf 8f6f 	isb	sy
 8005b80:	f3bf 8f4f 	dsb	sy
 8005b84:	62bb      	str	r3, [r7, #40]	; 0x28
}
 8005b86:	bf00      	nop
 8005b88:	e7fe      	b.n	8005b88 <xQueueGenericSend+0x30>
	configASSERT( !( ( pvItemToQueue == NULL ) && ( pxQueue->uxItemSize != ( UBaseType_t ) 0U ) ) );
 8005b8a:	68bb      	ldr	r3, [r7, #8]
 8005b8c:	2b00      	cmp	r3, #0
 8005b8e:	d103      	bne.n	8005b98 <xQueueGenericSend+0x40>
 8005b90:	6b3b      	ldr	r3, [r7, #48]	; 0x30
 8005b92:	6c1b      	ldr	r3, [r3, #64]	; 0x40
 8005b94:	2b00      	cmp	r3, #0
 8005b96:	d101      	bne.n	8005b9c <xQueueGenericSend+0x44>
 8005b98:	2301      	movs	r3, #1
 8005b9a:	e000      	b.n	8005b9e <xQueueGenericSend+0x46>
 8005b9c:	2300      	movs	r3, #0
 8005b9e:	2b00      	cmp	r3, #0
 8005ba0:	d10a      	bne.n	8005bb8 <xQueueGenericSend+0x60>
	__asm volatile
 8005ba2:	f04f 0350 	mov.w	r3, #80	; 0x50
 8005ba6:	f383 8811 	msr	BASEPRI, r3
 8005baa:	f3bf 8f6f 	isb	sy
 8005bae:	f3bf 8f4f 	dsb	sy
 8005bb2:	627b      	str	r3, [r7, #36]	; 0x24
}
 8005bb4:	bf00      	nop
 8005bb6:	e7fe      	b.n	8005bb6 <xQueueGenericSend+0x5e>
	configASSERT( !( ( xCopyPosition == queueOVERWRITE ) && ( pxQueue->uxLength != 1 ) ) );
 8005bb8:	683b      	ldr	r3, [r7, #0]
 8005bba:	2b02      	cmp	r3, #2
 8005bbc:	d103      	bne.n	8005bc6 <xQueueGenericSend+0x6e>
 8005bbe:	6b3b      	ldr	r3, [r7, #48]	; 0x30
 8005bc0:	6bdb      	ldr	r3, [r3, #60]	; 0x3c
 8005bc2:	2b01      	cmp	r3, #1
 8005bc4:	d101      	bne.n	8005bca <xQueueGenericSend+0x72>
 8005bc6:	2301      	movs	r3, #1
 8005bc8:	e000      	b.n	8005bcc <xQueueGenericSend+0x74>
 8005bca:	2300      	movs	r3, #0
 8005bcc:	2b00      	cmp	r3, #0
 8005bce:	d10a      	bne.n	8005be6 <xQueueGenericSend+0x8e>
	__asm volatile
 8005bd0:	f04f 0350 	mov.w	r3, #80	; 0x50
 8005bd4:	f383 8811 	msr	BASEPRI, r3
 8005bd8:	f3bf 8f6f 	isb	sy
 8005bdc:	f3bf 8f4f 	dsb	sy
 8005be0:	623b      	str	r3, [r7, #32]
}
 8005be2:	bf00      	nop
 8005be4:	e7fe      	b.n	8005be4 <xQueueGenericSend+0x8c>
	#if ( ( INCLUDE_xTaskGetSchedulerState == 1 ) || ( configUSE_TIMERS == 1 ) )
	{
		configASSERT( !( ( xTaskGetSchedulerState() == taskSCHEDULER_SUSPENDED ) && ( xTicksToWait != 0 ) ) );
 8005be6:	f001 f915 	bl	8006e14 <xTaskGetSchedulerState>
 8005bea:	4603      	mov	r3, r0
 8005bec:	2b00      	cmp	r3, #0
 8005bee:	d102      	bne.n	8005bf6 <xQueueGenericSend+0x9e>
 8005bf0:	687b      	ldr	r3, [r7, #4]
 8005bf2:	2b00      	cmp	r3, #0
 8005bf4:	d101      	bne.n	8005bfa <xQueueGenericSend+0xa2>
 8005bf6:	2301      	movs	r3, #1
 8005bf8:	e000      	b.n	8005bfc <xQueueGenericSend+0xa4>
 8005bfa:	2300      	movs	r3, #0
 8005bfc:	2b00      	cmp	r3, #0
 8005bfe:	d10a      	bne.n	8005c16 <xQueueGenericSend+0xbe>
	__asm volatile
 8005c00:	f04f 0350 	mov.w	r3, #80	; 0x50
 8005c04:	f383 8811 	msr	BASEPRI, r3
 8005c08:	f3bf 8f6f 	isb	sy
 8005c0c:	f3bf 8f4f 	dsb	sy
 8005c10:	61fb      	str	r3, [r7, #28]
}
 8005c12:	bf00      	nop
 8005c14:	e7fe      	b.n	8005c14 <xQueueGenericSend+0xbc>
	/*lint -save -e904 This function relaxes the coding standard somewhat to
	allow return statements within the function itself.  This is done in the
	interest of execution time efficiency. */
	for( ;; )
	{
		taskENTER_CRITICAL();
 8005c16:	f001 fe45 	bl	80078a4 <vPortEnterCritical>
		{
			/* Is there room on the queue now?  The running task must be the
			highest priority task wanting to access the queue.  If the head item
			in the queue is to be overwritten then it does not matter if the
			queue is full. */
			if( ( pxQueue->uxMessagesWaiting < pxQueue->uxLength ) || ( xCopyPosition == queueOVERWRITE ) )
 8005c1a:	6b3b      	ldr	r3, [r7, #48]	; 0x30
 8005c1c:	6b9a      	ldr	r2, [r3, #56]	; 0x38
 8005c1e:	6b3b      	ldr	r3, [r7, #48]	; 0x30
 8005c20:	6bdb      	ldr	r3, [r3, #60]	; 0x3c
 8005c22:	429a      	cmp	r2, r3
 8005c24:	d302      	bcc.n	8005c2c <xQueueGenericSend+0xd4>
 8005c26:	683b      	ldr	r3, [r7, #0]
 8005c28:	2b02      	cmp	r3, #2
 8005c2a:	d129      	bne.n	8005c80 <xQueueGenericSend+0x128>
						}
					}
				}
				#else /* configUSE_QUEUE_SETS */
				{
					xYieldRequired = prvCopyDataToQueue( pxQueue, pvItemToQueue, xCopyPosition );
 8005c2c:	683a      	ldr	r2, [r7, #0]
 8005c2e:	68b9      	ldr	r1, [r7, #8]
 8005c30:	6b38      	ldr	r0, [r7, #48]	; 0x30
 8005c32:	f000 fa07 	bl	8006044 <prvCopyDataToQueue>
 8005c36:	62f8      	str	r0, [r7, #44]	; 0x2c

					/* If there was a task waiting for data to arrive on the
					queue then unblock it now. */
					if( listLIST_IS_EMPTY( &( pxQueue->xTasksWaitingToReceive ) ) == pdFALSE )
 8005c38:	6b3b      	ldr	r3, [r7, #48]	; 0x30
 8005c3a:	6a5b      	ldr	r3, [r3, #36]	; 0x24
 8005c3c:	2b00      	cmp	r3, #0
 8005c3e:	d010      	beq.n	8005c62 <xQueueGenericSend+0x10a>
					{
						if( xTaskRemoveFromEventList( &( pxQueue->xTasksWaitingToReceive ) ) != pdFALSE )
 8005c40:	6b3b      	ldr	r3, [r7, #48]	; 0x30
 8005c42:	3324      	adds	r3, #36	; 0x24
 8005c44:	4618      	mov	r0, r3
 8005c46:	f000 ff49 	bl	8006adc <xTaskRemoveFromEventList>
 8005c4a:	4603      	mov	r3, r0
 8005c4c:	2b00      	cmp	r3, #0
 8005c4e:	d013      	beq.n	8005c78 <xQueueGenericSend+0x120>
						{
							/* The unblocked task has a priority higher than
							our own so yield immediately.  Yes it is ok to do
							this from within the critical section - the kernel
							takes care of that. */
							queueYIELD_IF_USING_PREEMPTION();
 8005c50:	4b3f      	ldr	r3, [pc, #252]	; (8005d50 <xQueueGenericSend+0x1f8>)
 8005c52:	f04f 5280 	mov.w	r2, #268435456	; 0x10000000
 8005c56:	601a      	str	r2, [r3, #0]
 8005c58:	f3bf 8f4f 	dsb	sy
 8005c5c:	f3bf 8f6f 	isb	sy
 8005c60:	e00a      	b.n	8005c78 <xQueueGenericSend+0x120>
						else
						{
							mtCOVERAGE_TEST_MARKER();
						}
					}
					else if( xYieldRequired != pdFALSE )
 8005c62:	6afb      	ldr	r3, [r7, #44]	; 0x2c
 8005c64:	2b00      	cmp	r3, #0
 8005c66:	d007      	beq.n	8005c78 <xQueueGenericSend+0x120>
					{
						/* This path is a special case that will only get
						executed if the task was holding multiple mutexes and
						the mutexes were given back in an order that is
						different to that in which they were taken. */
						queueYIELD_IF_USING_PREEMPTION();
 8005c68:	4b39      	ldr	r3, [pc, #228]	; (8005d50 <xQueueGenericSend+0x1f8>)
 8005c6a:	f04f 5280 	mov.w	r2, #268435456	; 0x10000000
 8005c6e:	601a      	str	r2, [r3, #0]
 8005c70:	f3bf 8f4f 	dsb	sy
 8005c74:	f3bf 8f6f 	isb	sy
						mtCOVERAGE_TEST_MARKER();
					}
				}
				#endif /* configUSE_QUEUE_SETS */

				taskEXIT_CRITICAL();
 8005c78:	f001 fe44 	bl	8007904 <vPortExitCritical>
				return pdPASS;
 8005c7c:	2301      	movs	r3, #1
 8005c7e:	e063      	b.n	8005d48 <xQueueGenericSend+0x1f0>
			}
			else
			{
				if( xTicksToWait == ( TickType_t ) 0 )
 8005c80:	687b      	ldr	r3, [r7, #4]
 8005c82:	2b00      	cmp	r3, #0
 8005c84:	d103      	bne.n	8005c8e <xQueueGenericSend+0x136>
				{
					/* The queue was full and no block time is specified (or
					the block time has expired) so leave now. */
					taskEXIT_CRITICAL();
 8005c86:	f001 fe3d 	bl	8007904 <vPortExitCritical>

					/* Return to the original privilege level before exiting
					the function. */
					traceQUEUE_SEND_FAILED( pxQueue );
					return errQUEUE_FULL;
 8005c8a:	2300      	movs	r3, #0
 8005c8c:	e05c      	b.n	8005d48 <xQueueGenericSend+0x1f0>
				}
				else if( xEntryTimeSet == pdFALSE )
 8005c8e:	6b7b      	ldr	r3, [r7, #52]	; 0x34
 8005c90:	2b00      	cmp	r3, #0
 8005c92:	d106      	bne.n	8005ca2 <xQueueGenericSend+0x14a>
				{
					/* The queue was full and a block time was specified so
					configure the timeout structure. */
					vTaskInternalSetTimeOutState( &xTimeOut );
 8005c94:	f107 0314 	add.w	r3, r7, #20
 8005c98:	4618      	mov	r0, r3
 8005c9a:	f000 ff81 	bl	8006ba0 <vTaskInternalSetTimeOutState>
					xEntryTimeSet = pdTRUE;
 8005c9e:	2301      	movs	r3, #1
 8005ca0:	637b      	str	r3, [r7, #52]	; 0x34
					/* Entry time was already set. */
					mtCOVERAGE_TEST_MARKER();
				}
			}
		}
		taskEXIT_CRITICAL();
 8005ca2:	f001 fe2f 	bl	8007904 <vPortExitCritical>

		/* Interrupts and other tasks can send to and receive from the queue
		now the critical section has been exited. */

		vTaskSuspendAll();
 8005ca6:	f000 fcfb 	bl	80066a0 <vTaskSuspendAll>
		prvLockQueue( pxQueue );
 8005caa:	f001 fdfb 	bl	80078a4 <vPortEnterCritical>
 8005cae:	6b3b      	ldr	r3, [r7, #48]	; 0x30
 8005cb0:	f893 3044 	ldrb.w	r3, [r3, #68]	; 0x44
 8005cb4:	b25b      	sxtb	r3, r3
 8005cb6:	f1b3 3fff 	cmp.w	r3, #4294967295	; 0xffffffff
 8005cba:	d103      	bne.n	8005cc4 <xQueueGenericSend+0x16c>
 8005cbc:	6b3b      	ldr	r3, [r7, #48]	; 0x30
 8005cbe:	2200      	movs	r2, #0
 8005cc0:	f883 2044 	strb.w	r2, [r3, #68]	; 0x44
 8005cc4:	6b3b      	ldr	r3, [r7, #48]	; 0x30
 8005cc6:	f893 3045 	ldrb.w	r3, [r3, #69]	; 0x45
 8005cca:	b25b      	sxtb	r3, r3
 8005ccc:	f1b3 3fff 	cmp.w	r3, #4294967295	; 0xffffffff
 8005cd0:	d103      	bne.n	8005cda <xQueueGenericSend+0x182>
 8005cd2:	6b3b      	ldr	r3, [r7, #48]	; 0x30
 8005cd4:	2200      	movs	r2, #0
 8005cd6:	f883 2045 	strb.w	r2, [r3, #69]	; 0x45
 8005cda:	f001 fe13 	bl	8007904 <vPortExitCritical>

		/* Update the timeout state to see if it has expired yet. */
		if( xTaskCheckForTimeOut( &xTimeOut, &xTicksToWait ) == pdFALSE )
 8005cde:	1d3a      	adds	r2, r7, #4
 8005ce0:	f107 0314 	add.w	r3, r7, #20
 8005ce4:	4611      	mov	r1, r2
 8005ce6:	4618      	mov	r0, r3
 8005ce8:	f000 ff70 	bl	8006bcc <xTaskCheckForTimeOut>
 8005cec:	4603      	mov	r3, r0
 8005cee:	2b00      	cmp	r3, #0
 8005cf0:	d124      	bne.n	8005d3c <xQueueGenericSend+0x1e4>
		{
			if( prvIsQueueFull( pxQueue ) != pdFALSE )
 8005cf2:	6b38      	ldr	r0, [r7, #48]	; 0x30
 8005cf4:	f000 fa9e 	bl	8006234 <prvIsQueueFull>
 8005cf8:	4603      	mov	r3, r0
 8005cfa:	2b00      	cmp	r3, #0
 8005cfc:	d018      	beq.n	8005d30 <xQueueGenericSend+0x1d8>
			{
				traceBLOCKING_ON_QUEUE_SEND( pxQueue );
				vTaskPlaceOnEventList( &( pxQueue->xTasksWaitingToSend ), xTicksToWait );
 8005cfe:	6b3b      	ldr	r3, [r7, #48]	; 0x30
 8005d00:	3310      	adds	r3, #16
 8005d02:	687a      	ldr	r2, [r7, #4]
 8005d04:	4611      	mov	r1, r2
 8005d06:	4618      	mov	r0, r3
 8005d08:	f000 fe98 	bl	8006a3c <vTaskPlaceOnEventList>
				/* Unlocking the queue means queue events can effect the
				event list.  It is possible that interrupts occurring now
				remove this task from the event list again - but as the
				scheduler is suspended the task will go onto the pending
				ready last instead of the actual ready list. */
				prvUnlockQueue( pxQueue );
 8005d0c:	6b38      	ldr	r0, [r7, #48]	; 0x30
 8005d0e:	f000 fa29 	bl	8006164 <prvUnlockQueue>
				/* Resuming the scheduler will move tasks from the pending
				ready list into the ready list - so it is feasible that this
				task is already in a ready list before it yields - in which
				case the yield will not cause a context switch unless there
				is also a higher priority task in the pending ready list. */
				if( xTaskResumeAll() == pdFALSE )
 8005d12:	f000 fcd3 	bl	80066bc <xTaskResumeAll>
 8005d16:	4603      	mov	r3, r0
 8005d18:	2b00      	cmp	r3, #0
 8005d1a:	f47f af7c 	bne.w	8005c16 <xQueueGenericSend+0xbe>
				{
					portYIELD_WITHIN_API();
 8005d1e:	4b0c      	ldr	r3, [pc, #48]	; (8005d50 <xQueueGenericSend+0x1f8>)
 8005d20:	f04f 5280 	mov.w	r2, #268435456	; 0x10000000
 8005d24:	601a      	str	r2, [r3, #0]
 8005d26:	f3bf 8f4f 	dsb	sy
 8005d2a:	f3bf 8f6f 	isb	sy
 8005d2e:	e772      	b.n	8005c16 <xQueueGenericSend+0xbe>
				}
			}
			else
			{
				/* Try again. */
				prvUnlockQueue( pxQueue );
 8005d30:	6b38      	ldr	r0, [r7, #48]	; 0x30
 8005d32:	f000 fa17 	bl	8006164 <prvUnlockQueue>
				( void ) xTaskResumeAll();
 8005d36:	f000 fcc1 	bl	80066bc <xTaskResumeAll>
 8005d3a:	e76c      	b.n	8005c16 <xQueueGenericSend+0xbe>
			}
		}
		else
		{
			/* The timeout has expired. */
			prvUnlockQueue( pxQueue );
 8005d3c:	6b38      	ldr	r0, [r7, #48]	; 0x30
 8005d3e:	f000 fa11 	bl	8006164 <prvUnlockQueue>
			( void ) xTaskResumeAll();
 8005d42:	f000 fcbb 	bl	80066bc <xTaskResumeAll>

			traceQUEUE_SEND_FAILED( pxQueue );
			return errQUEUE_FULL;
 8005d46:	2300      	movs	r3, #0
		}
	} /*lint -restore */
}
 8005d48:	4618      	mov	r0, r3
 8005d4a:	3738      	adds	r7, #56	; 0x38
 8005d4c:	46bd      	mov	sp, r7
 8005d4e:	bd80      	pop	{r7, pc}
 8005d50:	e000ed04 	.word	0xe000ed04

08005d54 <xQueueGenericSendFromISR>:
/*-----------------------------------------------------------*/

BaseType_t xQueueGenericSendFromISR( QueueHandle_t xQueue, const void * const pvItemToQueue, BaseType_t * const pxHigherPriorityTaskWoken, const BaseType_t xCopyPosition )
{
 8005d54:	b580      	push	{r7, lr}
 8005d56:	b08e      	sub	sp, #56	; 0x38
 8005d58:	af00      	add	r7, sp, #0
 8005d5a:	60f8      	str	r0, [r7, #12]
 8005d5c:	60b9      	str	r1, [r7, #8]
 8005d5e:	607a      	str	r2, [r7, #4]
 8005d60:	603b      	str	r3, [r7, #0]
BaseType_t xReturn;
UBaseType_t uxSavedInterruptStatus;
Queue_t * const pxQueue = xQueue;
 8005d62:	68fb      	ldr	r3, [r7, #12]
 8005d64:	633b      	str	r3, [r7, #48]	; 0x30

	configASSERT( pxQueue );
 8005d66:	6b3b      	ldr	r3, [r7, #48]	; 0x30
 8005d68:	2b00      	cmp	r3, #0
 8005d6a:	d10a      	bne.n	8005d82 <xQueueGenericSendFromISR+0x2e>
	__asm volatile
 8005d6c:	f04f 0350 	mov.w	r3, #80	; 0x50
 8005d70:	f383 8811 	msr	BASEPRI, r3
 8005d74:	f3bf 8f6f 	isb	sy
 8005d78:	f3bf 8f4f 	dsb	sy
 8005d7c:	627b      	str	r3, [r7, #36]	; 0x24
}
 8005d7e:	bf00      	nop
 8005d80:	e7fe      	b.n	8005d80 <xQueueGenericSendFromISR+0x2c>
	configASSERT( !( ( pvItemToQueue == NULL ) && ( pxQueue->uxItemSize != ( UBaseType_t ) 0U ) ) );
 8005d82:	68bb      	ldr	r3, [r7, #8]
 8005d84:	2b00      	cmp	r3, #0
 8005d86:	d103      	bne.n	8005d90 <xQueueGenericSendFromISR+0x3c>
 8005d88:	6b3b      	ldr	r3, [r7, #48]	; 0x30
 8005d8a:	6c1b      	ldr	r3, [r3, #64]	; 0x40
 8005d8c:	2b00      	cmp	r3, #0
 8005d8e:	d101      	bne.n	8005d94 <xQueueGenericSendFromISR+0x40>
 8005d90:	2301      	movs	r3, #1
 8005d92:	e000      	b.n	8005d96 <xQueueGenericSendFromISR+0x42>
 8005d94:	2300      	movs	r3, #0
 8005d96:	2b00      	cmp	r3, #0
 8005d98:	d10a      	bne.n	8005db0 <xQueueGenericSendFromISR+0x5c>
	__asm volatile
 8005d9a:	f04f 0350 	mov.w	r3, #80	; 0x50
 8005d9e:	f383 8811 	msr	BASEPRI, r3
 8005da2:	f3bf 8f6f 	isb	sy
 8005da6:	f3bf 8f4f 	dsb	sy
 8005daa:	623b      	str	r3, [r7, #32]
}
 8005dac:	bf00      	nop
 8005dae:	e7fe      	b.n	8005dae <xQueueGenericSendFromISR+0x5a>
	configASSERT( !( ( xCopyPosition == queueOVERWRITE ) && ( pxQueue->uxLength != 1 ) ) );
 8005db0:	683b      	ldr	r3, [r7, #0]
 8005db2:	2b02      	cmp	r3, #2
 8005db4:	d103      	bne.n	8005dbe <xQueueGenericSendFromISR+0x6a>
 8005db6:	6b3b      	ldr	r3, [r7, #48]	; 0x30
 8005db8:	6bdb      	ldr	r3, [r3, #60]	; 0x3c
 8005dba:	2b01      	cmp	r3, #1
 8005dbc:	d101      	bne.n	8005dc2 <xQueueGenericSendFromISR+0x6e>
 8005dbe:	2301      	movs	r3, #1
 8005dc0:	e000      	b.n	8005dc4 <xQueueGenericSendFromISR+0x70>
 8005dc2:	2300      	movs	r3, #0
 8005dc4:	2b00      	cmp	r3, #0
 8005dc6:	d10a      	bne.n	8005dde <xQueueGenericSendFromISR+0x8a>
	__asm volatile
 8005dc8:	f04f 0350 	mov.w	r3, #80	; 0x50
 8005dcc:	f383 8811 	msr	BASEPRI, r3
 8005dd0:	f3bf 8f6f 	isb	sy
 8005dd4:	f3bf 8f4f 	dsb	sy
 8005dd8:	61fb      	str	r3, [r7, #28]
}
 8005dda:	bf00      	nop
 8005ddc:	e7fe      	b.n	8005ddc <xQueueGenericSendFromISR+0x88>
	that have been assigned a priority at or (logically) below the maximum
	system call	interrupt priority.  FreeRTOS maintains a separate interrupt
	safe API to ensure interrupt entry is as fast and as simple as possible.
	More information (albeit Cortex-M specific) is provided on the following
	link: http://www.freertos.org/RTOS-Cortex-M3-M4.html */
	portASSERT_IF_INTERRUPT_PRIORITY_INVALID();
 8005dde:	f001 fe43 	bl	8007a68 <vPortValidateInterruptPriority>

portFORCE_INLINE static uint32_t ulPortRaiseBASEPRI( void )
{
uint32_t ulOriginalBASEPRI, ulNewBASEPRI;

	__asm volatile
 8005de2:	f3ef 8211 	mrs	r2, BASEPRI
 8005de6:	f04f 0350 	mov.w	r3, #80	; 0x50
 8005dea:	f383 8811 	msr	BASEPRI, r3
 8005dee:	f3bf 8f6f 	isb	sy
 8005df2:	f3bf 8f4f 	dsb	sy
 8005df6:	61ba      	str	r2, [r7, #24]
 8005df8:	617b      	str	r3, [r7, #20]
		:"=r" (ulOriginalBASEPRI), "=r" (ulNewBASEPRI) : "i" ( configMAX_SYSCALL_INTERRUPT_PRIORITY ) : "memory"
	);

	/* This return will not be reached but is necessary to prevent compiler
	warnings. */
	return ulOriginalBASEPRI;
 8005dfa:	69bb      	ldr	r3, [r7, #24]
	/* Similar to xQueueGenericSend, except without blocking if there is no room
	in the queue.  Also don't directly wake a task that was blocked on a queue
	read, instead return a flag to say whether a context switch is required or
	not (i.e. has a task with a higher priority than us been woken by this
	post). */
	uxSavedInterruptStatus = portSET_INTERRUPT_MASK_FROM_ISR();
 8005dfc:	62fb      	str	r3, [r7, #44]	; 0x2c
	{
		if( ( pxQueue->uxMessagesWaiting < pxQueue->uxLength ) || ( xCopyPosition == queueOVERWRITE ) )
 8005dfe:	6b3b      	ldr	r3, [r7, #48]	; 0x30
 8005e00:	6b9a      	ldr	r2, [r3, #56]	; 0x38
 8005e02:	6b3b      	ldr	r3, [r7, #48]	; 0x30
 8005e04:	6bdb      	ldr	r3, [r3, #60]	; 0x3c
 8005e06:	429a      	cmp	r2, r3
 8005e08:	d302      	bcc.n	8005e10 <xQueueGenericSendFromISR+0xbc>
 8005e0a:	683b      	ldr	r3, [r7, #0]
 8005e0c:	2b02      	cmp	r3, #2
 8005e0e:	d12c      	bne.n	8005e6a <xQueueGenericSendFromISR+0x116>
		{
			const int8_t cTxLock = pxQueue->cTxLock;
 8005e10:	6b3b      	ldr	r3, [r7, #48]	; 0x30
 8005e12:	f893 3045 	ldrb.w	r3, [r3, #69]	; 0x45
 8005e16:	f887 302b 	strb.w	r3, [r7, #43]	; 0x2b
			/* Semaphores use xQueueGiveFromISR(), so pxQueue will not be a
			semaphore or mutex.  That means prvCopyDataToQueue() cannot result
			in a task disinheriting a priority and prvCopyDataToQueue() can be
			called here even though the disinherit function does not check if
			the scheduler is suspended before accessing the ready lists. */
			( void ) prvCopyDataToQueue( pxQueue, pvItemToQueue, xCopyPosition );
 8005e1a:	683a      	ldr	r2, [r7, #0]
 8005e1c:	68b9      	ldr	r1, [r7, #8]
 8005e1e:	6b38      	ldr	r0, [r7, #48]	; 0x30
 8005e20:	f000 f910 	bl	8006044 <prvCopyDataToQueue>

			/* The event list is not altered if the queue is locked.  This will
			be done when the queue is unlocked later. */
			if( cTxLock == queueUNLOCKED )
 8005e24:	f997 302b 	ldrsb.w	r3, [r7, #43]	; 0x2b
 8005e28:	f1b3 3fff 	cmp.w	r3, #4294967295	; 0xffffffff
 8005e2c:	d112      	bne.n	8005e54 <xQueueGenericSendFromISR+0x100>
						}
					}
				}
				#else /* configUSE_QUEUE_SETS */
				{
					if( listLIST_IS_EMPTY( &( pxQueue->xTasksWaitingToReceive ) ) == pdFALSE )
 8005e2e:	6b3b      	ldr	r3, [r7, #48]	; 0x30
 8005e30:	6a5b      	ldr	r3, [r3, #36]	; 0x24
 8005e32:	2b00      	cmp	r3, #0
 8005e34:	d016      	beq.n	8005e64 <xQueueGenericSendFromISR+0x110>
					{
						if( xTaskRemoveFromEventList( &( pxQueue->xTasksWaitingToReceive ) ) != pdFALSE )
 8005e36:	6b3b      	ldr	r3, [r7, #48]	; 0x30
 8005e38:	3324      	adds	r3, #36	; 0x24
 8005e3a:	4618      	mov	r0, r3
 8005e3c:	f000 fe4e 	bl	8006adc <xTaskRemoveFromEventList>
 8005e40:	4603      	mov	r3, r0
 8005e42:	2b00      	cmp	r3, #0
 8005e44:	d00e      	beq.n	8005e64 <xQueueGenericSendFromISR+0x110>
						{
							/* The task waiting has a higher priority so record that a
							context	switch is required. */
							if( pxHigherPriorityTaskWoken != NULL )
 8005e46:	687b      	ldr	r3, [r7, #4]
 8005e48:	2b00      	cmp	r3, #0
 8005e4a:	d00b      	beq.n	8005e64 <xQueueGenericSendFromISR+0x110>
							{
								*pxHigherPriorityTaskWoken = pdTRUE;
 8005e4c:	687b      	ldr	r3, [r7, #4]
 8005e4e:	2201      	movs	r2, #1
 8005e50:	601a      	str	r2, [r3, #0]
 8005e52:	e007      	b.n	8005e64 <xQueueGenericSendFromISR+0x110>
			}
			else
			{
				/* Increment the lock count so the task that unlocks the queue
				knows that data was posted while it was locked. */
				pxQueue->cTxLock = ( int8_t ) ( cTxLock + 1 );
 8005e54:	f897 302b 	ldrb.w	r3, [r7, #43]	; 0x2b
 8005e58:	3301      	adds	r3, #1
 8005e5a:	b2db      	uxtb	r3, r3
 8005e5c:	b25a      	sxtb	r2, r3
 8005e5e:	6b3b      	ldr	r3, [r7, #48]	; 0x30
 8005e60:	f883 2045 	strb.w	r2, [r3, #69]	; 0x45
			}

			xReturn = pdPASS;
 8005e64:	2301      	movs	r3, #1
 8005e66:	637b      	str	r3, [r7, #52]	; 0x34
		{
 8005e68:	e001      	b.n	8005e6e <xQueueGenericSendFromISR+0x11a>
		}
		else
		{
			traceQUEUE_SEND_FROM_ISR_FAILED( pxQueue );
			xReturn = errQUEUE_FULL;
 8005e6a:	2300      	movs	r3, #0
 8005e6c:	637b      	str	r3, [r7, #52]	; 0x34
 8005e6e:	6afb      	ldr	r3, [r7, #44]	; 0x2c
 8005e70:	613b      	str	r3, [r7, #16]
}
/*-----------------------------------------------------------*/

portFORCE_INLINE static void vPortSetBASEPRI( uint32_t ulNewMaskValue )
{
	__asm volatile
 8005e72:	693b      	ldr	r3, [r7, #16]
 8005e74:	f383 8811 	msr	BASEPRI, r3
	(
		"	msr basepri, %0	" :: "r" ( ulNewMaskValue ) : "memory"
	);
}
 8005e78:	bf00      	nop
		}
	}
	portCLEAR_INTERRUPT_MASK_FROM_ISR( uxSavedInterruptStatus );

	return xReturn;
 8005e7a:	6b7b      	ldr	r3, [r7, #52]	; 0x34
}
 8005e7c:	4618      	mov	r0, r3
 8005e7e:	3738      	adds	r7, #56	; 0x38
 8005e80:	46bd      	mov	sp, r7
 8005e82:	bd80      	pop	{r7, pc}

08005e84 <xQueueReceive>:
	return xReturn;
}
/*-----------------------------------------------------------*/

BaseType_t xQueueReceive( QueueHandle_t xQueue, void * const pvBuffer, TickType_t xTicksToWait )
{
 8005e84:	b580      	push	{r7, lr}
 8005e86:	b08c      	sub	sp, #48	; 0x30
 8005e88:	af00      	add	r7, sp, #0
 8005e8a:	60f8      	str	r0, [r7, #12]
 8005e8c:	60b9      	str	r1, [r7, #8]
 8005e8e:	607a      	str	r2, [r7, #4]
BaseType_t xEntryTimeSet = pdFALSE;
 8005e90:	2300      	movs	r3, #0
 8005e92:	62fb      	str	r3, [r7, #44]	; 0x2c
TimeOut_t xTimeOut;
Queue_t * const pxQueue = xQueue;
 8005e94:	68fb      	ldr	r3, [r7, #12]
 8005e96:	62bb      	str	r3, [r7, #40]	; 0x28

	/* Check the pointer is not NULL. */
	configASSERT( ( pxQueue ) );
 8005e98:	6abb      	ldr	r3, [r7, #40]	; 0x28
 8005e9a:	2b00      	cmp	r3, #0
 8005e9c:	d10a      	bne.n	8005eb4 <xQueueReceive+0x30>
	__asm volatile
 8005e9e:	f04f 0350 	mov.w	r3, #80	; 0x50
 8005ea2:	f383 8811 	msr	BASEPRI, r3
 8005ea6:	f3bf 8f6f 	isb	sy
 8005eaa:	f3bf 8f4f 	dsb	sy
 8005eae:	623b      	str	r3, [r7, #32]
}
 8005eb0:	bf00      	nop
 8005eb2:	e7fe      	b.n	8005eb2 <xQueueReceive+0x2e>

	/* The buffer into which data is received can only be NULL if the data size
	is zero (so no data is copied into the buffer. */
	configASSERT( !( ( ( pvBuffer ) == NULL ) && ( ( pxQueue )->uxItemSize != ( UBaseType_t ) 0U ) ) );
 8005eb4:	68bb      	ldr	r3, [r7, #8]
 8005eb6:	2b00      	cmp	r3, #0
 8005eb8:	d103      	bne.n	8005ec2 <xQueueReceive+0x3e>
 8005eba:	6abb      	ldr	r3, [r7, #40]	; 0x28
 8005ebc:	6c1b      	ldr	r3, [r3, #64]	; 0x40
 8005ebe:	2b00      	cmp	r3, #0
 8005ec0:	d101      	bne.n	8005ec6 <xQueueReceive+0x42>
 8005ec2:	2301      	movs	r3, #1
 8005ec4:	e000      	b.n	8005ec8 <xQueueReceive+0x44>
 8005ec6:	2300      	movs	r3, #0
 8005ec8:	2b00      	cmp	r3, #0
 8005eca:	d10a      	bne.n	8005ee2 <xQueueReceive+0x5e>
	__asm volatile
 8005ecc:	f04f 0350 	mov.w	r3, #80	; 0x50
 8005ed0:	f383 8811 	msr	BASEPRI, r3
 8005ed4:	f3bf 8f6f 	isb	sy
 8005ed8:	f3bf 8f4f 	dsb	sy
 8005edc:	61fb      	str	r3, [r7, #28]
}
 8005ede:	bf00      	nop
 8005ee0:	e7fe      	b.n	8005ee0 <xQueueReceive+0x5c>

	/* Cannot block if the scheduler is suspended. */
	#if ( ( INCLUDE_xTaskGetSchedulerState == 1 ) || ( configUSE_TIMERS == 1 ) )
	{
		configASSERT( !( ( xTaskGetSchedulerState() == taskSCHEDULER_SUSPENDED ) && ( xTicksToWait != 0 ) ) );
 8005ee2:	f000 ff97 	bl	8006e14 <xTaskGetSchedulerState>
 8005ee6:	4603      	mov	r3, r0
 8005ee8:	2b00      	cmp	r3, #0
 8005eea:	d102      	bne.n	8005ef2 <xQueueReceive+0x6e>
 8005eec:	687b      	ldr	r3, [r7, #4]
 8005eee:	2b00      	cmp	r3, #0
 8005ef0:	d101      	bne.n	8005ef6 <xQueueReceive+0x72>
 8005ef2:	2301      	movs	r3, #1
 8005ef4:	e000      	b.n	8005ef8 <xQueueReceive+0x74>
 8005ef6:	2300      	movs	r3, #0
 8005ef8:	2b00      	cmp	r3, #0
 8005efa:	d10a      	bne.n	8005f12 <xQueueReceive+0x8e>
	__asm volatile
 8005efc:	f04f 0350 	mov.w	r3, #80	; 0x50
 8005f00:	f383 8811 	msr	BASEPRI, r3
 8005f04:	f3bf 8f6f 	isb	sy
 8005f08:	f3bf 8f4f 	dsb	sy
 8005f0c:	61bb      	str	r3, [r7, #24]
}
 8005f0e:	bf00      	nop
 8005f10:	e7fe      	b.n	8005f10 <xQueueReceive+0x8c>
	/*lint -save -e904  This function relaxes the coding standard somewhat to
	allow return statements within the function itself.  This is done in the
	interest of execution time efficiency. */
	for( ;; )
	{
		taskENTER_CRITICAL();
 8005f12:	f001 fcc7 	bl	80078a4 <vPortEnterCritical>
		{
			const UBaseType_t uxMessagesWaiting = pxQueue->uxMessagesWaiting;
 8005f16:	6abb      	ldr	r3, [r7, #40]	; 0x28
 8005f18:	6b9b      	ldr	r3, [r3, #56]	; 0x38
 8005f1a:	627b      	str	r3, [r7, #36]	; 0x24

			/* Is there data in the queue now?  To be running the calling task
			must be the highest priority task wanting to access the queue. */
			if( uxMessagesWaiting > ( UBaseType_t ) 0 )
 8005f1c:	6a7b      	ldr	r3, [r7, #36]	; 0x24
 8005f1e:	2b00      	cmp	r3, #0
 8005f20:	d01f      	beq.n	8005f62 <xQueueReceive+0xde>
			{
				/* Data available, remove one item. */
				prvCopyDataFromQueue( pxQueue, pvBuffer );
 8005f22:	68b9      	ldr	r1, [r7, #8]
 8005f24:	6ab8      	ldr	r0, [r7, #40]	; 0x28
 8005f26:	f000 f8f7 	bl	8006118 <prvCopyDataFromQueue>
				traceQUEUE_RECEIVE( pxQueue );
				pxQueue->uxMessagesWaiting = uxMessagesWaiting - ( UBaseType_t ) 1;
 8005f2a:	6a7b      	ldr	r3, [r7, #36]	; 0x24
 8005f2c:	1e5a      	subs	r2, r3, #1
 8005f2e:	6abb      	ldr	r3, [r7, #40]	; 0x28
 8005f30:	639a      	str	r2, [r3, #56]	; 0x38

				/* There is now space in the queue, were any tasks waiting to
				post to the queue?  If so, unblock the highest priority waiting
				task. */
				if( listLIST_IS_EMPTY( &( pxQueue->xTasksWaitingToSend ) ) == pdFALSE )
 8005f32:	6abb      	ldr	r3, [r7, #40]	; 0x28
 8005f34:	691b      	ldr	r3, [r3, #16]
 8005f36:	2b00      	cmp	r3, #0
 8005f38:	d00f      	beq.n	8005f5a <xQueueReceive+0xd6>
				{
					if( xTaskRemoveFromEventList( &( pxQueue->xTasksWaitingToSend ) ) != pdFALSE )
 8005f3a:	6abb      	ldr	r3, [r7, #40]	; 0x28
 8005f3c:	3310      	adds	r3, #16
 8005f3e:	4618      	mov	r0, r3
 8005f40:	f000 fdcc 	bl	8006adc <xTaskRemoveFromEventList>
 8005f44:	4603      	mov	r3, r0
 8005f46:	2b00      	cmp	r3, #0
 8005f48:	d007      	beq.n	8005f5a <xQueueReceive+0xd6>
					{
						queueYIELD_IF_USING_PREEMPTION();
 8005f4a:	4b3d      	ldr	r3, [pc, #244]	; (8006040 <xQueueReceive+0x1bc>)
 8005f4c:	f04f 5280 	mov.w	r2, #268435456	; 0x10000000
 8005f50:	601a      	str	r2, [r3, #0]
 8005f52:	f3bf 8f4f 	dsb	sy
 8005f56:	f3bf 8f6f 	isb	sy
				else
				{
					mtCOVERAGE_TEST_MARKER();
				}

				taskEXIT_CRITICAL();
 8005f5a:	f001 fcd3 	bl	8007904 <vPortExitCritical>
				return pdPASS;
 8005f5e:	2301      	movs	r3, #1
 8005f60:	e069      	b.n	8006036 <xQueueReceive+0x1b2>
			}
			else
			{
				if( xTicksToWait == ( TickType_t ) 0 )
 8005f62:	687b      	ldr	r3, [r7, #4]
 8005f64:	2b00      	cmp	r3, #0
 8005f66:	d103      	bne.n	8005f70 <xQueueReceive+0xec>
				{
					/* The queue was empty and no block time is specified (or
					the block time has expired) so leave now. */
					taskEXIT_CRITICAL();
 8005f68:	f001 fccc 	bl	8007904 <vPortExitCritical>
					traceQUEUE_RECEIVE_FAILED( pxQueue );
					return errQUEUE_EMPTY;
 8005f6c:	2300      	movs	r3, #0
 8005f6e:	e062      	b.n	8006036 <xQueueReceive+0x1b2>
				}
				else if( xEntryTimeSet == pdFALSE )
 8005f70:	6afb      	ldr	r3, [r7, #44]	; 0x2c
 8005f72:	2b00      	cmp	r3, #0
 8005f74:	d106      	bne.n	8005f84 <xQueueReceive+0x100>
				{
					/* The queue was empty and a block time was specified so
					configure the timeout structure. */
					vTaskInternalSetTimeOutState( &xTimeOut );
 8005f76:	f107 0310 	add.w	r3, r7, #16
 8005f7a:	4618      	mov	r0, r3
 8005f7c:	f000 fe10 	bl	8006ba0 <vTaskInternalSetTimeOutState>
					xEntryTimeSet = pdTRUE;
 8005f80:	2301      	movs	r3, #1
 8005f82:	62fb      	str	r3, [r7, #44]	; 0x2c
					/* Entry time was already set. */
					mtCOVERAGE_TEST_MARKER();
				}
			}
		}
		taskEXIT_CRITICAL();
 8005f84:	f001 fcbe 	bl	8007904 <vPortExitCritical>

		/* Interrupts and other tasks can send to and receive from the queue
		now the critical section has been exited. */

		vTaskSuspendAll();
 8005f88:	f000 fb8a 	bl	80066a0 <vTaskSuspendAll>
		prvLockQueue( pxQueue );
 8005f8c:	f001 fc8a 	bl	80078a4 <vPortEnterCritical>
 8005f90:	6abb      	ldr	r3, [r7, #40]	; 0x28
 8005f92:	f893 3044 	ldrb.w	r3, [r3, #68]	; 0x44
 8005f96:	b25b      	sxtb	r3, r3
 8005f98:	f1b3 3fff 	cmp.w	r3, #4294967295	; 0xffffffff
 8005f9c:	d103      	bne.n	8005fa6 <xQueueReceive+0x122>
 8005f9e:	6abb      	ldr	r3, [r7, #40]	; 0x28
 8005fa0:	2200      	movs	r2, #0
 8005fa2:	f883 2044 	strb.w	r2, [r3, #68]	; 0x44
 8005fa6:	6abb      	ldr	r3, [r7, #40]	; 0x28
 8005fa8:	f893 3045 	ldrb.w	r3, [r3, #69]	; 0x45
 8005fac:	b25b      	sxtb	r3, r3
 8005fae:	f1b3 3fff 	cmp.w	r3, #4294967295	; 0xffffffff
 8005fb2:	d103      	bne.n	8005fbc <xQueueReceive+0x138>
 8005fb4:	6abb      	ldr	r3, [r7, #40]	; 0x28
 8005fb6:	2200      	movs	r2, #0
 8005fb8:	f883 2045 	strb.w	r2, [r3, #69]	; 0x45
 8005fbc:	f001 fca2 	bl	8007904 <vPortExitCritical>

		/* Update the timeout state to see if it has expired yet. */
		if( xTaskCheckForTimeOut( &xTimeOut, &xTicksToWait ) == pdFALSE )
 8005fc0:	1d3a      	adds	r2, r7, #4
 8005fc2:	f107 0310 	add.w	r3, r7, #16
 8005fc6:	4611      	mov	r1, r2
 8005fc8:	4618      	mov	r0, r3
 8005fca:	f000 fdff 	bl	8006bcc <xTaskCheckForTimeOut>
 8005fce:	4603      	mov	r3, r0
 8005fd0:	2b00      	cmp	r3, #0
 8005fd2:	d123      	bne.n	800601c <xQueueReceive+0x198>
		{
			/* The timeout has not expired.  If the queue is still empty place
			the task on the list of tasks waiting to receive from the queue. */
			if( prvIsQueueEmpty( pxQueue ) != pdFALSE )
 8005fd4:	6ab8      	ldr	r0, [r7, #40]	; 0x28
 8005fd6:	f000 f917 	bl	8006208 <prvIsQueueEmpty>
 8005fda:	4603      	mov	r3, r0
 8005fdc:	2b00      	cmp	r3, #0
 8005fde:	d017      	beq.n	8006010 <xQueueReceive+0x18c>
			{
				traceBLOCKING_ON_QUEUE_RECEIVE( pxQueue );
				vTaskPlaceOnEventList( &( pxQueue->xTasksWaitingToReceive ), xTicksToWait );
 8005fe0:	6abb      	ldr	r3, [r7, #40]	; 0x28
 8005fe2:	3324      	adds	r3, #36	; 0x24
 8005fe4:	687a      	ldr	r2, [r7, #4]
 8005fe6:	4611      	mov	r1, r2
 8005fe8:	4618      	mov	r0, r3
 8005fea:	f000 fd27 	bl	8006a3c <vTaskPlaceOnEventList>
				prvUnlockQueue( pxQueue );
 8005fee:	6ab8      	ldr	r0, [r7, #40]	; 0x28
 8005ff0:	f000 f8b8 	bl	8006164 <prvUnlockQueue>
				if( xTaskResumeAll() == pdFALSE )
 8005ff4:	f000 fb62 	bl	80066bc <xTaskResumeAll>
 8005ff8:	4603      	mov	r3, r0
 8005ffa:	2b00      	cmp	r3, #0
 8005ffc:	d189      	bne.n	8005f12 <xQueueReceive+0x8e>
				{
					portYIELD_WITHIN_API();
 8005ffe:	4b10      	ldr	r3, [pc, #64]	; (8006040 <xQueueReceive+0x1bc>)
 8006000:	f04f 5280 	mov.w	r2, #268435456	; 0x10000000
 8006004:	601a      	str	r2, [r3, #0]
 8006006:	f3bf 8f4f 	dsb	sy
 800600a:	f3bf 8f6f 	isb	sy
 800600e:	e780      	b.n	8005f12 <xQueueReceive+0x8e>
			}
			else
			{
				/* The queue contains data again.  Loop back to try and read the
				data. */
				prvUnlockQueue( pxQueue );
 8006010:	6ab8      	ldr	r0, [r7, #40]	; 0x28
 8006012:	f000 f8a7 	bl	8006164 <prvUnlockQueue>
				( void ) xTaskResumeAll();
 8006016:	f000 fb51 	bl	80066bc <xTaskResumeAll>
 800601a:	e77a      	b.n	8005f12 <xQueueReceive+0x8e>
		}
		else
		{
			/* Timed out.  If there is no data in the queue exit, otherwise loop
			back and attempt to read the data. */
			prvUnlockQueue( pxQueue );
 800601c:	6ab8      	ldr	r0, [r7, #40]	; 0x28
 800601e:	f000 f8a1 	bl	8006164 <prvUnlockQueue>
			( void ) xTaskResumeAll();
 8006022:	f000 fb4b 	bl	80066bc <xTaskResumeAll>

			if( prvIsQueueEmpty( pxQueue ) != pdFALSE )
 8006026:	6ab8      	ldr	r0, [r7, #40]	; 0x28
 8006028:	f000 f8ee 	bl	8006208 <prvIsQueueEmpty>
 800602c:	4603      	mov	r3, r0
 800602e:	2b00      	cmp	r3, #0
 8006030:	f43f af6f 	beq.w	8005f12 <xQueueReceive+0x8e>
			{
				traceQUEUE_RECEIVE_FAILED( pxQueue );
				return errQUEUE_EMPTY;
 8006034:	2300      	movs	r3, #0
			{
				mtCOVERAGE_TEST_MARKER();
			}
		}
	} /*lint -restore */
}
 8006036:	4618      	mov	r0, r3
 8006038:	3730      	adds	r7, #48	; 0x30
 800603a:	46bd      	mov	sp, r7
 800603c:	bd80      	pop	{r7, pc}
 800603e:	bf00      	nop
 8006040:	e000ed04 	.word	0xe000ed04

08006044 <prvCopyDataToQueue>:

#endif /* configUSE_MUTEXES */
/*-----------------------------------------------------------*/

static BaseType_t prvCopyDataToQueue( Queue_t * const pxQueue, const void *pvItemToQueue, const BaseType_t xPosition )
{
 8006044:	b580      	push	{r7, lr}
 8006046:	b086      	sub	sp, #24
 8006048:	af00      	add	r7, sp, #0
 800604a:	60f8      	str	r0, [r7, #12]
 800604c:	60b9      	str	r1, [r7, #8]
 800604e:	607a      	str	r2, [r7, #4]
BaseType_t xReturn = pdFALSE;
 8006050:	2300      	movs	r3, #0
 8006052:	617b      	str	r3, [r7, #20]
UBaseType_t uxMessagesWaiting;

	/* This function is called from a critical section. */

	uxMessagesWaiting = pxQueue->uxMessagesWaiting;
 8006054:	68fb      	ldr	r3, [r7, #12]
 8006056:	6b9b      	ldr	r3, [r3, #56]	; 0x38
 8006058:	613b      	str	r3, [r7, #16]

	if( pxQueue->uxItemSize == ( UBaseType_t ) 0 )
 800605a:	68fb      	ldr	r3, [r7, #12]
 800605c:	6c1b      	ldr	r3, [r3, #64]	; 0x40
 800605e:	2b00      	cmp	r3, #0
 8006060:	d10d      	bne.n	800607e <prvCopyDataToQueue+0x3a>
	{
		#if ( configUSE_MUTEXES == 1 )
		{
			if( pxQueue->uxQueueType == queueQUEUE_IS_MUTEX )
 8006062:	68fb      	ldr	r3, [r7, #12]
 8006064:	681b      	ldr	r3, [r3, #0]
 8006066:	2b00      	cmp	r3, #0
 8006068:	d14d      	bne.n	8006106 <prvCopyDataToQueue+0xc2>
			{
				/* The mutex is no longer being held. */
				xReturn = xTaskPriorityDisinherit( pxQueue->u.xSemaphore.xMutexHolder );
 800606a:	68fb      	ldr	r3, [r7, #12]
 800606c:	689b      	ldr	r3, [r3, #8]
 800606e:	4618      	mov	r0, r3
 8006070:	f000 feee 	bl	8006e50 <xTaskPriorityDisinherit>
 8006074:	6178      	str	r0, [r7, #20]
				pxQueue->u.xSemaphore.xMutexHolder = NULL;
 8006076:	68fb      	ldr	r3, [r7, #12]
 8006078:	2200      	movs	r2, #0
 800607a:	609a      	str	r2, [r3, #8]
 800607c:	e043      	b.n	8006106 <prvCopyDataToQueue+0xc2>
				mtCOVERAGE_TEST_MARKER();
			}
		}
		#endif /* configUSE_MUTEXES */
	}
	else if( xPosition == queueSEND_TO_BACK )
 800607e:	687b      	ldr	r3, [r7, #4]
 8006080:	2b00      	cmp	r3, #0
 8006082:	d119      	bne.n	80060b8 <prvCopyDataToQueue+0x74>
	{
		( void ) memcpy( ( void * ) pxQueue->pcWriteTo, pvItemToQueue, ( size_t ) pxQueue->uxItemSize ); /*lint !e961 !e418 !e9087 MISRA exception as the casts are only redundant for some ports, plus previous logic ensures a null pointer can only be passed to memcpy() if the copy size is 0.  Cast to void required by function signature and safe as no alignment requirement and copy length specified in bytes. */
 8006084:	68fb      	ldr	r3, [r7, #12]
 8006086:	6858      	ldr	r0, [r3, #4]
 8006088:	68fb      	ldr	r3, [r7, #12]
 800608a:	6c1b      	ldr	r3, [r3, #64]	; 0x40
 800608c:	461a      	mov	r2, r3
 800608e:	68b9      	ldr	r1, [r7, #8]
 8006090:	f001 ff2e 	bl	8007ef0 <memcpy>
		pxQueue->pcWriteTo += pxQueue->uxItemSize; /*lint !e9016 Pointer arithmetic on char types ok, especially in this use case where it is the clearest way of conveying intent. */
 8006094:	68fb      	ldr	r3, [r7, #12]
 8006096:	685a      	ldr	r2, [r3, #4]
 8006098:	68fb      	ldr	r3, [r7, #12]
 800609a:	6c1b      	ldr	r3, [r3, #64]	; 0x40
 800609c:	441a      	add	r2, r3
 800609e:	68fb      	ldr	r3, [r7, #12]
 80060a0:	605a      	str	r2, [r3, #4]
		if( pxQueue->pcWriteTo >= pxQueue->u.xQueue.pcTail ) /*lint !e946 MISRA exception justified as comparison of pointers is the cleanest solution. */
 80060a2:	68fb      	ldr	r3, [r7, #12]
 80060a4:	685a      	ldr	r2, [r3, #4]
 80060a6:	68fb      	ldr	r3, [r7, #12]
 80060a8:	689b      	ldr	r3, [r3, #8]
 80060aa:	429a      	cmp	r2, r3
 80060ac:	d32b      	bcc.n	8006106 <prvCopyDataToQueue+0xc2>
		{
			pxQueue->pcWriteTo = pxQueue->pcHead;
 80060ae:	68fb      	ldr	r3, [r7, #12]
 80060b0:	681a      	ldr	r2, [r3, #0]
 80060b2:	68fb      	ldr	r3, [r7, #12]
 80060b4:	605a      	str	r2, [r3, #4]
 80060b6:	e026      	b.n	8006106 <prvCopyDataToQueue+0xc2>
			mtCOVERAGE_TEST_MARKER();
		}
	}
	else
	{
		( void ) memcpy( ( void * ) pxQueue->u.xQueue.pcReadFrom, pvItemToQueue, ( size_t ) pxQueue->uxItemSize ); /*lint !e961 !e9087 !e418 MISRA exception as the casts are only redundant for some ports.  Cast to void required by function signature and safe as no alignment requirement and copy length specified in bytes.  Assert checks null pointer only used when length is 0. */
 80060b8:	68fb      	ldr	r3, [r7, #12]
 80060ba:	68d8      	ldr	r0, [r3, #12]
 80060bc:	68fb      	ldr	r3, [r7, #12]
 80060be:	6c1b      	ldr	r3, [r3, #64]	; 0x40
 80060c0:	461a      	mov	r2, r3
 80060c2:	68b9      	ldr	r1, [r7, #8]
 80060c4:	f001 ff14 	bl	8007ef0 <memcpy>
		pxQueue->u.xQueue.pcReadFrom -= pxQueue->uxItemSize;
 80060c8:	68fb      	ldr	r3, [r7, #12]
 80060ca:	68da      	ldr	r2, [r3, #12]
 80060cc:	68fb      	ldr	r3, [r7, #12]
 80060ce:	6c1b      	ldr	r3, [r3, #64]	; 0x40
 80060d0:	425b      	negs	r3, r3
 80060d2:	441a      	add	r2, r3
 80060d4:	68fb      	ldr	r3, [r7, #12]
 80060d6:	60da      	str	r2, [r3, #12]
		if( pxQueue->u.xQueue.pcReadFrom < pxQueue->pcHead ) /*lint !e946 MISRA exception justified as comparison of pointers is the cleanest solution. */
 80060d8:	68fb      	ldr	r3, [r7, #12]
 80060da:	68da      	ldr	r2, [r3, #12]
 80060dc:	68fb      	ldr	r3, [r7, #12]
 80060de:	681b      	ldr	r3, [r3, #0]
 80060e0:	429a      	cmp	r2, r3
 80060e2:	d207      	bcs.n	80060f4 <prvCopyDataToQueue+0xb0>
		{
			pxQueue->u.xQueue.pcReadFrom = ( pxQueue->u.xQueue.pcTail - pxQueue->uxItemSize );
 80060e4:	68fb      	ldr	r3, [r7, #12]
 80060e6:	689a      	ldr	r2, [r3, #8]
 80060e8:	68fb      	ldr	r3, [r7, #12]
 80060ea:	6c1b      	ldr	r3, [r3, #64]	; 0x40
 80060ec:	425b      	negs	r3, r3
 80060ee:	441a      	add	r2, r3
 80060f0:	68fb      	ldr	r3, [r7, #12]
 80060f2:	60da      	str	r2, [r3, #12]
		else
		{
			mtCOVERAGE_TEST_MARKER();
		}

		if( xPosition == queueOVERWRITE )
 80060f4:	687b      	ldr	r3, [r7, #4]
 80060f6:	2b02      	cmp	r3, #2
 80060f8:	d105      	bne.n	8006106 <prvCopyDataToQueue+0xc2>
		{
			if( uxMessagesWaiting > ( UBaseType_t ) 0 )
 80060fa:	693b      	ldr	r3, [r7, #16]
 80060fc:	2b00      	cmp	r3, #0
 80060fe:	d002      	beq.n	8006106 <prvCopyDataToQueue+0xc2>
			{
				/* An item is not being added but overwritten, so subtract
				one from the recorded number of items in the queue so when
				one is added again below the number of recorded items remains
				correct. */
				--uxMessagesWaiting;
 8006100:	693b      	ldr	r3, [r7, #16]
 8006102:	3b01      	subs	r3, #1
 8006104:	613b      	str	r3, [r7, #16]
		{
			mtCOVERAGE_TEST_MARKER();
		}
	}

	pxQueue->uxMessagesWaiting = uxMessagesWaiting + ( UBaseType_t ) 1;
 8006106:	693b      	ldr	r3, [r7, #16]
 8006108:	1c5a      	adds	r2, r3, #1
 800610a:	68fb      	ldr	r3, [r7, #12]
 800610c:	639a      	str	r2, [r3, #56]	; 0x38

	return xReturn;
 800610e:	697b      	ldr	r3, [r7, #20]
}
 8006110:	4618      	mov	r0, r3
 8006112:	3718      	adds	r7, #24
 8006114:	46bd      	mov	sp, r7
 8006116:	bd80      	pop	{r7, pc}

08006118 <prvCopyDataFromQueue>:
/*-----------------------------------------------------------*/

static void prvCopyDataFromQueue( Queue_t * const pxQueue, void * const pvBuffer )
{
 8006118:	b580      	push	{r7, lr}
 800611a:	b082      	sub	sp, #8
 800611c:	af00      	add	r7, sp, #0
 800611e:	6078      	str	r0, [r7, #4]
 8006120:	6039      	str	r1, [r7, #0]
	if( pxQueue->uxItemSize != ( UBaseType_t ) 0 )
 8006122:	687b      	ldr	r3, [r7, #4]
 8006124:	6c1b      	ldr	r3, [r3, #64]	; 0x40
 8006126:	2b00      	cmp	r3, #0
 8006128:	d018      	beq.n	800615c <prvCopyDataFromQueue+0x44>
	{
		pxQueue->u.xQueue.pcReadFrom += pxQueue->uxItemSize; /*lint !e9016 Pointer arithmetic on char types ok, especially in this use case where it is the clearest way of conveying intent. */
 800612a:	687b      	ldr	r3, [r7, #4]
 800612c:	68da      	ldr	r2, [r3, #12]
 800612e:	687b      	ldr	r3, [r7, #4]
 8006130:	6c1b      	ldr	r3, [r3, #64]	; 0x40
 8006132:	441a      	add	r2, r3
 8006134:	687b      	ldr	r3, [r7, #4]
 8006136:	60da      	str	r2, [r3, #12]
		if( pxQueue->u.xQueue.pcReadFrom >= pxQueue->u.xQueue.pcTail ) /*lint !e946 MISRA exception justified as use of the relational operator is the cleanest solutions. */
 8006138:	687b      	ldr	r3, [r7, #4]
 800613a:	68da      	ldr	r2, [r3, #12]
 800613c:	687b      	ldr	r3, [r7, #4]
 800613e:	689b      	ldr	r3, [r3, #8]
 8006140:	429a      	cmp	r2, r3
 8006142:	d303      	bcc.n	800614c <prvCopyDataFromQueue+0x34>
		{
			pxQueue->u.xQueue.pcReadFrom = pxQueue->pcHead;
 8006144:	687b      	ldr	r3, [r7, #4]
 8006146:	681a      	ldr	r2, [r3, #0]
 8006148:	687b      	ldr	r3, [r7, #4]
 800614a:	60da      	str	r2, [r3, #12]
		}
		else
		{
			mtCOVERAGE_TEST_MARKER();
		}
		( void ) memcpy( ( void * ) pvBuffer, ( void * ) pxQueue->u.xQueue.pcReadFrom, ( size_t ) pxQueue->uxItemSize ); /*lint !e961 !e418 !e9087 MISRA exception as the casts are only redundant for some ports.  Also previous logic ensures a null pointer can only be passed to memcpy() when the count is 0.  Cast to void required by function signature and safe as no alignment requirement and copy length specified in bytes. */
 800614c:	687b      	ldr	r3, [r7, #4]
 800614e:	68d9      	ldr	r1, [r3, #12]
 8006150:	687b      	ldr	r3, [r7, #4]
 8006152:	6c1b      	ldr	r3, [r3, #64]	; 0x40
 8006154:	461a      	mov	r2, r3
 8006156:	6838      	ldr	r0, [r7, #0]
 8006158:	f001 feca 	bl	8007ef0 <memcpy>
	}
}
 800615c:	bf00      	nop
 800615e:	3708      	adds	r7, #8
 8006160:	46bd      	mov	sp, r7
 8006162:	bd80      	pop	{r7, pc}

08006164 <prvUnlockQueue>:
/*-----------------------------------------------------------*/

static void prvUnlockQueue( Queue_t * const pxQueue )
{
 8006164:	b580      	push	{r7, lr}
 8006166:	b084      	sub	sp, #16
 8006168:	af00      	add	r7, sp, #0
 800616a:	6078      	str	r0, [r7, #4]

	/* The lock counts contains the number of extra data items placed or
	removed from the queue while the queue was locked.  When a queue is
	locked items can be added or removed, but the event lists cannot be
	updated. */
	taskENTER_CRITICAL();
 800616c:	f001 fb9a 	bl	80078a4 <vPortEnterCritical>
	{
		int8_t cTxLock = pxQueue->cTxLock;
 8006170:	687b      	ldr	r3, [r7, #4]
 8006172:	f893 3045 	ldrb.w	r3, [r3, #69]	; 0x45
 8006176:	73fb      	strb	r3, [r7, #15]

		/* See if data was added to the queue while it was locked. */
		while( cTxLock > queueLOCKED_UNMODIFIED )
 8006178:	e011      	b.n	800619e <prvUnlockQueue+0x3a>
			}
			#else /* configUSE_QUEUE_SETS */
			{
				/* Tasks that are removed from the event list will get added to
				the pending ready list as the scheduler is still suspended. */
				if( listLIST_IS_EMPTY( &( pxQueue->xTasksWaitingToReceive ) ) == pdFALSE )
 800617a:	687b      	ldr	r3, [r7, #4]
 800617c:	6a5b      	ldr	r3, [r3, #36]	; 0x24
 800617e:	2b00      	cmp	r3, #0
 8006180:	d012      	beq.n	80061a8 <prvUnlockQueue+0x44>
				{
					if( xTaskRemoveFromEventList( &( pxQueue->xTasksWaitingToReceive ) ) != pdFALSE )
 8006182:	687b      	ldr	r3, [r7, #4]
 8006184:	3324      	adds	r3, #36	; 0x24
 8006186:	4618      	mov	r0, r3
 8006188:	f000 fca8 	bl	8006adc <xTaskRemoveFromEventList>
 800618c:	4603      	mov	r3, r0
 800618e:	2b00      	cmp	r3, #0
 8006190:	d001      	beq.n	8006196 <prvUnlockQueue+0x32>
					{
						/* The task waiting has a higher priority so record that
						a context switch is required. */
						vTaskMissedYield();
 8006192:	f000 fd7d 	bl	8006c90 <vTaskMissedYield>
					break;
				}
			}
			#endif /* configUSE_QUEUE_SETS */

			--cTxLock;
 8006196:	7bfb      	ldrb	r3, [r7, #15]
 8006198:	3b01      	subs	r3, #1
 800619a:	b2db      	uxtb	r3, r3
 800619c:	73fb      	strb	r3, [r7, #15]
		while( cTxLock > queueLOCKED_UNMODIFIED )
 800619e:	f997 300f 	ldrsb.w	r3, [r7, #15]
 80061a2:	2b00      	cmp	r3, #0
 80061a4:	dce9      	bgt.n	800617a <prvUnlockQueue+0x16>
 80061a6:	e000      	b.n	80061aa <prvUnlockQueue+0x46>
					break;
 80061a8:	bf00      	nop
		}

		pxQueue->cTxLock = queueUNLOCKED;
 80061aa:	687b      	ldr	r3, [r7, #4]
 80061ac:	22ff      	movs	r2, #255	; 0xff
 80061ae:	f883 2045 	strb.w	r2, [r3, #69]	; 0x45
	}
	taskEXIT_CRITICAL();
 80061b2:	f001 fba7 	bl	8007904 <vPortExitCritical>

	/* Do the same for the Rx lock. */
	taskENTER_CRITICAL();
 80061b6:	f001 fb75 	bl	80078a4 <vPortEnterCritical>
	{
		int8_t cRxLock = pxQueue->cRxLock;
 80061ba:	687b      	ldr	r3, [r7, #4]
 80061bc:	f893 3044 	ldrb.w	r3, [r3, #68]	; 0x44
 80061c0:	73bb      	strb	r3, [r7, #14]

		while( cRxLock > queueLOCKED_UNMODIFIED )
 80061c2:	e011      	b.n	80061e8 <prvUnlockQueue+0x84>
		{
			if( listLIST_IS_EMPTY( &( pxQueue->xTasksWaitingToSend ) ) == pdFALSE )
 80061c4:	687b      	ldr	r3, [r7, #4]
 80061c6:	691b      	ldr	r3, [r3, #16]
 80061c8:	2b00      	cmp	r3, #0
 80061ca:	d012      	beq.n	80061f2 <prvUnlockQueue+0x8e>
			{
				if( xTaskRemoveFromEventList( &( pxQueue->xTasksWaitingToSend ) ) != pdFALSE )
 80061cc:	687b      	ldr	r3, [r7, #4]
 80061ce:	3310      	adds	r3, #16
 80061d0:	4618      	mov	r0, r3
 80061d2:	f000 fc83 	bl	8006adc <xTaskRemoveFromEventList>
 80061d6:	4603      	mov	r3, r0
 80061d8:	2b00      	cmp	r3, #0
 80061da:	d001      	beq.n	80061e0 <prvUnlockQueue+0x7c>
				{
					vTaskMissedYield();
 80061dc:	f000 fd58 	bl	8006c90 <vTaskMissedYield>
				else
				{
					mtCOVERAGE_TEST_MARKER();
				}

				--cRxLock;
 80061e0:	7bbb      	ldrb	r3, [r7, #14]
 80061e2:	3b01      	subs	r3, #1
 80061e4:	b2db      	uxtb	r3, r3
 80061e6:	73bb      	strb	r3, [r7, #14]
		while( cRxLock > queueLOCKED_UNMODIFIED )
 80061e8:	f997 300e 	ldrsb.w	r3, [r7, #14]
 80061ec:	2b00      	cmp	r3, #0
 80061ee:	dce9      	bgt.n	80061c4 <prvUnlockQueue+0x60>
 80061f0:	e000      	b.n	80061f4 <prvUnlockQueue+0x90>
			}
			else
			{
				break;
 80061f2:	bf00      	nop
			}
		}

		pxQueue->cRxLock = queueUNLOCKED;
 80061f4:	687b      	ldr	r3, [r7, #4]
 80061f6:	22ff      	movs	r2, #255	; 0xff
 80061f8:	f883 2044 	strb.w	r2, [r3, #68]	; 0x44
	}
	taskEXIT_CRITICAL();
 80061fc:	f001 fb82 	bl	8007904 <vPortExitCritical>
}
 8006200:	bf00      	nop
 8006202:	3710      	adds	r7, #16
 8006204:	46bd      	mov	sp, r7
 8006206:	bd80      	pop	{r7, pc}

08006208 <prvIsQueueEmpty>:
/*-----------------------------------------------------------*/

static BaseType_t prvIsQueueEmpty( const Queue_t *pxQueue )
{
 8006208:	b580      	push	{r7, lr}
 800620a:	b084      	sub	sp, #16
 800620c:	af00      	add	r7, sp, #0
 800620e:	6078      	str	r0, [r7, #4]
BaseType_t xReturn;

	taskENTER_CRITICAL();
 8006210:	f001 fb48 	bl	80078a4 <vPortEnterCritical>
	{
		if( pxQueue->uxMessagesWaiting == ( UBaseType_t )  0 )
 8006214:	687b      	ldr	r3, [r7, #4]
 8006216:	6b9b      	ldr	r3, [r3, #56]	; 0x38
 8006218:	2b00      	cmp	r3, #0
 800621a:	d102      	bne.n	8006222 <prvIsQueueEmpty+0x1a>
		{
			xReturn = pdTRUE;
 800621c:	2301      	movs	r3, #1
 800621e:	60fb      	str	r3, [r7, #12]
 8006220:	e001      	b.n	8006226 <prvIsQueueEmpty+0x1e>
		}
		else
		{
			xReturn = pdFALSE;
 8006222:	2300      	movs	r3, #0
 8006224:	60fb      	str	r3, [r7, #12]
		}
	}
	taskEXIT_CRITICAL();
 8006226:	f001 fb6d 	bl	8007904 <vPortExitCritical>

	return xReturn;
 800622a:	68fb      	ldr	r3, [r7, #12]
}
 800622c:	4618      	mov	r0, r3
 800622e:	3710      	adds	r7, #16
 8006230:	46bd      	mov	sp, r7
 8006232:	bd80      	pop	{r7, pc}

08006234 <prvIsQueueFull>:
	return xReturn;
} /*lint !e818 xQueue could not be pointer to const because it is a typedef. */
/*-----------------------------------------------------------*/

static BaseType_t prvIsQueueFull( const Queue_t *pxQueue )
{
 8006234:	b580      	push	{r7, lr}
 8006236:	b084      	sub	sp, #16
 8006238:	af00      	add	r7, sp, #0
 800623a:	6078      	str	r0, [r7, #4]
BaseType_t xReturn;

	taskENTER_CRITICAL();
 800623c:	f001 fb32 	bl	80078a4 <vPortEnterCritical>
	{
		if( pxQueue->uxMessagesWaiting == pxQueue->uxLength )
 8006240:	687b      	ldr	r3, [r7, #4]
 8006242:	6b9a      	ldr	r2, [r3, #56]	; 0x38
 8006244:	687b      	ldr	r3, [r7, #4]
 8006246:	6bdb      	ldr	r3, [r3, #60]	; 0x3c
 8006248:	429a      	cmp	r2, r3
 800624a:	d102      	bne.n	8006252 <prvIsQueueFull+0x1e>
		{
			xReturn = pdTRUE;
 800624c:	2301      	movs	r3, #1
 800624e:	60fb      	str	r3, [r7, #12]
 8006250:	e001      	b.n	8006256 <prvIsQueueFull+0x22>
		}
		else
		{
			xReturn = pdFALSE;
 8006252:	2300      	movs	r3, #0
 8006254:	60fb      	str	r3, [r7, #12]
		}
	}
	taskEXIT_CRITICAL();
 8006256:	f001 fb55 	bl	8007904 <vPortExitCritical>

	return xReturn;
 800625a:	68fb      	ldr	r3, [r7, #12]
}
 800625c:	4618      	mov	r0, r3
 800625e:	3710      	adds	r7, #16
 8006260:	46bd      	mov	sp, r7
 8006262:	bd80      	pop	{r7, pc}

08006264 <vQueueAddToRegistry>:
/*-----------------------------------------------------------*/

#if ( configQUEUE_REGISTRY_SIZE > 0 )

	void vQueueAddToRegistry( QueueHandle_t xQueue, const char *pcQueueName ) /*lint !e971 Unqualified char types are allowed for strings and single characters only. */
	{
 8006264:	b480      	push	{r7}
 8006266:	b085      	sub	sp, #20
 8006268:	af00      	add	r7, sp, #0
 800626a:	6078      	str	r0, [r7, #4]
 800626c:	6039      	str	r1, [r7, #0]
	UBaseType_t ux;

		/* See if there is an empty space in the registry.  A NULL name denotes
		a free slot. */
		for( ux = ( UBaseType_t ) 0U; ux < ( UBaseType_t ) configQUEUE_REGISTRY_SIZE; ux++ )
 800626e:	2300      	movs	r3, #0
 8006270:	60fb      	str	r3, [r7, #12]
 8006272:	e014      	b.n	800629e <vQueueAddToRegistry+0x3a>
		{
			if( xQueueRegistry[ ux ].pcQueueName == NULL )
 8006274:	4a0f      	ldr	r2, [pc, #60]	; (80062b4 <vQueueAddToRegistry+0x50>)
 8006276:	68fb      	ldr	r3, [r7, #12]
 8006278:	f852 3033 	ldr.w	r3, [r2, r3, lsl #3]
 800627c:	2b00      	cmp	r3, #0
 800627e:	d10b      	bne.n	8006298 <vQueueAddToRegistry+0x34>
			{
				/* Store the information on this queue. */
				xQueueRegistry[ ux ].pcQueueName = pcQueueName;
 8006280:	490c      	ldr	r1, [pc, #48]	; (80062b4 <vQueueAddToRegistry+0x50>)
 8006282:	68fb      	ldr	r3, [r7, #12]
 8006284:	683a      	ldr	r2, [r7, #0]
 8006286:	f841 2033 	str.w	r2, [r1, r3, lsl #3]
				xQueueRegistry[ ux ].xHandle = xQueue;
 800628a:	4a0a      	ldr	r2, [pc, #40]	; (80062b4 <vQueueAddToRegistry+0x50>)
 800628c:	68fb      	ldr	r3, [r7, #12]
 800628e:	00db      	lsls	r3, r3, #3
 8006290:	4413      	add	r3, r2
 8006292:	687a      	ldr	r2, [r7, #4]
 8006294:	605a      	str	r2, [r3, #4]

				traceQUEUE_REGISTRY_ADD( xQueue, pcQueueName );
				break;
 8006296:	e006      	b.n	80062a6 <vQueueAddToRegistry+0x42>
		for( ux = ( UBaseType_t ) 0U; ux < ( UBaseType_t ) configQUEUE_REGISTRY_SIZE; ux++ )
 8006298:	68fb      	ldr	r3, [r7, #12]
 800629a:	3301      	adds	r3, #1
 800629c:	60fb      	str	r3, [r7, #12]
 800629e:	68fb      	ldr	r3, [r7, #12]
 80062a0:	2b07      	cmp	r3, #7
 80062a2:	d9e7      	bls.n	8006274 <vQueueAddToRegistry+0x10>
			else
			{
				mtCOVERAGE_TEST_MARKER();
			}
		}
	}
 80062a4:	bf00      	nop
 80062a6:	bf00      	nop
 80062a8:	3714      	adds	r7, #20
 80062aa:	46bd      	mov	sp, r7
 80062ac:	f85d 7b04 	ldr.w	r7, [sp], #4
 80062b0:	4770      	bx	lr
 80062b2:	bf00      	nop
 80062b4:	20000678 	.word	0x20000678

080062b8 <vQueueWaitForMessageRestricted>:
/*-----------------------------------------------------------*/

#if ( configUSE_TIMERS == 1 )

	void vQueueWaitForMessageRestricted( QueueHandle_t xQueue, TickType_t xTicksToWait, const BaseType_t xWaitIndefinitely )
	{
 80062b8:	b580      	push	{r7, lr}
 80062ba:	b086      	sub	sp, #24
 80062bc:	af00      	add	r7, sp, #0
 80062be:	60f8      	str	r0, [r7, #12]
 80062c0:	60b9      	str	r1, [r7, #8]
 80062c2:	607a      	str	r2, [r7, #4]
	Queue_t * const pxQueue = xQueue;
 80062c4:	68fb      	ldr	r3, [r7, #12]
 80062c6:	617b      	str	r3, [r7, #20]
		will not actually cause the task to block, just place it on a blocked
		list.  It will not block until the scheduler is unlocked - at which
		time a yield will be performed.  If an item is added to the queue while
		the queue is locked, and the calling task blocks on the queue, then the
		calling task will be immediately unblocked when the queue is unlocked. */
		prvLockQueue( pxQueue );
 80062c8:	f001 faec 	bl	80078a4 <vPortEnterCritical>
 80062cc:	697b      	ldr	r3, [r7, #20]
 80062ce:	f893 3044 	ldrb.w	r3, [r3, #68]	; 0x44
 80062d2:	b25b      	sxtb	r3, r3
 80062d4:	f1b3 3fff 	cmp.w	r3, #4294967295	; 0xffffffff
 80062d8:	d103      	bne.n	80062e2 <vQueueWaitForMessageRestricted+0x2a>
 80062da:	697b      	ldr	r3, [r7, #20]
 80062dc:	2200      	movs	r2, #0
 80062de:	f883 2044 	strb.w	r2, [r3, #68]	; 0x44
 80062e2:	697b      	ldr	r3, [r7, #20]
 80062e4:	f893 3045 	ldrb.w	r3, [r3, #69]	; 0x45
 80062e8:	b25b      	sxtb	r3, r3
 80062ea:	f1b3 3fff 	cmp.w	r3, #4294967295	; 0xffffffff
 80062ee:	d103      	bne.n	80062f8 <vQueueWaitForMessageRestricted+0x40>
 80062f0:	697b      	ldr	r3, [r7, #20]
 80062f2:	2200      	movs	r2, #0
 80062f4:	f883 2045 	strb.w	r2, [r3, #69]	; 0x45
 80062f8:	f001 fb04 	bl	8007904 <vPortExitCritical>
		if( pxQueue->uxMessagesWaiting == ( UBaseType_t ) 0U )
 80062fc:	697b      	ldr	r3, [r7, #20]
 80062fe:	6b9b      	ldr	r3, [r3, #56]	; 0x38
 8006300:	2b00      	cmp	r3, #0
 8006302:	d106      	bne.n	8006312 <vQueueWaitForMessageRestricted+0x5a>
		{
			/* There is nothing in the queue, block for the specified period. */
			vTaskPlaceOnEventListRestricted( &( pxQueue->xTasksWaitingToReceive ), xTicksToWait, xWaitIndefinitely );
 8006304:	697b      	ldr	r3, [r7, #20]
 8006306:	3324      	adds	r3, #36	; 0x24
 8006308:	687a      	ldr	r2, [r7, #4]
 800630a:	68b9      	ldr	r1, [r7, #8]
 800630c:	4618      	mov	r0, r3
 800630e:	f000 fbb9 	bl	8006a84 <vTaskPlaceOnEventListRestricted>
		}
		else
		{
			mtCOVERAGE_TEST_MARKER();
		}
		prvUnlockQueue( pxQueue );
 8006312:	6978      	ldr	r0, [r7, #20]
 8006314:	f7ff ff26 	bl	8006164 <prvUnlockQueue>
	}
 8006318:	bf00      	nop
 800631a:	3718      	adds	r7, #24
 800631c:	46bd      	mov	sp, r7
 800631e:	bd80      	pop	{r7, pc}

08006320 <xTaskCreate>:
							const char * const pcName,		/*lint !e971 Unqualified char types are allowed for strings and single characters only. */
							const configSTACK_DEPTH_TYPE usStackDepth,
							void * const pvParameters,
							UBaseType_t uxPriority,
							TaskHandle_t * const pxCreatedTask )
	{
 8006320:	b580      	push	{r7, lr}
 8006322:	b08c      	sub	sp, #48	; 0x30
 8006324:	af04      	add	r7, sp, #16
 8006326:	60f8      	str	r0, [r7, #12]
 8006328:	60b9      	str	r1, [r7, #8]
 800632a:	603b      	str	r3, [r7, #0]
 800632c:	4613      	mov	r3, r2
 800632e:	80fb      	strh	r3, [r7, #6]
		#else /* portSTACK_GROWTH */
		{
		StackType_t *pxStack;

			/* Allocate space for the stack used by the task being created. */
			pxStack = pvPortMalloc( ( ( ( size_t ) usStackDepth ) * sizeof( StackType_t ) ) ); /*lint !e9079 All values returned by pvPortMalloc() have at least the alignment required by the MCU's stack and this allocation is the stack. */
 8006330:	88fb      	ldrh	r3, [r7, #6]
 8006332:	009b      	lsls	r3, r3, #2
 8006334:	4618      	mov	r0, r3
 8006336:	f001 fbd7 	bl	8007ae8 <pvPortMalloc>
 800633a:	6178      	str	r0, [r7, #20]

			if( pxStack != NULL )
 800633c:	697b      	ldr	r3, [r7, #20]
 800633e:	2b00      	cmp	r3, #0
 8006340:	d00e      	beq.n	8006360 <xTaskCreate+0x40>
			{
				/* Allocate space for the TCB. */
				pxNewTCB = ( TCB_t * ) pvPortMalloc( sizeof( TCB_t ) ); /*lint !e9087 !e9079 All values returned by pvPortMalloc() have at least the alignment required by the MCU's stack, and the first member of TCB_t is always a pointer to the task's stack. */
 8006342:	2058      	movs	r0, #88	; 0x58
 8006344:	f001 fbd0 	bl	8007ae8 <pvPortMalloc>
 8006348:	61f8      	str	r0, [r7, #28]

				if( pxNewTCB != NULL )
 800634a:	69fb      	ldr	r3, [r7, #28]
 800634c:	2b00      	cmp	r3, #0
 800634e:	d003      	beq.n	8006358 <xTaskCreate+0x38>
				{
					/* Store the stack location in the TCB. */
					pxNewTCB->pxStack = pxStack;
 8006350:	69fb      	ldr	r3, [r7, #28]
 8006352:	697a      	ldr	r2, [r7, #20]
 8006354:	631a      	str	r2, [r3, #48]	; 0x30
 8006356:	e005      	b.n	8006364 <xTaskCreate+0x44>
				}
				else
				{
					/* The stack cannot be used as the TCB was not created.  Free
					it again. */
					vPortFree( pxStack );
 8006358:	6978      	ldr	r0, [r7, #20]
 800635a:	f001 fc89 	bl	8007c70 <vPortFree>
 800635e:	e001      	b.n	8006364 <xTaskCreate+0x44>
				}
			}
			else
			{
				pxNewTCB = NULL;
 8006360:	2300      	movs	r3, #0
 8006362:	61fb      	str	r3, [r7, #28]
			}
		}
		#endif /* portSTACK_GROWTH */

		if( pxNewTCB != NULL )
 8006364:	69fb      	ldr	r3, [r7, #28]
 8006366:	2b00      	cmp	r3, #0
 8006368:	d013      	beq.n	8006392 <xTaskCreate+0x72>
				task was created dynamically in case it is later deleted. */
				pxNewTCB->ucStaticallyAllocated = tskDYNAMICALLY_ALLOCATED_STACK_AND_TCB;
			}
			#endif /* tskSTATIC_AND_DYNAMIC_ALLOCATION_POSSIBLE */

			prvInitialiseNewTask( pxTaskCode, pcName, ( uint32_t ) usStackDepth, pvParameters, uxPriority, pxCreatedTask, pxNewTCB, NULL );
 800636a:	88fa      	ldrh	r2, [r7, #6]
 800636c:	2300      	movs	r3, #0
 800636e:	9303      	str	r3, [sp, #12]
 8006370:	69fb      	ldr	r3, [r7, #28]
 8006372:	9302      	str	r3, [sp, #8]
 8006374:	6afb      	ldr	r3, [r7, #44]	; 0x2c
 8006376:	9301      	str	r3, [sp, #4]
 8006378:	6abb      	ldr	r3, [r7, #40]	; 0x28
 800637a:	9300      	str	r3, [sp, #0]
 800637c:	683b      	ldr	r3, [r7, #0]
 800637e:	68b9      	ldr	r1, [r7, #8]
 8006380:	68f8      	ldr	r0, [r7, #12]
 8006382:	f000 f80e 	bl	80063a2 <prvInitialiseNewTask>
			prvAddNewTaskToReadyList( pxNewTCB );
 8006386:	69f8      	ldr	r0, [r7, #28]
 8006388:	f000 f89a 	bl	80064c0 <prvAddNewTaskToReadyList>
			xReturn = pdPASS;
 800638c:	2301      	movs	r3, #1
 800638e:	61bb      	str	r3, [r7, #24]
 8006390:	e002      	b.n	8006398 <xTaskCreate+0x78>
		}
		else
		{
			xReturn = errCOULD_NOT_ALLOCATE_REQUIRED_MEMORY;
 8006392:	f04f 33ff 	mov.w	r3, #4294967295	; 0xffffffff
 8006396:	61bb      	str	r3, [r7, #24]
		}

		return xReturn;
 8006398:	69bb      	ldr	r3, [r7, #24]
	}
 800639a:	4618      	mov	r0, r3
 800639c:	3720      	adds	r7, #32
 800639e:	46bd      	mov	sp, r7
 80063a0:	bd80      	pop	{r7, pc}

080063a2 <prvInitialiseNewTask>:
									void * const pvParameters,
									UBaseType_t uxPriority,
									TaskHandle_t * const pxCreatedTask,
									TCB_t *pxNewTCB,
									const MemoryRegion_t * const xRegions )
{
 80063a2:	b580      	push	{r7, lr}
 80063a4:	b088      	sub	sp, #32
 80063a6:	af00      	add	r7, sp, #0
 80063a8:	60f8      	str	r0, [r7, #12]
 80063aa:	60b9      	str	r1, [r7, #8]
 80063ac:	607a      	str	r2, [r7, #4]
 80063ae:	603b      	str	r3, [r7, #0]

	/* Avoid dependency on memset() if it is not required. */
	#if( tskSET_NEW_STACKS_TO_KNOWN_VALUE == 1 )
	{
		/* Fill the stack with a known value to assist debugging. */
		( void ) memset( pxNewTCB->pxStack, ( int ) tskSTACK_FILL_BYTE, ( size_t ) ulStackDepth * sizeof( StackType_t ) );
 80063b0:	6b3b      	ldr	r3, [r7, #48]	; 0x30
 80063b2:	6b18      	ldr	r0, [r3, #48]	; 0x30
 80063b4:	687b      	ldr	r3, [r7, #4]
 80063b6:	009b      	lsls	r3, r3, #2
 80063b8:	461a      	mov	r2, r3
 80063ba:	21a5      	movs	r1, #165	; 0xa5
 80063bc:	f001 fda6 	bl	8007f0c <memset>
	grows from high memory to low (as per the 80x86) or vice versa.
	portSTACK_GROWTH is used to make the result positive or negative as required
	by the port. */
	#if( portSTACK_GROWTH < 0 )
	{
		pxTopOfStack = &( pxNewTCB->pxStack[ ulStackDepth - ( uint32_t ) 1 ] );
 80063c0:	6b3b      	ldr	r3, [r7, #48]	; 0x30
 80063c2:	6b1a      	ldr	r2, [r3, #48]	; 0x30
 80063c4:	687b      	ldr	r3, [r7, #4]
 80063c6:	f103 4380 	add.w	r3, r3, #1073741824	; 0x40000000
 80063ca:	3b01      	subs	r3, #1
 80063cc:	009b      	lsls	r3, r3, #2
 80063ce:	4413      	add	r3, r2
 80063d0:	61bb      	str	r3, [r7, #24]
		pxTopOfStack = ( StackType_t * ) ( ( ( portPOINTER_SIZE_TYPE ) pxTopOfStack ) & ( ~( ( portPOINTER_SIZE_TYPE ) portBYTE_ALIGNMENT_MASK ) ) ); /*lint !e923 !e9033 !e9078 MISRA exception.  Avoiding casts between pointers and integers is not practical.  Size differences accounted for using portPOINTER_SIZE_TYPE type.  Checked by assert(). */
 80063d2:	69bb      	ldr	r3, [r7, #24]
 80063d4:	f023 0307 	bic.w	r3, r3, #7
 80063d8:	61bb      	str	r3, [r7, #24]

		/* Check the alignment of the calculated top of stack is correct. */
		configASSERT( ( ( ( portPOINTER_SIZE_TYPE ) pxTopOfStack & ( portPOINTER_SIZE_TYPE ) portBYTE_ALIGNMENT_MASK ) == 0UL ) );
 80063da:	69bb      	ldr	r3, [r7, #24]
 80063dc:	f003 0307 	and.w	r3, r3, #7
 80063e0:	2b00      	cmp	r3, #0
 80063e2:	d00a      	beq.n	80063fa <prvInitialiseNewTask+0x58>
	__asm volatile
 80063e4:	f04f 0350 	mov.w	r3, #80	; 0x50
 80063e8:	f383 8811 	msr	BASEPRI, r3
 80063ec:	f3bf 8f6f 	isb	sy
 80063f0:	f3bf 8f4f 	dsb	sy
 80063f4:	617b      	str	r3, [r7, #20]
}
 80063f6:	bf00      	nop
 80063f8:	e7fe      	b.n	80063f8 <prvInitialiseNewTask+0x56>
		pxNewTCB->pxEndOfStack = pxNewTCB->pxStack + ( ulStackDepth - ( uint32_t ) 1 );
	}
	#endif /* portSTACK_GROWTH */

	/* Store the task name in the TCB. */
	if( pcName != NULL )
 80063fa:	68bb      	ldr	r3, [r7, #8]
 80063fc:	2b00      	cmp	r3, #0
 80063fe:	d01f      	beq.n	8006440 <prvInitialiseNewTask+0x9e>
	{
		for( x = ( UBaseType_t ) 0; x < ( UBaseType_t ) configMAX_TASK_NAME_LEN; x++ )
 8006400:	2300      	movs	r3, #0
 8006402:	61fb      	str	r3, [r7, #28]
 8006404:	e012      	b.n	800642c <prvInitialiseNewTask+0x8a>
		{
			pxNewTCB->pcTaskName[ x ] = pcName[ x ];
 8006406:	68ba      	ldr	r2, [r7, #8]
 8006408:	69fb      	ldr	r3, [r7, #28]
 800640a:	4413      	add	r3, r2
 800640c:	7819      	ldrb	r1, [r3, #0]
 800640e:	6b3a      	ldr	r2, [r7, #48]	; 0x30
 8006410:	69fb      	ldr	r3, [r7, #28]
 8006412:	4413      	add	r3, r2
 8006414:	3334      	adds	r3, #52	; 0x34
 8006416:	460a      	mov	r2, r1
 8006418:	701a      	strb	r2, [r3, #0]

			/* Don't copy all configMAX_TASK_NAME_LEN if the string is shorter than
			configMAX_TASK_NAME_LEN characters just in case the memory after the
			string is not accessible (extremely unlikely). */
			if( pcName[ x ] == ( char ) 0x00 )
 800641a:	68ba      	ldr	r2, [r7, #8]
 800641c:	69fb      	ldr	r3, [r7, #28]
 800641e:	4413      	add	r3, r2
 8006420:	781b      	ldrb	r3, [r3, #0]
 8006422:	2b00      	cmp	r3, #0
 8006424:	d006      	beq.n	8006434 <prvInitialiseNewTask+0x92>
		for( x = ( UBaseType_t ) 0; x < ( UBaseType_t ) configMAX_TASK_NAME_LEN; x++ )
 8006426:	69fb      	ldr	r3, [r7, #28]
 8006428:	3301      	adds	r3, #1
 800642a:	61fb      	str	r3, [r7, #28]
 800642c:	69fb      	ldr	r3, [r7, #28]
 800642e:	2b09      	cmp	r3, #9
 8006430:	d9e9      	bls.n	8006406 <prvInitialiseNewTask+0x64>
 8006432:	e000      	b.n	8006436 <prvInitialiseNewTask+0x94>
			{
				break;
 8006434:	bf00      	nop
			}
		}

		/* Ensure the name string is terminated in the case that the string length
		was greater or equal to configMAX_TASK_NAME_LEN. */
		pxNewTCB->pcTaskName[ configMAX_TASK_NAME_LEN - 1 ] = '\0';
 8006436:	6b3b      	ldr	r3, [r7, #48]	; 0x30
 8006438:	2200      	movs	r2, #0
 800643a:	f883 203d 	strb.w	r2, [r3, #61]	; 0x3d
 800643e:	e003      	b.n	8006448 <prvInitialiseNewTask+0xa6>
	}
	else
	{
		/* The task has not been given a name, so just ensure there is a NULL
		terminator when it is read out. */
		pxNewTCB->pcTaskName[ 0 ] = 0x00;
 8006440:	6b3b      	ldr	r3, [r7, #48]	; 0x30
 8006442:	2200      	movs	r2, #0
 8006444:	f883 2034 	strb.w	r2, [r3, #52]	; 0x34
	}

	/* This is used as an array index so must ensure it's not too large.  First
	remove the privilege bit if one is present. */
	if( uxPriority >= ( UBaseType_t ) configMAX_PRIORITIES )
 8006448:	6abb      	ldr	r3, [r7, #40]	; 0x28
 800644a:	2b0f      	cmp	r3, #15
 800644c:	d901      	bls.n	8006452 <prvInitialiseNewTask+0xb0>
	{
		uxPriority = ( UBaseType_t ) configMAX_PRIORITIES - ( UBaseType_t ) 1U;
 800644e:	230f      	movs	r3, #15
 8006450:	62bb      	str	r3, [r7, #40]	; 0x28
	else
	{
		mtCOVERAGE_TEST_MARKER();
	}

	pxNewTCB->uxPriority = uxPriority;
 8006452:	6b3b      	ldr	r3, [r7, #48]	; 0x30
 8006454:	6aba      	ldr	r2, [r7, #40]	; 0x28
 8006456:	62da      	str	r2, [r3, #44]	; 0x2c
	#if ( configUSE_MUTEXES == 1 )
	{
		pxNewTCB->uxBasePriority = uxPriority;
 8006458:	6b3b      	ldr	r3, [r7, #48]	; 0x30
 800645a:	6aba      	ldr	r2, [r7, #40]	; 0x28
 800645c:	649a      	str	r2, [r3, #72]	; 0x48
		pxNewTCB->uxMutexesHeld = 0;
 800645e:	6b3b      	ldr	r3, [r7, #48]	; 0x30
 8006460:	2200      	movs	r2, #0
 8006462:	64da      	str	r2, [r3, #76]	; 0x4c
	}
	#endif /* configUSE_MUTEXES */

	vListInitialiseItem( &( pxNewTCB->xStateListItem ) );
 8006464:	6b3b      	ldr	r3, [r7, #48]	; 0x30
 8006466:	3304      	adds	r3, #4
 8006468:	4618      	mov	r0, r3
 800646a:	f7ff fa19 	bl	80058a0 <vListInitialiseItem>
	vListInitialiseItem( &( pxNewTCB->xEventListItem ) );
 800646e:	6b3b      	ldr	r3, [r7, #48]	; 0x30
 8006470:	3318      	adds	r3, #24
 8006472:	4618      	mov	r0, r3
 8006474:	f7ff fa14 	bl	80058a0 <vListInitialiseItem>

	/* Set the pxNewTCB as a link back from the ListItem_t.  This is so we can get
	back to	the containing TCB from a generic item in a list. */
	listSET_LIST_ITEM_OWNER( &( pxNewTCB->xStateListItem ), pxNewTCB );
 8006478:	6b3b      	ldr	r3, [r7, #48]	; 0x30
 800647a:	6b3a      	ldr	r2, [r7, #48]	; 0x30
 800647c:	611a      	str	r2, [r3, #16]

	/* Event lists are always in priority order. */
	listSET_LIST_ITEM_VALUE( &( pxNewTCB->xEventListItem ), ( TickType_t ) configMAX_PRIORITIES - ( TickType_t ) uxPriority ); /*lint !e961 MISRA exception as the casts are only redundant for some ports. */
 800647e:	6abb      	ldr	r3, [r7, #40]	; 0x28
 8006480:	f1c3 0210 	rsb	r2, r3, #16
 8006484:	6b3b      	ldr	r3, [r7, #48]	; 0x30
 8006486:	619a      	str	r2, [r3, #24]
	listSET_LIST_ITEM_OWNER( &( pxNewTCB->xEventListItem ), pxNewTCB );
 8006488:	6b3b      	ldr	r3, [r7, #48]	; 0x30
 800648a:	6b3a      	ldr	r2, [r7, #48]	; 0x30
 800648c:	625a      	str	r2, [r3, #36]	; 0x24
	}
	#endif

	#if ( configUSE_TASK_NOTIFICATIONS == 1 )
	{
		pxNewTCB->ulNotifiedValue = 0;
 800648e:	6b3b      	ldr	r3, [r7, #48]	; 0x30
 8006490:	2200      	movs	r2, #0
 8006492:	651a      	str	r2, [r3, #80]	; 0x50
		pxNewTCB->ucNotifyState = taskNOT_WAITING_NOTIFICATION;
 8006494:	6b3b      	ldr	r3, [r7, #48]	; 0x30
 8006496:	2200      	movs	r2, #0
 8006498:	f883 2054 	strb.w	r2, [r3, #84]	; 0x54
			}
			#endif /* portSTACK_GROWTH */
		}
		#else /* portHAS_STACK_OVERFLOW_CHECKING */
		{
			pxNewTCB->pxTopOfStack = pxPortInitialiseStack( pxTopOfStack, pxTaskCode, pvParameters );
 800649c:	683a      	ldr	r2, [r7, #0]
 800649e:	68f9      	ldr	r1, [r7, #12]
 80064a0:	69b8      	ldr	r0, [r7, #24]
 80064a2:	f001 f8d3 	bl	800764c <pxPortInitialiseStack>
 80064a6:	4602      	mov	r2, r0
 80064a8:	6b3b      	ldr	r3, [r7, #48]	; 0x30
 80064aa:	601a      	str	r2, [r3, #0]
		}
		#endif /* portHAS_STACK_OVERFLOW_CHECKING */
	}
	#endif /* portUSING_MPU_WRAPPERS */

	if( pxCreatedTask != NULL )
 80064ac:	6afb      	ldr	r3, [r7, #44]	; 0x2c
 80064ae:	2b00      	cmp	r3, #0
 80064b0:	d002      	beq.n	80064b8 <prvInitialiseNewTask+0x116>
	{
		/* Pass the handle out in an anonymous way.  The handle can be used to
		change the created task's priority, delete the created task, etc.*/
		*pxCreatedTask = ( TaskHandle_t ) pxNewTCB;
 80064b2:	6afb      	ldr	r3, [r7, #44]	; 0x2c
 80064b4:	6b3a      	ldr	r2, [r7, #48]	; 0x30
 80064b6:	601a      	str	r2, [r3, #0]
	}
	else
	{
		mtCOVERAGE_TEST_MARKER();
	}
}
 80064b8:	bf00      	nop
 80064ba:	3720      	adds	r7, #32
 80064bc:	46bd      	mov	sp, r7
 80064be:	bd80      	pop	{r7, pc}

080064c0 <prvAddNewTaskToReadyList>:
/*-----------------------------------------------------------*/

static void prvAddNewTaskToReadyList( TCB_t *pxNewTCB )
{
 80064c0:	b580      	push	{r7, lr}
 80064c2:	b082      	sub	sp, #8
 80064c4:	af00      	add	r7, sp, #0
 80064c6:	6078      	str	r0, [r7, #4]
	/* Ensure interrupts don't access the task lists while the lists are being
	updated. */
	taskENTER_CRITICAL();
 80064c8:	f001 f9ec 	bl	80078a4 <vPortEnterCritical>
	{
		uxCurrentNumberOfTasks++;
 80064cc:	4b2c      	ldr	r3, [pc, #176]	; (8006580 <prvAddNewTaskToReadyList+0xc0>)
 80064ce:	681b      	ldr	r3, [r3, #0]
 80064d0:	3301      	adds	r3, #1
 80064d2:	4a2b      	ldr	r2, [pc, #172]	; (8006580 <prvAddNewTaskToReadyList+0xc0>)
 80064d4:	6013      	str	r3, [r2, #0]
		if( pxCurrentTCB == NULL )
 80064d6:	4b2b      	ldr	r3, [pc, #172]	; (8006584 <prvAddNewTaskToReadyList+0xc4>)
 80064d8:	681b      	ldr	r3, [r3, #0]
 80064da:	2b00      	cmp	r3, #0
 80064dc:	d109      	bne.n	80064f2 <prvAddNewTaskToReadyList+0x32>
		{
			/* There are no other tasks, or all the other tasks are in
			the suspended state - make this the current task. */
			pxCurrentTCB = pxNewTCB;
 80064de:	4a29      	ldr	r2, [pc, #164]	; (8006584 <prvAddNewTaskToReadyList+0xc4>)
 80064e0:	687b      	ldr	r3, [r7, #4]
 80064e2:	6013      	str	r3, [r2, #0]

			if( uxCurrentNumberOfTasks == ( UBaseType_t ) 1 )
 80064e4:	4b26      	ldr	r3, [pc, #152]	; (8006580 <prvAddNewTaskToReadyList+0xc0>)
 80064e6:	681b      	ldr	r3, [r3, #0]
 80064e8:	2b01      	cmp	r3, #1
 80064ea:	d110      	bne.n	800650e <prvAddNewTaskToReadyList+0x4e>
			{
				/* This is the first task to be created so do the preliminary
				initialisation required.  We will not recover if this call
				fails, but we will report the failure. */
				prvInitialiseTaskLists();
 80064ec:	f000 fbf4 	bl	8006cd8 <prvInitialiseTaskLists>
 80064f0:	e00d      	b.n	800650e <prvAddNewTaskToReadyList+0x4e>
		else
		{
			/* If the scheduler is not already running, make this task the
			current task if it is the highest priority task to be created
			so far. */
			if( xSchedulerRunning == pdFALSE )
 80064f2:	4b25      	ldr	r3, [pc, #148]	; (8006588 <prvAddNewTaskToReadyList+0xc8>)
 80064f4:	681b      	ldr	r3, [r3, #0]
 80064f6:	2b00      	cmp	r3, #0
 80064f8:	d109      	bne.n	800650e <prvAddNewTaskToReadyList+0x4e>
			{
				if( pxCurrentTCB->uxPriority <= pxNewTCB->uxPriority )
 80064fa:	4b22      	ldr	r3, [pc, #136]	; (8006584 <prvAddNewTaskToReadyList+0xc4>)
 80064fc:	681b      	ldr	r3, [r3, #0]
 80064fe:	6ada      	ldr	r2, [r3, #44]	; 0x2c
 8006500:	687b      	ldr	r3, [r7, #4]
 8006502:	6adb      	ldr	r3, [r3, #44]	; 0x2c
 8006504:	429a      	cmp	r2, r3
 8006506:	d802      	bhi.n	800650e <prvAddNewTaskToReadyList+0x4e>
				{
					pxCurrentTCB = pxNewTCB;
 8006508:	4a1e      	ldr	r2, [pc, #120]	; (8006584 <prvAddNewTaskToReadyList+0xc4>)
 800650a:	687b      	ldr	r3, [r7, #4]
 800650c:	6013      	str	r3, [r2, #0]
			{
				mtCOVERAGE_TEST_MARKER();
			}
		}

		uxTaskNumber++;
 800650e:	4b1f      	ldr	r3, [pc, #124]	; (800658c <prvAddNewTaskToReadyList+0xcc>)
 8006510:	681b      	ldr	r3, [r3, #0]
 8006512:	3301      	adds	r3, #1
 8006514:	4a1d      	ldr	r2, [pc, #116]	; (800658c <prvAddNewTaskToReadyList+0xcc>)
 8006516:	6013      	str	r3, [r2, #0]

		#if ( configUSE_TRACE_FACILITY == 1 )
		{
			/* Add a counter into the TCB for tracing only. */
			pxNewTCB->uxTCBNumber = uxTaskNumber;
 8006518:	4b1c      	ldr	r3, [pc, #112]	; (800658c <prvAddNewTaskToReadyList+0xcc>)
 800651a:	681a      	ldr	r2, [r3, #0]
 800651c:	687b      	ldr	r3, [r7, #4]
 800651e:	641a      	str	r2, [r3, #64]	; 0x40
		}
		#endif /* configUSE_TRACE_FACILITY */
		traceTASK_CREATE( pxNewTCB );

		prvAddTaskToReadyList( pxNewTCB );
 8006520:	687b      	ldr	r3, [r7, #4]
 8006522:	6adb      	ldr	r3, [r3, #44]	; 0x2c
 8006524:	2201      	movs	r2, #1
 8006526:	409a      	lsls	r2, r3
 8006528:	4b19      	ldr	r3, [pc, #100]	; (8006590 <prvAddNewTaskToReadyList+0xd0>)
 800652a:	681b      	ldr	r3, [r3, #0]
 800652c:	4313      	orrs	r3, r2
 800652e:	4a18      	ldr	r2, [pc, #96]	; (8006590 <prvAddNewTaskToReadyList+0xd0>)
 8006530:	6013      	str	r3, [r2, #0]
 8006532:	687b      	ldr	r3, [r7, #4]
 8006534:	6ada      	ldr	r2, [r3, #44]	; 0x2c
 8006536:	4613      	mov	r3, r2
 8006538:	009b      	lsls	r3, r3, #2
 800653a:	4413      	add	r3, r2
 800653c:	009b      	lsls	r3, r3, #2
 800653e:	4a15      	ldr	r2, [pc, #84]	; (8006594 <prvAddNewTaskToReadyList+0xd4>)
 8006540:	441a      	add	r2, r3
 8006542:	687b      	ldr	r3, [r7, #4]
 8006544:	3304      	adds	r3, #4
 8006546:	4619      	mov	r1, r3
 8006548:	4610      	mov	r0, r2
 800654a:	f7ff f9b6 	bl	80058ba <vListInsertEnd>

		portSETUP_TCB( pxNewTCB );
	}
	taskEXIT_CRITICAL();
 800654e:	f001 f9d9 	bl	8007904 <vPortExitCritical>

	if( xSchedulerRunning != pdFALSE )
 8006552:	4b0d      	ldr	r3, [pc, #52]	; (8006588 <prvAddNewTaskToReadyList+0xc8>)
 8006554:	681b      	ldr	r3, [r3, #0]
 8006556:	2b00      	cmp	r3, #0
 8006558:	d00e      	beq.n	8006578 <prvAddNewTaskToReadyList+0xb8>
	{
		/* If the created task is of a higher priority than the current task
		then it should run now. */
		if( pxCurrentTCB->uxPriority < pxNewTCB->uxPriority )
 800655a:	4b0a      	ldr	r3, [pc, #40]	; (8006584 <prvAddNewTaskToReadyList+0xc4>)
 800655c:	681b      	ldr	r3, [r3, #0]
 800655e:	6ada      	ldr	r2, [r3, #44]	; 0x2c
 8006560:	687b      	ldr	r3, [r7, #4]
 8006562:	6adb      	ldr	r3, [r3, #44]	; 0x2c
 8006564:	429a      	cmp	r2, r3
 8006566:	d207      	bcs.n	8006578 <prvAddNewTaskToReadyList+0xb8>
		{
			taskYIELD_IF_USING_PREEMPTION();
 8006568:	4b0b      	ldr	r3, [pc, #44]	; (8006598 <prvAddNewTaskToReadyList+0xd8>)
 800656a:	f04f 5280 	mov.w	r2, #268435456	; 0x10000000
 800656e:	601a      	str	r2, [r3, #0]
 8006570:	f3bf 8f4f 	dsb	sy
 8006574:	f3bf 8f6f 	isb	sy
	}
	else
	{
		mtCOVERAGE_TEST_MARKER();
	}
}
 8006578:	bf00      	nop
 800657a:	3708      	adds	r7, #8
 800657c:	46bd      	mov	sp, r7
 800657e:	bd80      	pop	{r7, pc}
 8006580:	2000086c 	.word	0x2000086c
 8006584:	200006b8 	.word	0x200006b8
 8006588:	20000878 	.word	0x20000878
 800658c:	20000888 	.word	0x20000888
 8006590:	20000874 	.word	0x20000874
 8006594:	200006bc 	.word	0x200006bc
 8006598:	e000ed04 	.word	0xe000ed04

0800659c <vTaskDelay>:
/*-----------------------------------------------------------*/

#if ( INCLUDE_vTaskDelay == 1 )

	void vTaskDelay( const TickType_t xTicksToDelay )
	{
 800659c:	b580      	push	{r7, lr}
 800659e:	b084      	sub	sp, #16
 80065a0:	af00      	add	r7, sp, #0
 80065a2:	6078      	str	r0, [r7, #4]
	BaseType_t xAlreadyYielded = pdFALSE;
 80065a4:	2300      	movs	r3, #0
 80065a6:	60fb      	str	r3, [r7, #12]

		/* A delay time of zero just forces a reschedule. */
		if( xTicksToDelay > ( TickType_t ) 0U )
 80065a8:	687b      	ldr	r3, [r7, #4]
 80065aa:	2b00      	cmp	r3, #0
 80065ac:	d017      	beq.n	80065de <vTaskDelay+0x42>
		{
			configASSERT( uxSchedulerSuspended == 0 );
 80065ae:	4b13      	ldr	r3, [pc, #76]	; (80065fc <vTaskDelay+0x60>)
 80065b0:	681b      	ldr	r3, [r3, #0]
 80065b2:	2b00      	cmp	r3, #0
 80065b4:	d00a      	beq.n	80065cc <vTaskDelay+0x30>
	__asm volatile
 80065b6:	f04f 0350 	mov.w	r3, #80	; 0x50
 80065ba:	f383 8811 	msr	BASEPRI, r3
 80065be:	f3bf 8f6f 	isb	sy
 80065c2:	f3bf 8f4f 	dsb	sy
 80065c6:	60bb      	str	r3, [r7, #8]
}
 80065c8:	bf00      	nop
 80065ca:	e7fe      	b.n	80065ca <vTaskDelay+0x2e>
			vTaskSuspendAll();
 80065cc:	f000 f868 	bl	80066a0 <vTaskSuspendAll>
				list or removed from the blocked list until the scheduler
				is resumed.

				This task cannot be in an event list as it is the currently
				executing task. */
				prvAddCurrentTaskToDelayedList( xTicksToDelay, pdFALSE );
 80065d0:	2100      	movs	r1, #0
 80065d2:	6878      	ldr	r0, [r7, #4]
 80065d4:	f000 fcc2 	bl	8006f5c <prvAddCurrentTaskToDelayedList>
			}
			xAlreadyYielded = xTaskResumeAll();
 80065d8:	f000 f870 	bl	80066bc <xTaskResumeAll>
 80065dc:	60f8      	str	r0, [r7, #12]
			mtCOVERAGE_TEST_MARKER();
		}

		/* Force a reschedule if xTaskResumeAll has not already done so, we may
		have put ourselves to sleep. */
		if( xAlreadyYielded == pdFALSE )
 80065de:	68fb      	ldr	r3, [r7, #12]
 80065e0:	2b00      	cmp	r3, #0
 80065e2:	d107      	bne.n	80065f4 <vTaskDelay+0x58>
		{
			portYIELD_WITHIN_API();
 80065e4:	4b06      	ldr	r3, [pc, #24]	; (8006600 <vTaskDelay+0x64>)
 80065e6:	f04f 5280 	mov.w	r2, #268435456	; 0x10000000
 80065ea:	601a      	str	r2, [r3, #0]
 80065ec:	f3bf 8f4f 	dsb	sy
 80065f0:	f3bf 8f6f 	isb	sy
		}
		else
		{
			mtCOVERAGE_TEST_MARKER();
		}
	}
 80065f4:	bf00      	nop
 80065f6:	3710      	adds	r7, #16
 80065f8:	46bd      	mov	sp, r7
 80065fa:	bd80      	pop	{r7, pc}
 80065fc:	20000894 	.word	0x20000894
 8006600:	e000ed04 	.word	0xe000ed04

08006604 <vTaskStartScheduler>:

#endif /* ( ( INCLUDE_xTaskResumeFromISR == 1 ) && ( INCLUDE_vTaskSuspend == 1 ) ) */
/*-----------------------------------------------------------*/

void vTaskStartScheduler( void )
{
 8006604:	b580      	push	{r7, lr}
 8006606:	b086      	sub	sp, #24
 8006608:	af02      	add	r7, sp, #8
		}
	}
	#else
	{
		/* The Idle task is being created using dynamically allocated RAM. */
		xReturn = xTaskCreate(	prvIdleTask,
 800660a:	4b1f      	ldr	r3, [pc, #124]	; (8006688 <vTaskStartScheduler+0x84>)
 800660c:	9301      	str	r3, [sp, #4]
 800660e:	2300      	movs	r3, #0
 8006610:	9300      	str	r3, [sp, #0]
 8006612:	2300      	movs	r3, #0
 8006614:	2282      	movs	r2, #130	; 0x82
 8006616:	491d      	ldr	r1, [pc, #116]	; (800668c <vTaskStartScheduler+0x88>)
 8006618:	481d      	ldr	r0, [pc, #116]	; (8006690 <vTaskStartScheduler+0x8c>)
 800661a:	f7ff fe81 	bl	8006320 <xTaskCreate>
 800661e:	60f8      	str	r0, [r7, #12]
	}
	#endif /* configSUPPORT_STATIC_ALLOCATION */

	#if ( configUSE_TIMERS == 1 )
	{
		if( xReturn == pdPASS )
 8006620:	68fb      	ldr	r3, [r7, #12]
 8006622:	2b01      	cmp	r3, #1
 8006624:	d102      	bne.n	800662c <vTaskStartScheduler+0x28>
		{
			xReturn = xTimerCreateTimerTask();
 8006626:	f000 fcff 	bl	8007028 <xTimerCreateTimerTask>
 800662a:	60f8      	str	r0, [r7, #12]
			mtCOVERAGE_TEST_MARKER();
		}
	}
	#endif /* configUSE_TIMERS */

	if( xReturn == pdPASS )
 800662c:	68fb      	ldr	r3, [r7, #12]
 800662e:	2b01      	cmp	r3, #1
 8006630:	d116      	bne.n	8006660 <vTaskStartScheduler+0x5c>
	__asm volatile
 8006632:	f04f 0350 	mov.w	r3, #80	; 0x50
 8006636:	f383 8811 	msr	BASEPRI, r3
 800663a:	f3bf 8f6f 	isb	sy
 800663e:	f3bf 8f4f 	dsb	sy
 8006642:	60bb      	str	r3, [r7, #8]
}
 8006644:	bf00      	nop
			structure specific to the task that will run first. */
			_impure_ptr = &( pxCurrentTCB->xNewLib_reent );
		}
		#endif /* configUSE_NEWLIB_REENTRANT */

		xNextTaskUnblockTime = portMAX_DELAY;
 8006646:	4b13      	ldr	r3, [pc, #76]	; (8006694 <vTaskStartScheduler+0x90>)
 8006648:	f04f 32ff 	mov.w	r2, #4294967295	; 0xffffffff
 800664c:	601a      	str	r2, [r3, #0]
		xSchedulerRunning = pdTRUE;
 800664e:	4b12      	ldr	r3, [pc, #72]	; (8006698 <vTaskStartScheduler+0x94>)
 8006650:	2201      	movs	r2, #1
 8006652:	601a      	str	r2, [r3, #0]
		xTickCount = ( TickType_t ) configINITIAL_TICK_COUNT;
 8006654:	4b11      	ldr	r3, [pc, #68]	; (800669c <vTaskStartScheduler+0x98>)
 8006656:	2200      	movs	r2, #0
 8006658:	601a      	str	r2, [r3, #0]

		traceTASK_SWITCHED_IN();

		/* Setting up the timer tick is hardware specific and thus in the
		portable interface. */
		if( xPortStartScheduler() != pdFALSE )
 800665a:	f001 f881 	bl	8007760 <xPortStartScheduler>
	}

	/* Prevent compiler warnings if INCLUDE_xTaskGetIdleTaskHandle is set to 0,
	meaning xIdleTaskHandle is not used anywhere else. */
	( void ) xIdleTaskHandle;
}
 800665e:	e00e      	b.n	800667e <vTaskStartScheduler+0x7a>
		configASSERT( xReturn != errCOULD_NOT_ALLOCATE_REQUIRED_MEMORY );
 8006660:	68fb      	ldr	r3, [r7, #12]
 8006662:	f1b3 3fff 	cmp.w	r3, #4294967295	; 0xffffffff
 8006666:	d10a      	bne.n	800667e <vTaskStartScheduler+0x7a>
	__asm volatile
 8006668:	f04f 0350 	mov.w	r3, #80	; 0x50
 800666c:	f383 8811 	msr	BASEPRI, r3
 8006670:	f3bf 8f6f 	isb	sy
 8006674:	f3bf 8f4f 	dsb	sy
 8006678:	607b      	str	r3, [r7, #4]
}
 800667a:	bf00      	nop
 800667c:	e7fe      	b.n	800667c <vTaskStartScheduler+0x78>
}
 800667e:	bf00      	nop
 8006680:	3710      	adds	r7, #16
 8006682:	46bd      	mov	sp, r7
 8006684:	bd80      	pop	{r7, pc}
 8006686:	bf00      	nop
 8006688:	20000890 	.word	0x20000890
 800668c:	08008a78 	.word	0x08008a78
 8006690:	08006ca9 	.word	0x08006ca9
 8006694:	2000088c 	.word	0x2000088c
 8006698:	20000878 	.word	0x20000878
 800669c:	20000870 	.word	0x20000870

080066a0 <vTaskSuspendAll>:
	vPortEndScheduler();
}
/*----------------------------------------------------------*/

void vTaskSuspendAll( void )
{
 80066a0:	b480      	push	{r7}
 80066a2:	af00      	add	r7, sp, #0
	/* A critical section is not required as the variable is of type
	BaseType_t.  Please read Richard Barry's reply in the following link to a
	post in the FreeRTOS support forum before reporting this as a bug! -
	http://goo.gl/wu4acr */
	++uxSchedulerSuspended;
 80066a4:	4b04      	ldr	r3, [pc, #16]	; (80066b8 <vTaskSuspendAll+0x18>)
 80066a6:	681b      	ldr	r3, [r3, #0]
 80066a8:	3301      	adds	r3, #1
 80066aa:	4a03      	ldr	r2, [pc, #12]	; (80066b8 <vTaskSuspendAll+0x18>)
 80066ac:	6013      	str	r3, [r2, #0]
	portMEMORY_BARRIER();
}
 80066ae:	bf00      	nop
 80066b0:	46bd      	mov	sp, r7
 80066b2:	f85d 7b04 	ldr.w	r7, [sp], #4
 80066b6:	4770      	bx	lr
 80066b8:	20000894 	.word	0x20000894

080066bc <xTaskResumeAll>:

#endif /* configUSE_TICKLESS_IDLE */
/*----------------------------------------------------------*/

BaseType_t xTaskResumeAll( void )
{
 80066bc:	b580      	push	{r7, lr}
 80066be:	b084      	sub	sp, #16
 80066c0:	af00      	add	r7, sp, #0
TCB_t *pxTCB = NULL;
 80066c2:	2300      	movs	r3, #0
 80066c4:	60fb      	str	r3, [r7, #12]
BaseType_t xAlreadyYielded = pdFALSE;
 80066c6:	2300      	movs	r3, #0
 80066c8:	60bb      	str	r3, [r7, #8]

	/* If uxSchedulerSuspended is zero then this function does not match a
	previous call to vTaskSuspendAll(). */
	configASSERT( uxSchedulerSuspended );
 80066ca:	4b41      	ldr	r3, [pc, #260]	; (80067d0 <xTaskResumeAll+0x114>)
 80066cc:	681b      	ldr	r3, [r3, #0]
 80066ce:	2b00      	cmp	r3, #0
 80066d0:	d10a      	bne.n	80066e8 <xTaskResumeAll+0x2c>
	__asm volatile
 80066d2:	f04f 0350 	mov.w	r3, #80	; 0x50
 80066d6:	f383 8811 	msr	BASEPRI, r3
 80066da:	f3bf 8f6f 	isb	sy
 80066de:	f3bf 8f4f 	dsb	sy
 80066e2:	603b      	str	r3, [r7, #0]
}
 80066e4:	bf00      	nop
 80066e6:	e7fe      	b.n	80066e6 <xTaskResumeAll+0x2a>
	/* It is possible that an ISR caused a task to be removed from an event
	list while the scheduler was suspended.  If this was the case then the
	removed task will have been added to the xPendingReadyList.  Once the
	scheduler has been resumed it is safe to move all the pending ready
	tasks from this list into their appropriate ready list. */
	taskENTER_CRITICAL();
 80066e8:	f001 f8dc 	bl	80078a4 <vPortEnterCritical>
	{
		--uxSchedulerSuspended;
 80066ec:	4b38      	ldr	r3, [pc, #224]	; (80067d0 <xTaskResumeAll+0x114>)
 80066ee:	681b      	ldr	r3, [r3, #0]
 80066f0:	3b01      	subs	r3, #1
 80066f2:	4a37      	ldr	r2, [pc, #220]	; (80067d0 <xTaskResumeAll+0x114>)
 80066f4:	6013      	str	r3, [r2, #0]

		if( uxSchedulerSuspended == ( UBaseType_t ) pdFALSE )
 80066f6:	4b36      	ldr	r3, [pc, #216]	; (80067d0 <xTaskResumeAll+0x114>)
 80066f8:	681b      	ldr	r3, [r3, #0]
 80066fa:	2b00      	cmp	r3, #0
 80066fc:	d161      	bne.n	80067c2 <xTaskResumeAll+0x106>
		{
			if( uxCurrentNumberOfTasks > ( UBaseType_t ) 0U )
 80066fe:	4b35      	ldr	r3, [pc, #212]	; (80067d4 <xTaskResumeAll+0x118>)
 8006700:	681b      	ldr	r3, [r3, #0]
 8006702:	2b00      	cmp	r3, #0
 8006704:	d05d      	beq.n	80067c2 <xTaskResumeAll+0x106>
			{
				/* Move any readied tasks from the pending list into the
				appropriate ready list. */
				while( listLIST_IS_EMPTY( &xPendingReadyList ) == pdFALSE )
 8006706:	e02e      	b.n	8006766 <xTaskResumeAll+0xaa>
				{
					pxTCB = listGET_OWNER_OF_HEAD_ENTRY( ( &xPendingReadyList ) ); /*lint !e9079 void * is used as this macro is used with timers and co-routines too.  Alignment is known to be fine as the type of the pointer stored and retrieved is the same. */
 8006708:	4b33      	ldr	r3, [pc, #204]	; (80067d8 <xTaskResumeAll+0x11c>)
 800670a:	68db      	ldr	r3, [r3, #12]
 800670c:	68db      	ldr	r3, [r3, #12]
 800670e:	60fb      	str	r3, [r7, #12]
					( void ) uxListRemove( &( pxTCB->xEventListItem ) );
 8006710:	68fb      	ldr	r3, [r7, #12]
 8006712:	3318      	adds	r3, #24
 8006714:	4618      	mov	r0, r3
 8006716:	f7ff f92d 	bl	8005974 <uxListRemove>
					( void ) uxListRemove( &( pxTCB->xStateListItem ) );
 800671a:	68fb      	ldr	r3, [r7, #12]
 800671c:	3304      	adds	r3, #4
 800671e:	4618      	mov	r0, r3
 8006720:	f7ff f928 	bl	8005974 <uxListRemove>
					prvAddTaskToReadyList( pxTCB );
 8006724:	68fb      	ldr	r3, [r7, #12]
 8006726:	6adb      	ldr	r3, [r3, #44]	; 0x2c
 8006728:	2201      	movs	r2, #1
 800672a:	409a      	lsls	r2, r3
 800672c:	4b2b      	ldr	r3, [pc, #172]	; (80067dc <xTaskResumeAll+0x120>)
 800672e:	681b      	ldr	r3, [r3, #0]
 8006730:	4313      	orrs	r3, r2
 8006732:	4a2a      	ldr	r2, [pc, #168]	; (80067dc <xTaskResumeAll+0x120>)
 8006734:	6013      	str	r3, [r2, #0]
 8006736:	68fb      	ldr	r3, [r7, #12]
 8006738:	6ada      	ldr	r2, [r3, #44]	; 0x2c
 800673a:	4613      	mov	r3, r2
 800673c:	009b      	lsls	r3, r3, #2
 800673e:	4413      	add	r3, r2
 8006740:	009b      	lsls	r3, r3, #2
 8006742:	4a27      	ldr	r2, [pc, #156]	; (80067e0 <xTaskResumeAll+0x124>)
 8006744:	441a      	add	r2, r3
 8006746:	68fb      	ldr	r3, [r7, #12]
 8006748:	3304      	adds	r3, #4
 800674a:	4619      	mov	r1, r3
 800674c:	4610      	mov	r0, r2
 800674e:	f7ff f8b4 	bl	80058ba <vListInsertEnd>

					/* If the moved task has a priority higher than the current
					task then a yield must be performed. */
					if( pxTCB->uxPriority >= pxCurrentTCB->uxPriority )
 8006752:	68fb      	ldr	r3, [r7, #12]
 8006754:	6ada      	ldr	r2, [r3, #44]	; 0x2c
 8006756:	4b23      	ldr	r3, [pc, #140]	; (80067e4 <xTaskResumeAll+0x128>)
 8006758:	681b      	ldr	r3, [r3, #0]
 800675a:	6adb      	ldr	r3, [r3, #44]	; 0x2c
 800675c:	429a      	cmp	r2, r3
 800675e:	d302      	bcc.n	8006766 <xTaskResumeAll+0xaa>
					{
						xYieldPending = pdTRUE;
 8006760:	4b21      	ldr	r3, [pc, #132]	; (80067e8 <xTaskResumeAll+0x12c>)
 8006762:	2201      	movs	r2, #1
 8006764:	601a      	str	r2, [r3, #0]
				while( listLIST_IS_EMPTY( &xPendingReadyList ) == pdFALSE )
 8006766:	4b1c      	ldr	r3, [pc, #112]	; (80067d8 <xTaskResumeAll+0x11c>)
 8006768:	681b      	ldr	r3, [r3, #0]
 800676a:	2b00      	cmp	r3, #0
 800676c:	d1cc      	bne.n	8006708 <xTaskResumeAll+0x4c>
					{
						mtCOVERAGE_TEST_MARKER();
					}
				}

				if( pxTCB != NULL )
 800676e:	68fb      	ldr	r3, [r7, #12]
 8006770:	2b00      	cmp	r3, #0
 8006772:	d001      	beq.n	8006778 <xTaskResumeAll+0xbc>
					which may have prevented the next unblock time from being
					re-calculated, in which case re-calculate it now.  Mainly
					important for low power tickless implementations, where
					this can prevent an unnecessary exit from low power
					state. */
					prvResetNextTaskUnblockTime();
 8006774:	f000 fb2e 	bl	8006dd4 <prvResetNextTaskUnblockTime>
				/* If any ticks occurred while the scheduler was suspended then
				they should be processed now.  This ensures the tick count does
				not	slip, and that any delayed tasks are resumed at the correct
				time. */
				{
					UBaseType_t uxPendedCounts = uxPendedTicks; /* Non-volatile copy. */
 8006778:	4b1c      	ldr	r3, [pc, #112]	; (80067ec <xTaskResumeAll+0x130>)
 800677a:	681b      	ldr	r3, [r3, #0]
 800677c:	607b      	str	r3, [r7, #4]

					if( uxPendedCounts > ( UBaseType_t ) 0U )
 800677e:	687b      	ldr	r3, [r7, #4]
 8006780:	2b00      	cmp	r3, #0
 8006782:	d010      	beq.n	80067a6 <xTaskResumeAll+0xea>
					{
						do
						{
							if( xTaskIncrementTick() != pdFALSE )
 8006784:	f000 f846 	bl	8006814 <xTaskIncrementTick>
 8006788:	4603      	mov	r3, r0
 800678a:	2b00      	cmp	r3, #0
 800678c:	d002      	beq.n	8006794 <xTaskResumeAll+0xd8>
							{
								xYieldPending = pdTRUE;
 800678e:	4b16      	ldr	r3, [pc, #88]	; (80067e8 <xTaskResumeAll+0x12c>)
 8006790:	2201      	movs	r2, #1
 8006792:	601a      	str	r2, [r3, #0]
							}
							else
							{
								mtCOVERAGE_TEST_MARKER();
							}
							--uxPendedCounts;
 8006794:	687b      	ldr	r3, [r7, #4]
 8006796:	3b01      	subs	r3, #1
 8006798:	607b      	str	r3, [r7, #4]
						} while( uxPendedCounts > ( UBaseType_t ) 0U );
 800679a:	687b      	ldr	r3, [r7, #4]
 800679c:	2b00      	cmp	r3, #0
 800679e:	d1f1      	bne.n	8006784 <xTaskResumeAll+0xc8>

						uxPendedTicks = 0;
 80067a0:	4b12      	ldr	r3, [pc, #72]	; (80067ec <xTaskResumeAll+0x130>)
 80067a2:	2200      	movs	r2, #0
 80067a4:	601a      	str	r2, [r3, #0]
					{
						mtCOVERAGE_TEST_MARKER();
					}
				}

				if( xYieldPending != pdFALSE )
 80067a6:	4b10      	ldr	r3, [pc, #64]	; (80067e8 <xTaskResumeAll+0x12c>)
 80067a8:	681b      	ldr	r3, [r3, #0]
 80067aa:	2b00      	cmp	r3, #0
 80067ac:	d009      	beq.n	80067c2 <xTaskResumeAll+0x106>
				{
					#if( configUSE_PREEMPTION != 0 )
					{
						xAlreadyYielded = pdTRUE;
 80067ae:	2301      	movs	r3, #1
 80067b0:	60bb      	str	r3, [r7, #8]
					}
					#endif
					taskYIELD_IF_USING_PREEMPTION();
 80067b2:	4b0f      	ldr	r3, [pc, #60]	; (80067f0 <xTaskResumeAll+0x134>)
 80067b4:	f04f 5280 	mov.w	r2, #268435456	; 0x10000000
 80067b8:	601a      	str	r2, [r3, #0]
 80067ba:	f3bf 8f4f 	dsb	sy
 80067be:	f3bf 8f6f 	isb	sy
		else
		{
			mtCOVERAGE_TEST_MARKER();
		}
	}
	taskEXIT_CRITICAL();
 80067c2:	f001 f89f 	bl	8007904 <vPortExitCritical>

	return xAlreadyYielded;
 80067c6:	68bb      	ldr	r3, [r7, #8]
}
 80067c8:	4618      	mov	r0, r3
 80067ca:	3710      	adds	r7, #16
 80067cc:	46bd      	mov	sp, r7
 80067ce:	bd80      	pop	{r7, pc}
 80067d0:	20000894 	.word	0x20000894
 80067d4:	2000086c 	.word	0x2000086c
 80067d8:	2000082c 	.word	0x2000082c
 80067dc:	20000874 	.word	0x20000874
 80067e0:	200006bc 	.word	0x200006bc
 80067e4:	200006b8 	.word	0x200006b8
 80067e8:	20000880 	.word	0x20000880
 80067ec:	2000087c 	.word	0x2000087c
 80067f0:	e000ed04 	.word	0xe000ed04

080067f4 <xTaskGetTickCount>:
/*-----------------------------------------------------------*/

TickType_t xTaskGetTickCount( void )
{
 80067f4:	b480      	push	{r7}
 80067f6:	b083      	sub	sp, #12
 80067f8:	af00      	add	r7, sp, #0
TickType_t xTicks;

	/* Critical section required if running on a 16 bit processor. */
	portTICK_TYPE_ENTER_CRITICAL();
	{
		xTicks = xTickCount;
 80067fa:	4b05      	ldr	r3, [pc, #20]	; (8006810 <xTaskGetTickCount+0x1c>)
 80067fc:	681b      	ldr	r3, [r3, #0]
 80067fe:	607b      	str	r3, [r7, #4]
	}
	portTICK_TYPE_EXIT_CRITICAL();

	return xTicks;
 8006800:	687b      	ldr	r3, [r7, #4]
}
 8006802:	4618      	mov	r0, r3
 8006804:	370c      	adds	r7, #12
 8006806:	46bd      	mov	sp, r7
 8006808:	f85d 7b04 	ldr.w	r7, [sp], #4
 800680c:	4770      	bx	lr
 800680e:	bf00      	nop
 8006810:	20000870 	.word	0x20000870

08006814 <xTaskIncrementTick>:

#endif /* INCLUDE_xTaskAbortDelay */
/*----------------------------------------------------------*/

BaseType_t xTaskIncrementTick( void )
{
 8006814:	b580      	push	{r7, lr}
 8006816:	b086      	sub	sp, #24
 8006818:	af00      	add	r7, sp, #0
TCB_t * pxTCB;
TickType_t xItemValue;
BaseType_t xSwitchRequired = pdFALSE;
 800681a:	2300      	movs	r3, #0
 800681c:	617b      	str	r3, [r7, #20]

	/* Called by the portable layer each time a tick interrupt occurs.
	Increments the tick then checks to see if the new tick value will cause any
	tasks to be unblocked. */
	traceTASK_INCREMENT_TICK( xTickCount );
	if( uxSchedulerSuspended == ( UBaseType_t ) pdFALSE )
 800681e:	4b4e      	ldr	r3, [pc, #312]	; (8006958 <xTaskIncrementTick+0x144>)
 8006820:	681b      	ldr	r3, [r3, #0]
 8006822:	2b00      	cmp	r3, #0
 8006824:	f040 8088 	bne.w	8006938 <xTaskIncrementTick+0x124>
	{
		/* Minor optimisation.  The tick count cannot change in this
		block. */
		const TickType_t xConstTickCount = xTickCount + ( TickType_t ) 1;
 8006828:	4b4c      	ldr	r3, [pc, #304]	; (800695c <xTaskIncrementTick+0x148>)
 800682a:	681b      	ldr	r3, [r3, #0]
 800682c:	3301      	adds	r3, #1
 800682e:	613b      	str	r3, [r7, #16]

		/* Increment the RTOS tick, switching the delayed and overflowed
		delayed lists if it wraps to 0. */
		xTickCount = xConstTickCount;
 8006830:	4a4a      	ldr	r2, [pc, #296]	; (800695c <xTaskIncrementTick+0x148>)
 8006832:	693b      	ldr	r3, [r7, #16]
 8006834:	6013      	str	r3, [r2, #0]

		if( xConstTickCount == ( TickType_t ) 0U ) /*lint !e774 'if' does not always evaluate to false as it is looking for an overflow. */
 8006836:	693b      	ldr	r3, [r7, #16]
 8006838:	2b00      	cmp	r3, #0
 800683a:	d120      	bne.n	800687e <xTaskIncrementTick+0x6a>
		{
			taskSWITCH_DELAYED_LISTS();
 800683c:	4b48      	ldr	r3, [pc, #288]	; (8006960 <xTaskIncrementTick+0x14c>)
 800683e:	681b      	ldr	r3, [r3, #0]
 8006840:	681b      	ldr	r3, [r3, #0]
 8006842:	2b00      	cmp	r3, #0
 8006844:	d00a      	beq.n	800685c <xTaskIncrementTick+0x48>
	__asm volatile
 8006846:	f04f 0350 	mov.w	r3, #80	; 0x50
 800684a:	f383 8811 	msr	BASEPRI, r3
 800684e:	f3bf 8f6f 	isb	sy
 8006852:	f3bf 8f4f 	dsb	sy
 8006856:	603b      	str	r3, [r7, #0]
}
 8006858:	bf00      	nop
 800685a:	e7fe      	b.n	800685a <xTaskIncrementTick+0x46>
 800685c:	4b40      	ldr	r3, [pc, #256]	; (8006960 <xTaskIncrementTick+0x14c>)
 800685e:	681b      	ldr	r3, [r3, #0]
 8006860:	60fb      	str	r3, [r7, #12]
 8006862:	4b40      	ldr	r3, [pc, #256]	; (8006964 <xTaskIncrementTick+0x150>)
 8006864:	681b      	ldr	r3, [r3, #0]
 8006866:	4a3e      	ldr	r2, [pc, #248]	; (8006960 <xTaskIncrementTick+0x14c>)
 8006868:	6013      	str	r3, [r2, #0]
 800686a:	4a3e      	ldr	r2, [pc, #248]	; (8006964 <xTaskIncrementTick+0x150>)
 800686c:	68fb      	ldr	r3, [r7, #12]
 800686e:	6013      	str	r3, [r2, #0]
 8006870:	4b3d      	ldr	r3, [pc, #244]	; (8006968 <xTaskIncrementTick+0x154>)
 8006872:	681b      	ldr	r3, [r3, #0]
 8006874:	3301      	adds	r3, #1
 8006876:	4a3c      	ldr	r2, [pc, #240]	; (8006968 <xTaskIncrementTick+0x154>)
 8006878:	6013      	str	r3, [r2, #0]
 800687a:	f000 faab 	bl	8006dd4 <prvResetNextTaskUnblockTime>

		/* See if this tick has made a timeout expire.  Tasks are stored in
		the	queue in the order of their wake time - meaning once one task
		has been found whose block time has not expired there is no need to
		look any further down the list. */
		if( xConstTickCount >= xNextTaskUnblockTime )
 800687e:	4b3b      	ldr	r3, [pc, #236]	; (800696c <xTaskIncrementTick+0x158>)
 8006880:	681b      	ldr	r3, [r3, #0]
 8006882:	693a      	ldr	r2, [r7, #16]
 8006884:	429a      	cmp	r2, r3
 8006886:	d348      	bcc.n	800691a <xTaskIncrementTick+0x106>
		{
			for( ;; )
			{
				if( listLIST_IS_EMPTY( pxDelayedTaskList ) != pdFALSE )
 8006888:	4b35      	ldr	r3, [pc, #212]	; (8006960 <xTaskIncrementTick+0x14c>)
 800688a:	681b      	ldr	r3, [r3, #0]
 800688c:	681b      	ldr	r3, [r3, #0]
 800688e:	2b00      	cmp	r3, #0
 8006890:	d104      	bne.n	800689c <xTaskIncrementTick+0x88>
					/* The delayed list is empty.  Set xNextTaskUnblockTime
					to the maximum possible value so it is extremely
					unlikely that the
					if( xTickCount >= xNextTaskUnblockTime ) test will pass
					next time through. */
					xNextTaskUnblockTime = portMAX_DELAY; /*lint !e961 MISRA exception as the casts are only redundant for some ports. */
 8006892:	4b36      	ldr	r3, [pc, #216]	; (800696c <xTaskIncrementTick+0x158>)
 8006894:	f04f 32ff 	mov.w	r2, #4294967295	; 0xffffffff
 8006898:	601a      	str	r2, [r3, #0]
					break;
 800689a:	e03e      	b.n	800691a <xTaskIncrementTick+0x106>
				{
					/* The delayed list is not empty, get the value of the
					item at the head of the delayed list.  This is the time
					at which the task at the head of the delayed list must
					be removed from the Blocked state. */
					pxTCB = listGET_OWNER_OF_HEAD_ENTRY( pxDelayedTaskList ); /*lint !e9079 void * is used as this macro is used with timers and co-routines too.  Alignment is known to be fine as the type of the pointer stored and retrieved is the same. */
 800689c:	4b30      	ldr	r3, [pc, #192]	; (8006960 <xTaskIncrementTick+0x14c>)
 800689e:	681b      	ldr	r3, [r3, #0]
 80068a0:	68db      	ldr	r3, [r3, #12]
 80068a2:	68db      	ldr	r3, [r3, #12]
 80068a4:	60bb      	str	r3, [r7, #8]
					xItemValue = listGET_LIST_ITEM_VALUE( &( pxTCB->xStateListItem ) );
 80068a6:	68bb      	ldr	r3, [r7, #8]
 80068a8:	685b      	ldr	r3, [r3, #4]
 80068aa:	607b      	str	r3, [r7, #4]

					if( xConstTickCount < xItemValue )
 80068ac:	693a      	ldr	r2, [r7, #16]
 80068ae:	687b      	ldr	r3, [r7, #4]
 80068b0:	429a      	cmp	r2, r3
 80068b2:	d203      	bcs.n	80068bc <xTaskIncrementTick+0xa8>
						/* It is not time to unblock this item yet, but the
						item value is the time at which the task at the head
						of the blocked list must be removed from the Blocked
						state -	so record the item value in
						xNextTaskUnblockTime. */
						xNextTaskUnblockTime = xItemValue;
 80068b4:	4a2d      	ldr	r2, [pc, #180]	; (800696c <xTaskIncrementTick+0x158>)
 80068b6:	687b      	ldr	r3, [r7, #4]
 80068b8:	6013      	str	r3, [r2, #0]
						break; /*lint !e9011 Code structure here is deedmed easier to understand with multiple breaks. */
 80068ba:	e02e      	b.n	800691a <xTaskIncrementTick+0x106>
					{
						mtCOVERAGE_TEST_MARKER();
					}

					/* It is time to remove the item from the Blocked state. */
					( void ) uxListRemove( &( pxTCB->xStateListItem ) );
 80068bc:	68bb      	ldr	r3, [r7, #8]
 80068be:	3304      	adds	r3, #4
 80068c0:	4618      	mov	r0, r3
 80068c2:	f7ff f857 	bl	8005974 <uxListRemove>

					/* Is the task waiting on an event also?  If so remove
					it from the event list. */
					if( listLIST_ITEM_CONTAINER( &( pxTCB->xEventListItem ) ) != NULL )
 80068c6:	68bb      	ldr	r3, [r7, #8]
 80068c8:	6a9b      	ldr	r3, [r3, #40]	; 0x28
 80068ca:	2b00      	cmp	r3, #0
 80068cc:	d004      	beq.n	80068d8 <xTaskIncrementTick+0xc4>
					{
						( void ) uxListRemove( &( pxTCB->xEventListItem ) );
 80068ce:	68bb      	ldr	r3, [r7, #8]
 80068d0:	3318      	adds	r3, #24
 80068d2:	4618      	mov	r0, r3
 80068d4:	f7ff f84e 	bl	8005974 <uxListRemove>
						mtCOVERAGE_TEST_MARKER();
					}

					/* Place the unblocked task into the appropriate ready
					list. */
					prvAddTaskToReadyList( pxTCB );
 80068d8:	68bb      	ldr	r3, [r7, #8]
 80068da:	6adb      	ldr	r3, [r3, #44]	; 0x2c
 80068dc:	2201      	movs	r2, #1
 80068de:	409a      	lsls	r2, r3
 80068e0:	4b23      	ldr	r3, [pc, #140]	; (8006970 <xTaskIncrementTick+0x15c>)
 80068e2:	681b      	ldr	r3, [r3, #0]
 80068e4:	4313      	orrs	r3, r2
 80068e6:	4a22      	ldr	r2, [pc, #136]	; (8006970 <xTaskIncrementTick+0x15c>)
 80068e8:	6013      	str	r3, [r2, #0]
 80068ea:	68bb      	ldr	r3, [r7, #8]
 80068ec:	6ada      	ldr	r2, [r3, #44]	; 0x2c
 80068ee:	4613      	mov	r3, r2
 80068f0:	009b      	lsls	r3, r3, #2
 80068f2:	4413      	add	r3, r2
 80068f4:	009b      	lsls	r3, r3, #2
 80068f6:	4a1f      	ldr	r2, [pc, #124]	; (8006974 <xTaskIncrementTick+0x160>)
 80068f8:	441a      	add	r2, r3
 80068fa:	68bb      	ldr	r3, [r7, #8]
 80068fc:	3304      	adds	r3, #4
 80068fe:	4619      	mov	r1, r3
 8006900:	4610      	mov	r0, r2
 8006902:	f7fe ffda 	bl	80058ba <vListInsertEnd>
					{
						/* Preemption is on, but a context switch should
						only be performed if the unblocked task has a
						priority that is equal to or higher than the
						currently executing task. */
						if( pxTCB->uxPriority >= pxCurrentTCB->uxPriority )
 8006906:	68bb      	ldr	r3, [r7, #8]
 8006908:	6ada      	ldr	r2, [r3, #44]	; 0x2c
 800690a:	4b1b      	ldr	r3, [pc, #108]	; (8006978 <xTaskIncrementTick+0x164>)
 800690c:	681b      	ldr	r3, [r3, #0]
 800690e:	6adb      	ldr	r3, [r3, #44]	; 0x2c
 8006910:	429a      	cmp	r2, r3
 8006912:	d3b9      	bcc.n	8006888 <xTaskIncrementTick+0x74>
						{
							xSwitchRequired = pdTRUE;
 8006914:	2301      	movs	r3, #1
 8006916:	617b      	str	r3, [r7, #20]
				if( listLIST_IS_EMPTY( pxDelayedTaskList ) != pdFALSE )
 8006918:	e7b6      	b.n	8006888 <xTaskIncrementTick+0x74>
		/* Tasks of equal priority to the currently running task will share
		processing time (time slice) if preemption is on, and the application
		writer has not explicitly turned time slicing off. */
		#if ( ( configUSE_PREEMPTION == 1 ) && ( configUSE_TIME_SLICING == 1 ) )
		{
			if( listCURRENT_LIST_LENGTH( &( pxReadyTasksLists[ pxCurrentTCB->uxPriority ] ) ) > ( UBaseType_t ) 1 )
 800691a:	4b17      	ldr	r3, [pc, #92]	; (8006978 <xTaskIncrementTick+0x164>)
 800691c:	681b      	ldr	r3, [r3, #0]
 800691e:	6ada      	ldr	r2, [r3, #44]	; 0x2c
 8006920:	4914      	ldr	r1, [pc, #80]	; (8006974 <xTaskIncrementTick+0x160>)
 8006922:	4613      	mov	r3, r2
 8006924:	009b      	lsls	r3, r3, #2
 8006926:	4413      	add	r3, r2
 8006928:	009b      	lsls	r3, r3, #2
 800692a:	440b      	add	r3, r1
 800692c:	681b      	ldr	r3, [r3, #0]
 800692e:	2b01      	cmp	r3, #1
 8006930:	d907      	bls.n	8006942 <xTaskIncrementTick+0x12e>
			{
				xSwitchRequired = pdTRUE;
 8006932:	2301      	movs	r3, #1
 8006934:	617b      	str	r3, [r7, #20]
 8006936:	e004      	b.n	8006942 <xTaskIncrementTick+0x12e>
		}
		#endif /* configUSE_TICK_HOOK */
	}
	else
	{
		++uxPendedTicks;
 8006938:	4b10      	ldr	r3, [pc, #64]	; (800697c <xTaskIncrementTick+0x168>)
 800693a:	681b      	ldr	r3, [r3, #0]
 800693c:	3301      	adds	r3, #1
 800693e:	4a0f      	ldr	r2, [pc, #60]	; (800697c <xTaskIncrementTick+0x168>)
 8006940:	6013      	str	r3, [r2, #0]
		#endif
	}

	#if ( configUSE_PREEMPTION == 1 )
	{
		if( xYieldPending != pdFALSE )
 8006942:	4b0f      	ldr	r3, [pc, #60]	; (8006980 <xTaskIncrementTick+0x16c>)
 8006944:	681b      	ldr	r3, [r3, #0]
 8006946:	2b00      	cmp	r3, #0
 8006948:	d001      	beq.n	800694e <xTaskIncrementTick+0x13a>
		{
			xSwitchRequired = pdTRUE;
 800694a:	2301      	movs	r3, #1
 800694c:	617b      	str	r3, [r7, #20]
			mtCOVERAGE_TEST_MARKER();
		}
	}
	#endif /* configUSE_PREEMPTION */

	return xSwitchRequired;
 800694e:	697b      	ldr	r3, [r7, #20]
}
 8006950:	4618      	mov	r0, r3
 8006952:	3718      	adds	r7, #24
 8006954:	46bd      	mov	sp, r7
 8006956:	bd80      	pop	{r7, pc}
 8006958:	20000894 	.word	0x20000894
 800695c:	20000870 	.word	0x20000870
 8006960:	20000824 	.word	0x20000824
 8006964:	20000828 	.word	0x20000828
 8006968:	20000884 	.word	0x20000884
 800696c:	2000088c 	.word	0x2000088c
 8006970:	20000874 	.word	0x20000874
 8006974:	200006bc 	.word	0x200006bc
 8006978:	200006b8 	.word	0x200006b8
 800697c:	2000087c 	.word	0x2000087c
 8006980:	20000880 	.word	0x20000880

08006984 <vTaskSwitchContext>:

#endif /* configUSE_APPLICATION_TASK_TAG */
/*-----------------------------------------------------------*/

void vTaskSwitchContext( void )
{
 8006984:	b480      	push	{r7}
 8006986:	b087      	sub	sp, #28
 8006988:	af00      	add	r7, sp, #0
	if( uxSchedulerSuspended != ( UBaseType_t ) pdFALSE )
 800698a:	4b27      	ldr	r3, [pc, #156]	; (8006a28 <vTaskSwitchContext+0xa4>)
 800698c:	681b      	ldr	r3, [r3, #0]
 800698e:	2b00      	cmp	r3, #0
 8006990:	d003      	beq.n	800699a <vTaskSwitchContext+0x16>
	{
		/* The scheduler is currently suspended - do not allow a context
		switch. */
		xYieldPending = pdTRUE;
 8006992:	4b26      	ldr	r3, [pc, #152]	; (8006a2c <vTaskSwitchContext+0xa8>)
 8006994:	2201      	movs	r2, #1
 8006996:	601a      	str	r2, [r3, #0]
			structure specific to this task. */
			_impure_ptr = &( pxCurrentTCB->xNewLib_reent );
		}
		#endif /* configUSE_NEWLIB_REENTRANT */
	}
}
 8006998:	e03f      	b.n	8006a1a <vTaskSwitchContext+0x96>
		xYieldPending = pdFALSE;
 800699a:	4b24      	ldr	r3, [pc, #144]	; (8006a2c <vTaskSwitchContext+0xa8>)
 800699c:	2200      	movs	r2, #0
 800699e:	601a      	str	r2, [r3, #0]
		taskSELECT_HIGHEST_PRIORITY_TASK(); /*lint !e9079 void * is used as this macro is used with timers and co-routines too.  Alignment is known to be fine as the type of the pointer stored and retrieved is the same. */
 80069a0:	4b23      	ldr	r3, [pc, #140]	; (8006a30 <vTaskSwitchContext+0xac>)
 80069a2:	681b      	ldr	r3, [r3, #0]
 80069a4:	60fb      	str	r3, [r7, #12]
		__asm volatile ( "clz %0, %1" : "=r" ( ucReturn ) : "r" ( ulBitmap ) : "memory" );
 80069a6:	68fb      	ldr	r3, [r7, #12]
 80069a8:	fab3 f383 	clz	r3, r3
 80069ac:	72fb      	strb	r3, [r7, #11]
		return ucReturn;
 80069ae:	7afb      	ldrb	r3, [r7, #11]
 80069b0:	f1c3 031f 	rsb	r3, r3, #31
 80069b4:	617b      	str	r3, [r7, #20]
 80069b6:	491f      	ldr	r1, [pc, #124]	; (8006a34 <vTaskSwitchContext+0xb0>)
 80069b8:	697a      	ldr	r2, [r7, #20]
 80069ba:	4613      	mov	r3, r2
 80069bc:	009b      	lsls	r3, r3, #2
 80069be:	4413      	add	r3, r2
 80069c0:	009b      	lsls	r3, r3, #2
 80069c2:	440b      	add	r3, r1
 80069c4:	681b      	ldr	r3, [r3, #0]
 80069c6:	2b00      	cmp	r3, #0
 80069c8:	d10a      	bne.n	80069e0 <vTaskSwitchContext+0x5c>
	__asm volatile
 80069ca:	f04f 0350 	mov.w	r3, #80	; 0x50
 80069ce:	f383 8811 	msr	BASEPRI, r3
 80069d2:	f3bf 8f6f 	isb	sy
 80069d6:	f3bf 8f4f 	dsb	sy
 80069da:	607b      	str	r3, [r7, #4]
}
 80069dc:	bf00      	nop
 80069de:	e7fe      	b.n	80069de <vTaskSwitchContext+0x5a>
 80069e0:	697a      	ldr	r2, [r7, #20]
 80069e2:	4613      	mov	r3, r2
 80069e4:	009b      	lsls	r3, r3, #2
 80069e6:	4413      	add	r3, r2
 80069e8:	009b      	lsls	r3, r3, #2
 80069ea:	4a12      	ldr	r2, [pc, #72]	; (8006a34 <vTaskSwitchContext+0xb0>)
 80069ec:	4413      	add	r3, r2
 80069ee:	613b      	str	r3, [r7, #16]
 80069f0:	693b      	ldr	r3, [r7, #16]
 80069f2:	685b      	ldr	r3, [r3, #4]
 80069f4:	685a      	ldr	r2, [r3, #4]
 80069f6:	693b      	ldr	r3, [r7, #16]
 80069f8:	605a      	str	r2, [r3, #4]
 80069fa:	693b      	ldr	r3, [r7, #16]
 80069fc:	685a      	ldr	r2, [r3, #4]
 80069fe:	693b      	ldr	r3, [r7, #16]
 8006a00:	3308      	adds	r3, #8
 8006a02:	429a      	cmp	r2, r3
 8006a04:	d104      	bne.n	8006a10 <vTaskSwitchContext+0x8c>
 8006a06:	693b      	ldr	r3, [r7, #16]
 8006a08:	685b      	ldr	r3, [r3, #4]
 8006a0a:	685a      	ldr	r2, [r3, #4]
 8006a0c:	693b      	ldr	r3, [r7, #16]
 8006a0e:	605a      	str	r2, [r3, #4]
 8006a10:	693b      	ldr	r3, [r7, #16]
 8006a12:	685b      	ldr	r3, [r3, #4]
 8006a14:	68db      	ldr	r3, [r3, #12]
 8006a16:	4a08      	ldr	r2, [pc, #32]	; (8006a38 <vTaskSwitchContext+0xb4>)
 8006a18:	6013      	str	r3, [r2, #0]
}
 8006a1a:	bf00      	nop
 8006a1c:	371c      	adds	r7, #28
 8006a1e:	46bd      	mov	sp, r7
 8006a20:	f85d 7b04 	ldr.w	r7, [sp], #4
 8006a24:	4770      	bx	lr
 8006a26:	bf00      	nop
 8006a28:	20000894 	.word	0x20000894
 8006a2c:	20000880 	.word	0x20000880
 8006a30:	20000874 	.word	0x20000874
 8006a34:	200006bc 	.word	0x200006bc
 8006a38:	200006b8 	.word	0x200006b8

08006a3c <vTaskPlaceOnEventList>:
/*-----------------------------------------------------------*/

void vTaskPlaceOnEventList( List_t * const pxEventList, const TickType_t xTicksToWait )
{
 8006a3c:	b580      	push	{r7, lr}
 8006a3e:	b084      	sub	sp, #16
 8006a40:	af00      	add	r7, sp, #0
 8006a42:	6078      	str	r0, [r7, #4]
 8006a44:	6039      	str	r1, [r7, #0]
	configASSERT( pxEventList );
 8006a46:	687b      	ldr	r3, [r7, #4]
 8006a48:	2b00      	cmp	r3, #0
 8006a4a:	d10a      	bne.n	8006a62 <vTaskPlaceOnEventList+0x26>
	__asm volatile
 8006a4c:	f04f 0350 	mov.w	r3, #80	; 0x50
 8006a50:	f383 8811 	msr	BASEPRI, r3
 8006a54:	f3bf 8f6f 	isb	sy
 8006a58:	f3bf 8f4f 	dsb	sy
 8006a5c:	60fb      	str	r3, [r7, #12]
}
 8006a5e:	bf00      	nop
 8006a60:	e7fe      	b.n	8006a60 <vTaskPlaceOnEventList+0x24>

	/* Place the event list item of the TCB in the appropriate event list.
	This is placed in the list in priority order so the highest priority task
	is the first to be woken by the event.  The queue that contains the event
	list is locked, preventing simultaneous access from interrupts. */
	vListInsert( pxEventList, &( pxCurrentTCB->xEventListItem ) );
 8006a62:	4b07      	ldr	r3, [pc, #28]	; (8006a80 <vTaskPlaceOnEventList+0x44>)
 8006a64:	681b      	ldr	r3, [r3, #0]
 8006a66:	3318      	adds	r3, #24
 8006a68:	4619      	mov	r1, r3
 8006a6a:	6878      	ldr	r0, [r7, #4]
 8006a6c:	f7fe ff49 	bl	8005902 <vListInsert>

	prvAddCurrentTaskToDelayedList( xTicksToWait, pdTRUE );
 8006a70:	2101      	movs	r1, #1
 8006a72:	6838      	ldr	r0, [r7, #0]
 8006a74:	f000 fa72 	bl	8006f5c <prvAddCurrentTaskToDelayedList>
}
 8006a78:	bf00      	nop
 8006a7a:	3710      	adds	r7, #16
 8006a7c:	46bd      	mov	sp, r7
 8006a7e:	bd80      	pop	{r7, pc}
 8006a80:	200006b8 	.word	0x200006b8

08006a84 <vTaskPlaceOnEventListRestricted>:
/*-----------------------------------------------------------*/

#if( configUSE_TIMERS == 1 )

	void vTaskPlaceOnEventListRestricted( List_t * const pxEventList, TickType_t xTicksToWait, const BaseType_t xWaitIndefinitely )
	{
 8006a84:	b580      	push	{r7, lr}
 8006a86:	b086      	sub	sp, #24
 8006a88:	af00      	add	r7, sp, #0
 8006a8a:	60f8      	str	r0, [r7, #12]
 8006a8c:	60b9      	str	r1, [r7, #8]
 8006a8e:	607a      	str	r2, [r7, #4]
		configASSERT( pxEventList );
 8006a90:	68fb      	ldr	r3, [r7, #12]
 8006a92:	2b00      	cmp	r3, #0
 8006a94:	d10a      	bne.n	8006aac <vTaskPlaceOnEventListRestricted+0x28>
	__asm volatile
 8006a96:	f04f 0350 	mov.w	r3, #80	; 0x50
 8006a9a:	f383 8811 	msr	BASEPRI, r3
 8006a9e:	f3bf 8f6f 	isb	sy
 8006aa2:	f3bf 8f4f 	dsb	sy
 8006aa6:	617b      	str	r3, [r7, #20]
}
 8006aa8:	bf00      	nop
 8006aaa:	e7fe      	b.n	8006aaa <vTaskPlaceOnEventListRestricted+0x26>

		/* Place the event list item of the TCB in the appropriate event list.
		In this case it is assume that this is the only task that is going to
		be waiting on this event list, so the faster vListInsertEnd() function
		can be used in place of vListInsert. */
		vListInsertEnd( pxEventList, &( pxCurrentTCB->xEventListItem ) );
 8006aac:	4b0a      	ldr	r3, [pc, #40]	; (8006ad8 <vTaskPlaceOnEventListRestricted+0x54>)
 8006aae:	681b      	ldr	r3, [r3, #0]
 8006ab0:	3318      	adds	r3, #24
 8006ab2:	4619      	mov	r1, r3
 8006ab4:	68f8      	ldr	r0, [r7, #12]
 8006ab6:	f7fe ff00 	bl	80058ba <vListInsertEnd>

		/* If the task should block indefinitely then set the block time to a
		value that will be recognised as an indefinite delay inside the
		prvAddCurrentTaskToDelayedList() function. */
		if( xWaitIndefinitely != pdFALSE )
 8006aba:	687b      	ldr	r3, [r7, #4]
 8006abc:	2b00      	cmp	r3, #0
 8006abe:	d002      	beq.n	8006ac6 <vTaskPlaceOnEventListRestricted+0x42>
		{
			xTicksToWait = portMAX_DELAY;
 8006ac0:	f04f 33ff 	mov.w	r3, #4294967295	; 0xffffffff
 8006ac4:	60bb      	str	r3, [r7, #8]
		}

		traceTASK_DELAY_UNTIL( ( xTickCount + xTicksToWait ) );
		prvAddCurrentTaskToDelayedList( xTicksToWait, xWaitIndefinitely );
 8006ac6:	6879      	ldr	r1, [r7, #4]
 8006ac8:	68b8      	ldr	r0, [r7, #8]
 8006aca:	f000 fa47 	bl	8006f5c <prvAddCurrentTaskToDelayedList>
	}
 8006ace:	bf00      	nop
 8006ad0:	3718      	adds	r7, #24
 8006ad2:	46bd      	mov	sp, r7
 8006ad4:	bd80      	pop	{r7, pc}
 8006ad6:	bf00      	nop
 8006ad8:	200006b8 	.word	0x200006b8

08006adc <xTaskRemoveFromEventList>:

#endif /* configUSE_TIMERS */
/*-----------------------------------------------------------*/

BaseType_t xTaskRemoveFromEventList( const List_t * const pxEventList )
{
 8006adc:	b580      	push	{r7, lr}
 8006ade:	b086      	sub	sp, #24
 8006ae0:	af00      	add	r7, sp, #0
 8006ae2:	6078      	str	r0, [r7, #4]
	get called - the lock count on the queue will get modified instead.  This
	means exclusive access to the event list is guaranteed here.

	This function assumes that a check has already been made to ensure that
	pxEventList is not empty. */
	pxUnblockedTCB = listGET_OWNER_OF_HEAD_ENTRY( pxEventList ); /*lint !e9079 void * is used as this macro is used with timers and co-routines too.  Alignment is known to be fine as the type of the pointer stored and retrieved is the same. */
 8006ae4:	687b      	ldr	r3, [r7, #4]
 8006ae6:	68db      	ldr	r3, [r3, #12]
 8006ae8:	68db      	ldr	r3, [r3, #12]
 8006aea:	613b      	str	r3, [r7, #16]
	configASSERT( pxUnblockedTCB );
 8006aec:	693b      	ldr	r3, [r7, #16]
 8006aee:	2b00      	cmp	r3, #0
 8006af0:	d10a      	bne.n	8006b08 <xTaskRemoveFromEventList+0x2c>
	__asm volatile
 8006af2:	f04f 0350 	mov.w	r3, #80	; 0x50
 8006af6:	f383 8811 	msr	BASEPRI, r3
 8006afa:	f3bf 8f6f 	isb	sy
 8006afe:	f3bf 8f4f 	dsb	sy
 8006b02:	60fb      	str	r3, [r7, #12]
}
 8006b04:	bf00      	nop
 8006b06:	e7fe      	b.n	8006b06 <xTaskRemoveFromEventList+0x2a>
	( void ) uxListRemove( &( pxUnblockedTCB->xEventListItem ) );
 8006b08:	693b      	ldr	r3, [r7, #16]
 8006b0a:	3318      	adds	r3, #24
 8006b0c:	4618      	mov	r0, r3
 8006b0e:	f7fe ff31 	bl	8005974 <uxListRemove>

	if( uxSchedulerSuspended == ( UBaseType_t ) pdFALSE )
 8006b12:	4b1d      	ldr	r3, [pc, #116]	; (8006b88 <xTaskRemoveFromEventList+0xac>)
 8006b14:	681b      	ldr	r3, [r3, #0]
 8006b16:	2b00      	cmp	r3, #0
 8006b18:	d11c      	bne.n	8006b54 <xTaskRemoveFromEventList+0x78>
	{
		( void ) uxListRemove( &( pxUnblockedTCB->xStateListItem ) );
 8006b1a:	693b      	ldr	r3, [r7, #16]
 8006b1c:	3304      	adds	r3, #4
 8006b1e:	4618      	mov	r0, r3
 8006b20:	f7fe ff28 	bl	8005974 <uxListRemove>
		prvAddTaskToReadyList( pxUnblockedTCB );
 8006b24:	693b      	ldr	r3, [r7, #16]
 8006b26:	6adb      	ldr	r3, [r3, #44]	; 0x2c
 8006b28:	2201      	movs	r2, #1
 8006b2a:	409a      	lsls	r2, r3
 8006b2c:	4b17      	ldr	r3, [pc, #92]	; (8006b8c <xTaskRemoveFromEventList+0xb0>)
 8006b2e:	681b      	ldr	r3, [r3, #0]
 8006b30:	4313      	orrs	r3, r2
 8006b32:	4a16      	ldr	r2, [pc, #88]	; (8006b8c <xTaskRemoveFromEventList+0xb0>)
 8006b34:	6013      	str	r3, [r2, #0]
 8006b36:	693b      	ldr	r3, [r7, #16]
 8006b38:	6ada      	ldr	r2, [r3, #44]	; 0x2c
 8006b3a:	4613      	mov	r3, r2
 8006b3c:	009b      	lsls	r3, r3, #2
 8006b3e:	4413      	add	r3, r2
 8006b40:	009b      	lsls	r3, r3, #2
 8006b42:	4a13      	ldr	r2, [pc, #76]	; (8006b90 <xTaskRemoveFromEventList+0xb4>)
 8006b44:	441a      	add	r2, r3
 8006b46:	693b      	ldr	r3, [r7, #16]
 8006b48:	3304      	adds	r3, #4
 8006b4a:	4619      	mov	r1, r3
 8006b4c:	4610      	mov	r0, r2
 8006b4e:	f7fe feb4 	bl	80058ba <vListInsertEnd>
 8006b52:	e005      	b.n	8006b60 <xTaskRemoveFromEventList+0x84>
	}
	else
	{
		/* The delayed and ready lists cannot be accessed, so hold this task
		pending until the scheduler is resumed. */
		vListInsertEnd( &( xPendingReadyList ), &( pxUnblockedTCB->xEventListItem ) );
 8006b54:	693b      	ldr	r3, [r7, #16]
 8006b56:	3318      	adds	r3, #24
 8006b58:	4619      	mov	r1, r3
 8006b5a:	480e      	ldr	r0, [pc, #56]	; (8006b94 <xTaskRemoveFromEventList+0xb8>)
 8006b5c:	f7fe fead 	bl	80058ba <vListInsertEnd>
	}

	if( pxUnblockedTCB->uxPriority > pxCurrentTCB->uxPriority )
 8006b60:	693b      	ldr	r3, [r7, #16]
 8006b62:	6ada      	ldr	r2, [r3, #44]	; 0x2c
 8006b64:	4b0c      	ldr	r3, [pc, #48]	; (8006b98 <xTaskRemoveFromEventList+0xbc>)
 8006b66:	681b      	ldr	r3, [r3, #0]
 8006b68:	6adb      	ldr	r3, [r3, #44]	; 0x2c
 8006b6a:	429a      	cmp	r2, r3
 8006b6c:	d905      	bls.n	8006b7a <xTaskRemoveFromEventList+0x9e>
	{
		/* Return true if the task removed from the event list has a higher
		priority than the calling task.  This allows the calling task to know if
		it should force a context switch now. */
		xReturn = pdTRUE;
 8006b6e:	2301      	movs	r3, #1
 8006b70:	617b      	str	r3, [r7, #20]

		/* Mark that a yield is pending in case the user is not using the
		"xHigherPriorityTaskWoken" parameter to an ISR safe FreeRTOS function. */
		xYieldPending = pdTRUE;
 8006b72:	4b0a      	ldr	r3, [pc, #40]	; (8006b9c <xTaskRemoveFromEventList+0xc0>)
 8006b74:	2201      	movs	r2, #1
 8006b76:	601a      	str	r2, [r3, #0]
 8006b78:	e001      	b.n	8006b7e <xTaskRemoveFromEventList+0xa2>
	}
	else
	{
		xReturn = pdFALSE;
 8006b7a:	2300      	movs	r3, #0
 8006b7c:	617b      	str	r3, [r7, #20]
	}

	return xReturn;
 8006b7e:	697b      	ldr	r3, [r7, #20]
}
 8006b80:	4618      	mov	r0, r3
 8006b82:	3718      	adds	r7, #24
 8006b84:	46bd      	mov	sp, r7
 8006b86:	bd80      	pop	{r7, pc}
 8006b88:	20000894 	.word	0x20000894
 8006b8c:	20000874 	.word	0x20000874
 8006b90:	200006bc 	.word	0x200006bc
 8006b94:	2000082c 	.word	0x2000082c
 8006b98:	200006b8 	.word	0x200006b8
 8006b9c:	20000880 	.word	0x20000880

08006ba0 <vTaskInternalSetTimeOutState>:
	taskEXIT_CRITICAL();
}
/*-----------------------------------------------------------*/

void vTaskInternalSetTimeOutState( TimeOut_t * const pxTimeOut )
{
 8006ba0:	b480      	push	{r7}
 8006ba2:	b083      	sub	sp, #12
 8006ba4:	af00      	add	r7, sp, #0
 8006ba6:	6078      	str	r0, [r7, #4]
	/* For internal use only as it does not use a critical section. */
	pxTimeOut->xOverflowCount = xNumOfOverflows;
 8006ba8:	4b06      	ldr	r3, [pc, #24]	; (8006bc4 <vTaskInternalSetTimeOutState+0x24>)
 8006baa:	681a      	ldr	r2, [r3, #0]
 8006bac:	687b      	ldr	r3, [r7, #4]
 8006bae:	601a      	str	r2, [r3, #0]
	pxTimeOut->xTimeOnEntering = xTickCount;
 8006bb0:	4b05      	ldr	r3, [pc, #20]	; (8006bc8 <vTaskInternalSetTimeOutState+0x28>)
 8006bb2:	681a      	ldr	r2, [r3, #0]
 8006bb4:	687b      	ldr	r3, [r7, #4]
 8006bb6:	605a      	str	r2, [r3, #4]
}
 8006bb8:	bf00      	nop
 8006bba:	370c      	adds	r7, #12
 8006bbc:	46bd      	mov	sp, r7
 8006bbe:	f85d 7b04 	ldr.w	r7, [sp], #4
 8006bc2:	4770      	bx	lr
 8006bc4:	20000884 	.word	0x20000884
 8006bc8:	20000870 	.word	0x20000870

08006bcc <xTaskCheckForTimeOut>:
/*-----------------------------------------------------------*/

BaseType_t xTaskCheckForTimeOut( TimeOut_t * const pxTimeOut, TickType_t * const pxTicksToWait )
{
 8006bcc:	b580      	push	{r7, lr}
 8006bce:	b088      	sub	sp, #32
 8006bd0:	af00      	add	r7, sp, #0
 8006bd2:	6078      	str	r0, [r7, #4]
 8006bd4:	6039      	str	r1, [r7, #0]
BaseType_t xReturn;

	configASSERT( pxTimeOut );
 8006bd6:	687b      	ldr	r3, [r7, #4]
 8006bd8:	2b00      	cmp	r3, #0
 8006bda:	d10a      	bne.n	8006bf2 <xTaskCheckForTimeOut+0x26>
	__asm volatile
 8006bdc:	f04f 0350 	mov.w	r3, #80	; 0x50
 8006be0:	f383 8811 	msr	BASEPRI, r3
 8006be4:	f3bf 8f6f 	isb	sy
 8006be8:	f3bf 8f4f 	dsb	sy
 8006bec:	613b      	str	r3, [r7, #16]
}
 8006bee:	bf00      	nop
 8006bf0:	e7fe      	b.n	8006bf0 <xTaskCheckForTimeOut+0x24>
	configASSERT( pxTicksToWait );
 8006bf2:	683b      	ldr	r3, [r7, #0]
 8006bf4:	2b00      	cmp	r3, #0
 8006bf6:	d10a      	bne.n	8006c0e <xTaskCheckForTimeOut+0x42>
	__asm volatile
 8006bf8:	f04f 0350 	mov.w	r3, #80	; 0x50
 8006bfc:	f383 8811 	msr	BASEPRI, r3
 8006c00:	f3bf 8f6f 	isb	sy
 8006c04:	f3bf 8f4f 	dsb	sy
 8006c08:	60fb      	str	r3, [r7, #12]
}
 8006c0a:	bf00      	nop
 8006c0c:	e7fe      	b.n	8006c0c <xTaskCheckForTimeOut+0x40>

	taskENTER_CRITICAL();
 8006c0e:	f000 fe49 	bl	80078a4 <vPortEnterCritical>
	{
		/* Minor optimisation.  The tick count cannot change in this block. */
		const TickType_t xConstTickCount = xTickCount;
 8006c12:	4b1d      	ldr	r3, [pc, #116]	; (8006c88 <xTaskCheckForTimeOut+0xbc>)
 8006c14:	681b      	ldr	r3, [r3, #0]
 8006c16:	61bb      	str	r3, [r7, #24]
		const TickType_t xElapsedTime = xConstTickCount - pxTimeOut->xTimeOnEntering;
 8006c18:	687b      	ldr	r3, [r7, #4]
 8006c1a:	685b      	ldr	r3, [r3, #4]
 8006c1c:	69ba      	ldr	r2, [r7, #24]
 8006c1e:	1ad3      	subs	r3, r2, r3
 8006c20:	617b      	str	r3, [r7, #20]
			}
			else
		#endif

		#if ( INCLUDE_vTaskSuspend == 1 )
			if( *pxTicksToWait == portMAX_DELAY )
 8006c22:	683b      	ldr	r3, [r7, #0]
 8006c24:	681b      	ldr	r3, [r3, #0]
 8006c26:	f1b3 3fff 	cmp.w	r3, #4294967295	; 0xffffffff
 8006c2a:	d102      	bne.n	8006c32 <xTaskCheckForTimeOut+0x66>
			{
				/* If INCLUDE_vTaskSuspend is set to 1 and the block time
				specified is the maximum block time then the task should block
				indefinitely, and therefore never time out. */
				xReturn = pdFALSE;
 8006c2c:	2300      	movs	r3, #0
 8006c2e:	61fb      	str	r3, [r7, #28]
 8006c30:	e023      	b.n	8006c7a <xTaskCheckForTimeOut+0xae>
			}
			else
		#endif

		if( ( xNumOfOverflows != pxTimeOut->xOverflowCount ) && ( xConstTickCount >= pxTimeOut->xTimeOnEntering ) ) /*lint !e525 Indentation preferred as is to make code within pre-processor directives clearer. */
 8006c32:	687b      	ldr	r3, [r7, #4]
 8006c34:	681a      	ldr	r2, [r3, #0]
 8006c36:	4b15      	ldr	r3, [pc, #84]	; (8006c8c <xTaskCheckForTimeOut+0xc0>)
 8006c38:	681b      	ldr	r3, [r3, #0]
 8006c3a:	429a      	cmp	r2, r3
 8006c3c:	d007      	beq.n	8006c4e <xTaskCheckForTimeOut+0x82>
 8006c3e:	687b      	ldr	r3, [r7, #4]
 8006c40:	685b      	ldr	r3, [r3, #4]
 8006c42:	69ba      	ldr	r2, [r7, #24]
 8006c44:	429a      	cmp	r2, r3
 8006c46:	d302      	bcc.n	8006c4e <xTaskCheckForTimeOut+0x82>
			/* The tick count is greater than the time at which
			vTaskSetTimeout() was called, but has also overflowed since
			vTaskSetTimeOut() was called.  It must have wrapped all the way
			around and gone past again. This passed since vTaskSetTimeout()
			was called. */
			xReturn = pdTRUE;
 8006c48:	2301      	movs	r3, #1
 8006c4a:	61fb      	str	r3, [r7, #28]
 8006c4c:	e015      	b.n	8006c7a <xTaskCheckForTimeOut+0xae>
		}
		else if( xElapsedTime < *pxTicksToWait ) /*lint !e961 Explicit casting is only redundant with some compilers, whereas others require it to prevent integer conversion errors. */
 8006c4e:	683b      	ldr	r3, [r7, #0]
 8006c50:	681b      	ldr	r3, [r3, #0]
 8006c52:	697a      	ldr	r2, [r7, #20]
 8006c54:	429a      	cmp	r2, r3
 8006c56:	d20b      	bcs.n	8006c70 <xTaskCheckForTimeOut+0xa4>
		{
			/* Not a genuine timeout. Adjust parameters for time remaining. */
			*pxTicksToWait -= xElapsedTime;
 8006c58:	683b      	ldr	r3, [r7, #0]
 8006c5a:	681a      	ldr	r2, [r3, #0]
 8006c5c:	697b      	ldr	r3, [r7, #20]
 8006c5e:	1ad2      	subs	r2, r2, r3
 8006c60:	683b      	ldr	r3, [r7, #0]
 8006c62:	601a      	str	r2, [r3, #0]
			vTaskInternalSetTimeOutState( pxTimeOut );
 8006c64:	6878      	ldr	r0, [r7, #4]
 8006c66:	f7ff ff9b 	bl	8006ba0 <vTaskInternalSetTimeOutState>
			xReturn = pdFALSE;
 8006c6a:	2300      	movs	r3, #0
 8006c6c:	61fb      	str	r3, [r7, #28]
 8006c6e:	e004      	b.n	8006c7a <xTaskCheckForTimeOut+0xae>
		}
		else
		{
			*pxTicksToWait = 0;
 8006c70:	683b      	ldr	r3, [r7, #0]
 8006c72:	2200      	movs	r2, #0
 8006c74:	601a      	str	r2, [r3, #0]
			xReturn = pdTRUE;
 8006c76:	2301      	movs	r3, #1
 8006c78:	61fb      	str	r3, [r7, #28]
		}
	}
	taskEXIT_CRITICAL();
 8006c7a:	f000 fe43 	bl	8007904 <vPortExitCritical>

	return xReturn;
 8006c7e:	69fb      	ldr	r3, [r7, #28]
}
 8006c80:	4618      	mov	r0, r3
 8006c82:	3720      	adds	r7, #32
 8006c84:	46bd      	mov	sp, r7
 8006c86:	bd80      	pop	{r7, pc}
 8006c88:	20000870 	.word	0x20000870
 8006c8c:	20000884 	.word	0x20000884

08006c90 <vTaskMissedYield>:
/*-----------------------------------------------------------*/

void vTaskMissedYield( void )
{
 8006c90:	b480      	push	{r7}
 8006c92:	af00      	add	r7, sp, #0
	xYieldPending = pdTRUE;
 8006c94:	4b03      	ldr	r3, [pc, #12]	; (8006ca4 <vTaskMissedYield+0x14>)
 8006c96:	2201      	movs	r2, #1
 8006c98:	601a      	str	r2, [r3, #0]
}
 8006c9a:	bf00      	nop
 8006c9c:	46bd      	mov	sp, r7
 8006c9e:	f85d 7b04 	ldr.w	r7, [sp], #4
 8006ca2:	4770      	bx	lr
 8006ca4:	20000880 	.word	0x20000880

08006ca8 <prvIdleTask>:
 *
 * void prvIdleTask( void *pvParameters );
 *
 */
static portTASK_FUNCTION( prvIdleTask, pvParameters )
{
 8006ca8:	b580      	push	{r7, lr}
 8006caa:	b082      	sub	sp, #8
 8006cac:	af00      	add	r7, sp, #0
 8006cae:	6078      	str	r0, [r7, #4]

	for( ;; )
	{
		/* See if any tasks have deleted themselves - if so then the idle task
		is responsible for freeing the deleted task's TCB and stack. */
		prvCheckTasksWaitingTermination();
 8006cb0:	f000 f852 	bl	8006d58 <prvCheckTasksWaitingTermination>

			A critical region is not required here as we are just reading from
			the list, and an occasional incorrect value will not matter.  If
			the ready list at the idle priority contains more than one task
			then a task other than the idle task is ready to execute. */
			if( listCURRENT_LIST_LENGTH( &( pxReadyTasksLists[ tskIDLE_PRIORITY ] ) ) > ( UBaseType_t ) 1 )
 8006cb4:	4b06      	ldr	r3, [pc, #24]	; (8006cd0 <prvIdleTask+0x28>)
 8006cb6:	681b      	ldr	r3, [r3, #0]
 8006cb8:	2b01      	cmp	r3, #1
 8006cba:	d9f9      	bls.n	8006cb0 <prvIdleTask+0x8>
			{
				taskYIELD();
 8006cbc:	4b05      	ldr	r3, [pc, #20]	; (8006cd4 <prvIdleTask+0x2c>)
 8006cbe:	f04f 5280 	mov.w	r2, #268435456	; 0x10000000
 8006cc2:	601a      	str	r2, [r3, #0]
 8006cc4:	f3bf 8f4f 	dsb	sy
 8006cc8:	f3bf 8f6f 	isb	sy
		prvCheckTasksWaitingTermination();
 8006ccc:	e7f0      	b.n	8006cb0 <prvIdleTask+0x8>
 8006cce:	bf00      	nop
 8006cd0:	200006bc 	.word	0x200006bc
 8006cd4:	e000ed04 	.word	0xe000ed04

08006cd8 <prvInitialiseTaskLists>:

#endif /* portUSING_MPU_WRAPPERS */
/*-----------------------------------------------------------*/

static void prvInitialiseTaskLists( void )
{
 8006cd8:	b580      	push	{r7, lr}
 8006cda:	b082      	sub	sp, #8
 8006cdc:	af00      	add	r7, sp, #0
UBaseType_t uxPriority;

	for( uxPriority = ( UBaseType_t ) 0U; uxPriority < ( UBaseType_t ) configMAX_PRIORITIES; uxPriority++ )
 8006cde:	2300      	movs	r3, #0
 8006ce0:	607b      	str	r3, [r7, #4]
 8006ce2:	e00c      	b.n	8006cfe <prvInitialiseTaskLists+0x26>
	{
		vListInitialise( &( pxReadyTasksLists[ uxPriority ] ) );
 8006ce4:	687a      	ldr	r2, [r7, #4]
 8006ce6:	4613      	mov	r3, r2
 8006ce8:	009b      	lsls	r3, r3, #2
 8006cea:	4413      	add	r3, r2
 8006cec:	009b      	lsls	r3, r3, #2
 8006cee:	4a12      	ldr	r2, [pc, #72]	; (8006d38 <prvInitialiseTaskLists+0x60>)
 8006cf0:	4413      	add	r3, r2
 8006cf2:	4618      	mov	r0, r3
 8006cf4:	f7fe fdb4 	bl	8005860 <vListInitialise>
	for( uxPriority = ( UBaseType_t ) 0U; uxPriority < ( UBaseType_t ) configMAX_PRIORITIES; uxPriority++ )
 8006cf8:	687b      	ldr	r3, [r7, #4]
 8006cfa:	3301      	adds	r3, #1
 8006cfc:	607b      	str	r3, [r7, #4]
 8006cfe:	687b      	ldr	r3, [r7, #4]
 8006d00:	2b0f      	cmp	r3, #15
 8006d02:	d9ef      	bls.n	8006ce4 <prvInitialiseTaskLists+0xc>
	}

	vListInitialise( &xDelayedTaskList1 );
 8006d04:	480d      	ldr	r0, [pc, #52]	; (8006d3c <prvInitialiseTaskLists+0x64>)
 8006d06:	f7fe fdab 	bl	8005860 <vListInitialise>
	vListInitialise( &xDelayedTaskList2 );
 8006d0a:	480d      	ldr	r0, [pc, #52]	; (8006d40 <prvInitialiseTaskLists+0x68>)
 8006d0c:	f7fe fda8 	bl	8005860 <vListInitialise>
	vListInitialise( &xPendingReadyList );
 8006d10:	480c      	ldr	r0, [pc, #48]	; (8006d44 <prvInitialiseTaskLists+0x6c>)
 8006d12:	f7fe fda5 	bl	8005860 <vListInitialise>

	#if ( INCLUDE_vTaskDelete == 1 )
	{
		vListInitialise( &xTasksWaitingTermination );
 8006d16:	480c      	ldr	r0, [pc, #48]	; (8006d48 <prvInitialiseTaskLists+0x70>)
 8006d18:	f7fe fda2 	bl	8005860 <vListInitialise>
	}
	#endif /* INCLUDE_vTaskDelete */

	#if ( INCLUDE_vTaskSuspend == 1 )
	{
		vListInitialise( &xSuspendedTaskList );
 8006d1c:	480b      	ldr	r0, [pc, #44]	; (8006d4c <prvInitialiseTaskLists+0x74>)
 8006d1e:	f7fe fd9f 	bl	8005860 <vListInitialise>
	}
	#endif /* INCLUDE_vTaskSuspend */

	/* Start with pxDelayedTaskList using list1 and the pxOverflowDelayedTaskList
	using list2. */
	pxDelayedTaskList = &xDelayedTaskList1;
 8006d22:	4b0b      	ldr	r3, [pc, #44]	; (8006d50 <prvInitialiseTaskLists+0x78>)
 8006d24:	4a05      	ldr	r2, [pc, #20]	; (8006d3c <prvInitialiseTaskLists+0x64>)
 8006d26:	601a      	str	r2, [r3, #0]
	pxOverflowDelayedTaskList = &xDelayedTaskList2;
 8006d28:	4b0a      	ldr	r3, [pc, #40]	; (8006d54 <prvInitialiseTaskLists+0x7c>)
 8006d2a:	4a05      	ldr	r2, [pc, #20]	; (8006d40 <prvInitialiseTaskLists+0x68>)
 8006d2c:	601a      	str	r2, [r3, #0]
}
 8006d2e:	bf00      	nop
 8006d30:	3708      	adds	r7, #8
 8006d32:	46bd      	mov	sp, r7
 8006d34:	bd80      	pop	{r7, pc}
 8006d36:	bf00      	nop
 8006d38:	200006bc 	.word	0x200006bc
 8006d3c:	200007fc 	.word	0x200007fc
 8006d40:	20000810 	.word	0x20000810
 8006d44:	2000082c 	.word	0x2000082c
 8006d48:	20000840 	.word	0x20000840
 8006d4c:	20000858 	.word	0x20000858
 8006d50:	20000824 	.word	0x20000824
 8006d54:	20000828 	.word	0x20000828

08006d58 <prvCheckTasksWaitingTermination>:
/*-----------------------------------------------------------*/

static void prvCheckTasksWaitingTermination( void )
{
 8006d58:	b580      	push	{r7, lr}
 8006d5a:	b082      	sub	sp, #8
 8006d5c:	af00      	add	r7, sp, #0
	{
		TCB_t *pxTCB;

		/* uxDeletedTasksWaitingCleanUp is used to prevent taskENTER_CRITICAL()
		being called too often in the idle task. */
		while( uxDeletedTasksWaitingCleanUp > ( UBaseType_t ) 0U )
 8006d5e:	e019      	b.n	8006d94 <prvCheckTasksWaitingTermination+0x3c>
		{
			taskENTER_CRITICAL();
 8006d60:	f000 fda0 	bl	80078a4 <vPortEnterCritical>
			{
				pxTCB = listGET_OWNER_OF_HEAD_ENTRY( ( &xTasksWaitingTermination ) ); /*lint !e9079 void * is used as this macro is used with timers and co-routines too.  Alignment is known to be fine as the type of the pointer stored and retrieved is the same. */
 8006d64:	4b10      	ldr	r3, [pc, #64]	; (8006da8 <prvCheckTasksWaitingTermination+0x50>)
 8006d66:	68db      	ldr	r3, [r3, #12]
 8006d68:	68db      	ldr	r3, [r3, #12]
 8006d6a:	607b      	str	r3, [r7, #4]
				( void ) uxListRemove( &( pxTCB->xStateListItem ) );
 8006d6c:	687b      	ldr	r3, [r7, #4]
 8006d6e:	3304      	adds	r3, #4
 8006d70:	4618      	mov	r0, r3
 8006d72:	f7fe fdff 	bl	8005974 <uxListRemove>
				--uxCurrentNumberOfTasks;
 8006d76:	4b0d      	ldr	r3, [pc, #52]	; (8006dac <prvCheckTasksWaitingTermination+0x54>)
 8006d78:	681b      	ldr	r3, [r3, #0]
 8006d7a:	3b01      	subs	r3, #1
 8006d7c:	4a0b      	ldr	r2, [pc, #44]	; (8006dac <prvCheckTasksWaitingTermination+0x54>)
 8006d7e:	6013      	str	r3, [r2, #0]
				--uxDeletedTasksWaitingCleanUp;
 8006d80:	4b0b      	ldr	r3, [pc, #44]	; (8006db0 <prvCheckTasksWaitingTermination+0x58>)
 8006d82:	681b      	ldr	r3, [r3, #0]
 8006d84:	3b01      	subs	r3, #1
 8006d86:	4a0a      	ldr	r2, [pc, #40]	; (8006db0 <prvCheckTasksWaitingTermination+0x58>)
 8006d88:	6013      	str	r3, [r2, #0]
			}
			taskEXIT_CRITICAL();
 8006d8a:	f000 fdbb 	bl	8007904 <vPortExitCritical>

			prvDeleteTCB( pxTCB );
 8006d8e:	6878      	ldr	r0, [r7, #4]
 8006d90:	f000 f810 	bl	8006db4 <prvDeleteTCB>
		while( uxDeletedTasksWaitingCleanUp > ( UBaseType_t ) 0U )
 8006d94:	4b06      	ldr	r3, [pc, #24]	; (8006db0 <prvCheckTasksWaitingTermination+0x58>)
 8006d96:	681b      	ldr	r3, [r3, #0]
 8006d98:	2b00      	cmp	r3, #0
 8006d9a:	d1e1      	bne.n	8006d60 <prvCheckTasksWaitingTermination+0x8>
		}
	}
	#endif /* INCLUDE_vTaskDelete */
}
 8006d9c:	bf00      	nop
 8006d9e:	bf00      	nop
 8006da0:	3708      	adds	r7, #8
 8006da2:	46bd      	mov	sp, r7
 8006da4:	bd80      	pop	{r7, pc}
 8006da6:	bf00      	nop
 8006da8:	20000840 	.word	0x20000840
 8006dac:	2000086c 	.word	0x2000086c
 8006db0:	20000854 	.word	0x20000854

08006db4 <prvDeleteTCB>:
/*-----------------------------------------------------------*/

#if ( INCLUDE_vTaskDelete == 1 )

	static void prvDeleteTCB( TCB_t *pxTCB )
	{
 8006db4:	b580      	push	{r7, lr}
 8006db6:	b082      	sub	sp, #8
 8006db8:	af00      	add	r7, sp, #0
 8006dba:	6078      	str	r0, [r7, #4]

		#if( ( configSUPPORT_DYNAMIC_ALLOCATION == 1 ) && ( configSUPPORT_STATIC_ALLOCATION == 0 ) && ( portUSING_MPU_WRAPPERS == 0 ) )
		{
			/* The task can only have been allocated dynamically - free both
			the stack and TCB. */
			vPortFree( pxTCB->pxStack );
 8006dbc:	687b      	ldr	r3, [r7, #4]
 8006dbe:	6b1b      	ldr	r3, [r3, #48]	; 0x30
 8006dc0:	4618      	mov	r0, r3
 8006dc2:	f000 ff55 	bl	8007c70 <vPortFree>
			vPortFree( pxTCB );
 8006dc6:	6878      	ldr	r0, [r7, #4]
 8006dc8:	f000 ff52 	bl	8007c70 <vPortFree>
				configASSERT( pxTCB->ucStaticallyAllocated == tskSTATICALLY_ALLOCATED_STACK_AND_TCB	);
				mtCOVERAGE_TEST_MARKER();
			}
		}
		#endif /* configSUPPORT_DYNAMIC_ALLOCATION */
	}
 8006dcc:	bf00      	nop
 8006dce:	3708      	adds	r7, #8
 8006dd0:	46bd      	mov	sp, r7
 8006dd2:	bd80      	pop	{r7, pc}

08006dd4 <prvResetNextTaskUnblockTime>:

#endif /* INCLUDE_vTaskDelete */
/*-----------------------------------------------------------*/

static void prvResetNextTaskUnblockTime( void )
{
 8006dd4:	b480      	push	{r7}
 8006dd6:	b083      	sub	sp, #12
 8006dd8:	af00      	add	r7, sp, #0
TCB_t *pxTCB;

	if( listLIST_IS_EMPTY( pxDelayedTaskList ) != pdFALSE )
 8006dda:	4b0c      	ldr	r3, [pc, #48]	; (8006e0c <prvResetNextTaskUnblockTime+0x38>)
 8006ddc:	681b      	ldr	r3, [r3, #0]
 8006dde:	681b      	ldr	r3, [r3, #0]
 8006de0:	2b00      	cmp	r3, #0
 8006de2:	d104      	bne.n	8006dee <prvResetNextTaskUnblockTime+0x1a>
	{
		/* The new current delayed list is empty.  Set xNextTaskUnblockTime to
		the maximum possible value so it is	extremely unlikely that the
		if( xTickCount >= xNextTaskUnblockTime ) test will pass until
		there is an item in the delayed list. */
		xNextTaskUnblockTime = portMAX_DELAY;
 8006de4:	4b0a      	ldr	r3, [pc, #40]	; (8006e10 <prvResetNextTaskUnblockTime+0x3c>)
 8006de6:	f04f 32ff 	mov.w	r2, #4294967295	; 0xffffffff
 8006dea:	601a      	str	r2, [r3, #0]
		which the task at the head of the delayed list should be removed
		from the Blocked state. */
		( pxTCB ) = listGET_OWNER_OF_HEAD_ENTRY( pxDelayedTaskList ); /*lint !e9079 void * is used as this macro is used with timers and co-routines too.  Alignment is known to be fine as the type of the pointer stored and retrieved is the same. */
		xNextTaskUnblockTime = listGET_LIST_ITEM_VALUE( &( ( pxTCB )->xStateListItem ) );
	}
}
 8006dec:	e008      	b.n	8006e00 <prvResetNextTaskUnblockTime+0x2c>
		( pxTCB ) = listGET_OWNER_OF_HEAD_ENTRY( pxDelayedTaskList ); /*lint !e9079 void * is used as this macro is used with timers and co-routines too.  Alignment is known to be fine as the type of the pointer stored and retrieved is the same. */
 8006dee:	4b07      	ldr	r3, [pc, #28]	; (8006e0c <prvResetNextTaskUnblockTime+0x38>)
 8006df0:	681b      	ldr	r3, [r3, #0]
 8006df2:	68db      	ldr	r3, [r3, #12]
 8006df4:	68db      	ldr	r3, [r3, #12]
 8006df6:	607b      	str	r3, [r7, #4]
		xNextTaskUnblockTime = listGET_LIST_ITEM_VALUE( &( ( pxTCB )->xStateListItem ) );
 8006df8:	687b      	ldr	r3, [r7, #4]
 8006dfa:	685b      	ldr	r3, [r3, #4]
 8006dfc:	4a04      	ldr	r2, [pc, #16]	; (8006e10 <prvResetNextTaskUnblockTime+0x3c>)
 8006dfe:	6013      	str	r3, [r2, #0]
}
 8006e00:	bf00      	nop
 8006e02:	370c      	adds	r7, #12
 8006e04:	46bd      	mov	sp, r7
 8006e06:	f85d 7b04 	ldr.w	r7, [sp], #4
 8006e0a:	4770      	bx	lr
 8006e0c:	20000824 	.word	0x20000824
 8006e10:	2000088c 	.word	0x2000088c

08006e14 <xTaskGetSchedulerState>:
/*-----------------------------------------------------------*/

#if ( ( INCLUDE_xTaskGetSchedulerState == 1 ) || ( configUSE_TIMERS == 1 ) )

	BaseType_t xTaskGetSchedulerState( void )
	{
 8006e14:	b480      	push	{r7}
 8006e16:	b083      	sub	sp, #12
 8006e18:	af00      	add	r7, sp, #0
	BaseType_t xReturn;

		if( xSchedulerRunning == pdFALSE )
 8006e1a:	4b0b      	ldr	r3, [pc, #44]	; (8006e48 <xTaskGetSchedulerState+0x34>)
 8006e1c:	681b      	ldr	r3, [r3, #0]
 8006e1e:	2b00      	cmp	r3, #0
 8006e20:	d102      	bne.n	8006e28 <xTaskGetSchedulerState+0x14>
		{
			xReturn = taskSCHEDULER_NOT_STARTED;
 8006e22:	2301      	movs	r3, #1
 8006e24:	607b      	str	r3, [r7, #4]
 8006e26:	e008      	b.n	8006e3a <xTaskGetSchedulerState+0x26>
		}
		else
		{
			if( uxSchedulerSuspended == ( UBaseType_t ) pdFALSE )
 8006e28:	4b08      	ldr	r3, [pc, #32]	; (8006e4c <xTaskGetSchedulerState+0x38>)
 8006e2a:	681b      	ldr	r3, [r3, #0]
 8006e2c:	2b00      	cmp	r3, #0
 8006e2e:	d102      	bne.n	8006e36 <xTaskGetSchedulerState+0x22>
			{
				xReturn = taskSCHEDULER_RUNNING;
 8006e30:	2302      	movs	r3, #2
 8006e32:	607b      	str	r3, [r7, #4]
 8006e34:	e001      	b.n	8006e3a <xTaskGetSchedulerState+0x26>
			}
			else
			{
				xReturn = taskSCHEDULER_SUSPENDED;
 8006e36:	2300      	movs	r3, #0
 8006e38:	607b      	str	r3, [r7, #4]
			}
		}

		return xReturn;
 8006e3a:	687b      	ldr	r3, [r7, #4]
	}
 8006e3c:	4618      	mov	r0, r3
 8006e3e:	370c      	adds	r7, #12
 8006e40:	46bd      	mov	sp, r7
 8006e42:	f85d 7b04 	ldr.w	r7, [sp], #4
 8006e46:	4770      	bx	lr
 8006e48:	20000878 	.word	0x20000878
 8006e4c:	20000894 	.word	0x20000894

08006e50 <xTaskPriorityDisinherit>:
/*-----------------------------------------------------------*/

#if ( configUSE_MUTEXES == 1 )

	BaseType_t xTaskPriorityDisinherit( TaskHandle_t const pxMutexHolder )
	{
 8006e50:	b580      	push	{r7, lr}
 8006e52:	b086      	sub	sp, #24
 8006e54:	af00      	add	r7, sp, #0
 8006e56:	6078      	str	r0, [r7, #4]
	TCB_t * const pxTCB = pxMutexHolder;
 8006e58:	687b      	ldr	r3, [r7, #4]
 8006e5a:	613b      	str	r3, [r7, #16]
	BaseType_t xReturn = pdFALSE;
 8006e5c:	2300      	movs	r3, #0
 8006e5e:	617b      	str	r3, [r7, #20]

		if( pxMutexHolder != NULL )
 8006e60:	687b      	ldr	r3, [r7, #4]
 8006e62:	2b00      	cmp	r3, #0
 8006e64:	d06e      	beq.n	8006f44 <xTaskPriorityDisinherit+0xf4>
		{
			/* A task can only have an inherited priority if it holds the mutex.
			If the mutex is held by a task then it cannot be given from an
			interrupt, and if a mutex is given by the holding task then it must
			be the running state task. */
			configASSERT( pxTCB == pxCurrentTCB );
 8006e66:	4b3a      	ldr	r3, [pc, #232]	; (8006f50 <xTaskPriorityDisinherit+0x100>)
 8006e68:	681b      	ldr	r3, [r3, #0]
 8006e6a:	693a      	ldr	r2, [r7, #16]
 8006e6c:	429a      	cmp	r2, r3
 8006e6e:	d00a      	beq.n	8006e86 <xTaskPriorityDisinherit+0x36>
	__asm volatile
 8006e70:	f04f 0350 	mov.w	r3, #80	; 0x50
 8006e74:	f383 8811 	msr	BASEPRI, r3
 8006e78:	f3bf 8f6f 	isb	sy
 8006e7c:	f3bf 8f4f 	dsb	sy
 8006e80:	60fb      	str	r3, [r7, #12]
}
 8006e82:	bf00      	nop
 8006e84:	e7fe      	b.n	8006e84 <xTaskPriorityDisinherit+0x34>
			configASSERT( pxTCB->uxMutexesHeld );
 8006e86:	693b      	ldr	r3, [r7, #16]
 8006e88:	6cdb      	ldr	r3, [r3, #76]	; 0x4c
 8006e8a:	2b00      	cmp	r3, #0
 8006e8c:	d10a      	bne.n	8006ea4 <xTaskPriorityDisinherit+0x54>
	__asm volatile
 8006e8e:	f04f 0350 	mov.w	r3, #80	; 0x50
 8006e92:	f383 8811 	msr	BASEPRI, r3
 8006e96:	f3bf 8f6f 	isb	sy
 8006e9a:	f3bf 8f4f 	dsb	sy
 8006e9e:	60bb      	str	r3, [r7, #8]
}
 8006ea0:	bf00      	nop
 8006ea2:	e7fe      	b.n	8006ea2 <xTaskPriorityDisinherit+0x52>
			( pxTCB->uxMutexesHeld )--;
 8006ea4:	693b      	ldr	r3, [r7, #16]
 8006ea6:	6cdb      	ldr	r3, [r3, #76]	; 0x4c
 8006ea8:	1e5a      	subs	r2, r3, #1
 8006eaa:	693b      	ldr	r3, [r7, #16]
 8006eac:	64da      	str	r2, [r3, #76]	; 0x4c

			/* Has the holder of the mutex inherited the priority of another
			task? */
			if( pxTCB->uxPriority != pxTCB->uxBasePriority )
 8006eae:	693b      	ldr	r3, [r7, #16]
 8006eb0:	6ada      	ldr	r2, [r3, #44]	; 0x2c
 8006eb2:	693b      	ldr	r3, [r7, #16]
 8006eb4:	6c9b      	ldr	r3, [r3, #72]	; 0x48
 8006eb6:	429a      	cmp	r2, r3
 8006eb8:	d044      	beq.n	8006f44 <xTaskPriorityDisinherit+0xf4>
			{
				/* Only disinherit if no other mutexes are held. */
				if( pxTCB->uxMutexesHeld == ( UBaseType_t ) 0 )
 8006eba:	693b      	ldr	r3, [r7, #16]
 8006ebc:	6cdb      	ldr	r3, [r3, #76]	; 0x4c
 8006ebe:	2b00      	cmp	r3, #0
 8006ec0:	d140      	bne.n	8006f44 <xTaskPriorityDisinherit+0xf4>
					/* A task can only have an inherited priority if it holds
					the mutex.  If the mutex is held by a task then it cannot be
					given from an interrupt, and if a mutex is given by the
					holding task then it must be the running state task.  Remove
					the holding task from the ready list. */
					if( uxListRemove( &( pxTCB->xStateListItem ) ) == ( UBaseType_t ) 0 )
 8006ec2:	693b      	ldr	r3, [r7, #16]
 8006ec4:	3304      	adds	r3, #4
 8006ec6:	4618      	mov	r0, r3
 8006ec8:	f7fe fd54 	bl	8005974 <uxListRemove>
 8006ecc:	4603      	mov	r3, r0
 8006ece:	2b00      	cmp	r3, #0
 8006ed0:	d115      	bne.n	8006efe <xTaskPriorityDisinherit+0xae>
					{
						taskRESET_READY_PRIORITY( pxTCB->uxPriority );
 8006ed2:	693b      	ldr	r3, [r7, #16]
 8006ed4:	6ada      	ldr	r2, [r3, #44]	; 0x2c
 8006ed6:	491f      	ldr	r1, [pc, #124]	; (8006f54 <xTaskPriorityDisinherit+0x104>)
 8006ed8:	4613      	mov	r3, r2
 8006eda:	009b      	lsls	r3, r3, #2
 8006edc:	4413      	add	r3, r2
 8006ede:	009b      	lsls	r3, r3, #2
 8006ee0:	440b      	add	r3, r1
 8006ee2:	681b      	ldr	r3, [r3, #0]
 8006ee4:	2b00      	cmp	r3, #0
 8006ee6:	d10a      	bne.n	8006efe <xTaskPriorityDisinherit+0xae>
 8006ee8:	693b      	ldr	r3, [r7, #16]
 8006eea:	6adb      	ldr	r3, [r3, #44]	; 0x2c
 8006eec:	2201      	movs	r2, #1
 8006eee:	fa02 f303 	lsl.w	r3, r2, r3
 8006ef2:	43da      	mvns	r2, r3
 8006ef4:	4b18      	ldr	r3, [pc, #96]	; (8006f58 <xTaskPriorityDisinherit+0x108>)
 8006ef6:	681b      	ldr	r3, [r3, #0]
 8006ef8:	4013      	ands	r3, r2
 8006efa:	4a17      	ldr	r2, [pc, #92]	; (8006f58 <xTaskPriorityDisinherit+0x108>)
 8006efc:	6013      	str	r3, [r2, #0]
					}

					/* Disinherit the priority before adding the task into the
					new	ready list. */
					traceTASK_PRIORITY_DISINHERIT( pxTCB, pxTCB->uxBasePriority );
					pxTCB->uxPriority = pxTCB->uxBasePriority;
 8006efe:	693b      	ldr	r3, [r7, #16]
 8006f00:	6c9a      	ldr	r2, [r3, #72]	; 0x48
 8006f02:	693b      	ldr	r3, [r7, #16]
 8006f04:	62da      	str	r2, [r3, #44]	; 0x2c

					/* Reset the event list item value.  It cannot be in use for
					any other purpose if this task is running, and it must be
					running to give back the mutex. */
					listSET_LIST_ITEM_VALUE( &( pxTCB->xEventListItem ), ( TickType_t ) configMAX_PRIORITIES - ( TickType_t ) pxTCB->uxPriority ); /*lint !e961 MISRA exception as the casts are only redundant for some ports. */
 8006f06:	693b      	ldr	r3, [r7, #16]
 8006f08:	6adb      	ldr	r3, [r3, #44]	; 0x2c
 8006f0a:	f1c3 0210 	rsb	r2, r3, #16
 8006f0e:	693b      	ldr	r3, [r7, #16]
 8006f10:	619a      	str	r2, [r3, #24]
					prvAddTaskToReadyList( pxTCB );
 8006f12:	693b      	ldr	r3, [r7, #16]
 8006f14:	6adb      	ldr	r3, [r3, #44]	; 0x2c
 8006f16:	2201      	movs	r2, #1
 8006f18:	409a      	lsls	r2, r3
 8006f1a:	4b0f      	ldr	r3, [pc, #60]	; (8006f58 <xTaskPriorityDisinherit+0x108>)
 8006f1c:	681b      	ldr	r3, [r3, #0]
 8006f1e:	4313      	orrs	r3, r2
 8006f20:	4a0d      	ldr	r2, [pc, #52]	; (8006f58 <xTaskPriorityDisinherit+0x108>)
 8006f22:	6013      	str	r3, [r2, #0]
 8006f24:	693b      	ldr	r3, [r7, #16]
 8006f26:	6ada      	ldr	r2, [r3, #44]	; 0x2c
 8006f28:	4613      	mov	r3, r2
 8006f2a:	009b      	lsls	r3, r3, #2
 8006f2c:	4413      	add	r3, r2
 8006f2e:	009b      	lsls	r3, r3, #2
 8006f30:	4a08      	ldr	r2, [pc, #32]	; (8006f54 <xTaskPriorityDisinherit+0x104>)
 8006f32:	441a      	add	r2, r3
 8006f34:	693b      	ldr	r3, [r7, #16]
 8006f36:	3304      	adds	r3, #4
 8006f38:	4619      	mov	r1, r3
 8006f3a:	4610      	mov	r0, r2
 8006f3c:	f7fe fcbd 	bl	80058ba <vListInsertEnd>
					in an order different to that in which they were taken.
					If a context switch did not occur when the first mutex was
					returned, even if a task was waiting on it, then a context
					switch should occur when the last mutex is returned whether
					a task is waiting on it or not. */
					xReturn = pdTRUE;
 8006f40:	2301      	movs	r3, #1
 8006f42:	617b      	str	r3, [r7, #20]
		else
		{
			mtCOVERAGE_TEST_MARKER();
		}

		return xReturn;
 8006f44:	697b      	ldr	r3, [r7, #20]
	}
 8006f46:	4618      	mov	r0, r3
 8006f48:	3718      	adds	r7, #24
 8006f4a:	46bd      	mov	sp, r7
 8006f4c:	bd80      	pop	{r7, pc}
 8006f4e:	bf00      	nop
 8006f50:	200006b8 	.word	0x200006b8
 8006f54:	200006bc 	.word	0x200006bc
 8006f58:	20000874 	.word	0x20000874

08006f5c <prvAddCurrentTaskToDelayedList>:
	}
#endif
/*-----------------------------------------------------------*/

static void prvAddCurrentTaskToDelayedList( TickType_t xTicksToWait, const BaseType_t xCanBlockIndefinitely )
{
 8006f5c:	b580      	push	{r7, lr}
 8006f5e:	b084      	sub	sp, #16
 8006f60:	af00      	add	r7, sp, #0
 8006f62:	6078      	str	r0, [r7, #4]
 8006f64:	6039      	str	r1, [r7, #0]
TickType_t xTimeToWake;
const TickType_t xConstTickCount = xTickCount;
 8006f66:	4b29      	ldr	r3, [pc, #164]	; (800700c <prvAddCurrentTaskToDelayedList+0xb0>)
 8006f68:	681b      	ldr	r3, [r3, #0]
 8006f6a:	60fb      	str	r3, [r7, #12]
	}
	#endif

	/* Remove the task from the ready list before adding it to the blocked list
	as the same list item is used for both lists. */
	if( uxListRemove( &( pxCurrentTCB->xStateListItem ) ) == ( UBaseType_t ) 0 )
 8006f6c:	4b28      	ldr	r3, [pc, #160]	; (8007010 <prvAddCurrentTaskToDelayedList+0xb4>)
 8006f6e:	681b      	ldr	r3, [r3, #0]
 8006f70:	3304      	adds	r3, #4
 8006f72:	4618      	mov	r0, r3
 8006f74:	f7fe fcfe 	bl	8005974 <uxListRemove>
 8006f78:	4603      	mov	r3, r0
 8006f7a:	2b00      	cmp	r3, #0
 8006f7c:	d10b      	bne.n	8006f96 <prvAddCurrentTaskToDelayedList+0x3a>
	{
		/* The current task must be in a ready list, so there is no need to
		check, and the port reset macro can be called directly. */
		portRESET_READY_PRIORITY( pxCurrentTCB->uxPriority, uxTopReadyPriority ); /*lint !e931 pxCurrentTCB cannot change as it is the calling task.  pxCurrentTCB->uxPriority and uxTopReadyPriority cannot change as called with scheduler suspended or in a critical section. */
 8006f7e:	4b24      	ldr	r3, [pc, #144]	; (8007010 <prvAddCurrentTaskToDelayedList+0xb4>)
 8006f80:	681b      	ldr	r3, [r3, #0]
 8006f82:	6adb      	ldr	r3, [r3, #44]	; 0x2c
 8006f84:	2201      	movs	r2, #1
 8006f86:	fa02 f303 	lsl.w	r3, r2, r3
 8006f8a:	43da      	mvns	r2, r3
 8006f8c:	4b21      	ldr	r3, [pc, #132]	; (8007014 <prvAddCurrentTaskToDelayedList+0xb8>)
 8006f8e:	681b      	ldr	r3, [r3, #0]
 8006f90:	4013      	ands	r3, r2
 8006f92:	4a20      	ldr	r2, [pc, #128]	; (8007014 <prvAddCurrentTaskToDelayedList+0xb8>)
 8006f94:	6013      	str	r3, [r2, #0]
		mtCOVERAGE_TEST_MARKER();
	}

	#if ( INCLUDE_vTaskSuspend == 1 )
	{
		if( ( xTicksToWait == portMAX_DELAY ) && ( xCanBlockIndefinitely != pdFALSE ) )
 8006f96:	687b      	ldr	r3, [r7, #4]
 8006f98:	f1b3 3fff 	cmp.w	r3, #4294967295	; 0xffffffff
 8006f9c:	d10a      	bne.n	8006fb4 <prvAddCurrentTaskToDelayedList+0x58>
 8006f9e:	683b      	ldr	r3, [r7, #0]
 8006fa0:	2b00      	cmp	r3, #0
 8006fa2:	d007      	beq.n	8006fb4 <prvAddCurrentTaskToDelayedList+0x58>
		{
			/* Add the task to the suspended task list instead of a delayed task
			list to ensure it is not woken by a timing event.  It will block
			indefinitely. */
			vListInsertEnd( &xSuspendedTaskList, &( pxCurrentTCB->xStateListItem ) );
 8006fa4:	4b1a      	ldr	r3, [pc, #104]	; (8007010 <prvAddCurrentTaskToDelayedList+0xb4>)
 8006fa6:	681b      	ldr	r3, [r3, #0]
 8006fa8:	3304      	adds	r3, #4
 8006faa:	4619      	mov	r1, r3
 8006fac:	481a      	ldr	r0, [pc, #104]	; (8007018 <prvAddCurrentTaskToDelayedList+0xbc>)
 8006fae:	f7fe fc84 	bl	80058ba <vListInsertEnd>

		/* Avoid compiler warning when INCLUDE_vTaskSuspend is not 1. */
		( void ) xCanBlockIndefinitely;
	}
	#endif /* INCLUDE_vTaskSuspend */
}
 8006fb2:	e026      	b.n	8007002 <prvAddCurrentTaskToDelayedList+0xa6>
			xTimeToWake = xConstTickCount + xTicksToWait;
 8006fb4:	68fa      	ldr	r2, [r7, #12]
 8006fb6:	687b      	ldr	r3, [r7, #4]
 8006fb8:	4413      	add	r3, r2
 8006fba:	60bb      	str	r3, [r7, #8]
			listSET_LIST_ITEM_VALUE( &( pxCurrentTCB->xStateListItem ), xTimeToWake );
 8006fbc:	4b14      	ldr	r3, [pc, #80]	; (8007010 <prvAddCurrentTaskToDelayedList+0xb4>)
 8006fbe:	681b      	ldr	r3, [r3, #0]
 8006fc0:	68ba      	ldr	r2, [r7, #8]
 8006fc2:	605a      	str	r2, [r3, #4]
			if( xTimeToWake < xConstTickCount )
 8006fc4:	68ba      	ldr	r2, [r7, #8]
 8006fc6:	68fb      	ldr	r3, [r7, #12]
 8006fc8:	429a      	cmp	r2, r3
 8006fca:	d209      	bcs.n	8006fe0 <prvAddCurrentTaskToDelayedList+0x84>
				vListInsert( pxOverflowDelayedTaskList, &( pxCurrentTCB->xStateListItem ) );
 8006fcc:	4b13      	ldr	r3, [pc, #76]	; (800701c <prvAddCurrentTaskToDelayedList+0xc0>)
 8006fce:	681a      	ldr	r2, [r3, #0]
 8006fd0:	4b0f      	ldr	r3, [pc, #60]	; (8007010 <prvAddCurrentTaskToDelayedList+0xb4>)
 8006fd2:	681b      	ldr	r3, [r3, #0]
 8006fd4:	3304      	adds	r3, #4
 8006fd6:	4619      	mov	r1, r3
 8006fd8:	4610      	mov	r0, r2
 8006fda:	f7fe fc92 	bl	8005902 <vListInsert>
}
 8006fde:	e010      	b.n	8007002 <prvAddCurrentTaskToDelayedList+0xa6>
				vListInsert( pxDelayedTaskList, &( pxCurrentTCB->xStateListItem ) );
 8006fe0:	4b0f      	ldr	r3, [pc, #60]	; (8007020 <prvAddCurrentTaskToDelayedList+0xc4>)
 8006fe2:	681a      	ldr	r2, [r3, #0]
 8006fe4:	4b0a      	ldr	r3, [pc, #40]	; (8007010 <prvAddCurrentTaskToDelayedList+0xb4>)
 8006fe6:	681b      	ldr	r3, [r3, #0]
 8006fe8:	3304      	adds	r3, #4
 8006fea:	4619      	mov	r1, r3
 8006fec:	4610      	mov	r0, r2
 8006fee:	f7fe fc88 	bl	8005902 <vListInsert>
				if( xTimeToWake < xNextTaskUnblockTime )
 8006ff2:	4b0c      	ldr	r3, [pc, #48]	; (8007024 <prvAddCurrentTaskToDelayedList+0xc8>)
 8006ff4:	681b      	ldr	r3, [r3, #0]
 8006ff6:	68ba      	ldr	r2, [r7, #8]
 8006ff8:	429a      	cmp	r2, r3
 8006ffa:	d202      	bcs.n	8007002 <prvAddCurrentTaskToDelayedList+0xa6>
					xNextTaskUnblockTime = xTimeToWake;
 8006ffc:	4a09      	ldr	r2, [pc, #36]	; (8007024 <prvAddCurrentTaskToDelayedList+0xc8>)
 8006ffe:	68bb      	ldr	r3, [r7, #8]
 8007000:	6013      	str	r3, [r2, #0]
}
 8007002:	bf00      	nop
 8007004:	3710      	adds	r7, #16
 8007006:	46bd      	mov	sp, r7
 8007008:	bd80      	pop	{r7, pc}
 800700a:	bf00      	nop
 800700c:	20000870 	.word	0x20000870
 8007010:	200006b8 	.word	0x200006b8
 8007014:	20000874 	.word	0x20000874
 8007018:	20000858 	.word	0x20000858
 800701c:	20000828 	.word	0x20000828
 8007020:	20000824 	.word	0x20000824
 8007024:	2000088c 	.word	0x2000088c

08007028 <xTimerCreateTimerTask>:
									TimerCallbackFunction_t pxCallbackFunction,
									Timer_t *pxNewTimer ) PRIVILEGED_FUNCTION;
/*-----------------------------------------------------------*/

BaseType_t xTimerCreateTimerTask( void )
{
 8007028:	b580      	push	{r7, lr}
 800702a:	b084      	sub	sp, #16
 800702c:	af02      	add	r7, sp, #8
BaseType_t xReturn = pdFAIL;
 800702e:	2300      	movs	r3, #0
 8007030:	607b      	str	r3, [r7, #4]

	/* This function is called when the scheduler is started if
	configUSE_TIMERS is set to 1.  Check that the infrastructure used by the
	timer service task has been created/initialised.  If timers have already
	been created then the initialisation will already have been performed. */
	prvCheckForValidListAndQueue();
 8007032:	f000 fad5 	bl	80075e0 <prvCheckForValidListAndQueue>

	if( xTimerQueue != NULL )
 8007036:	4b11      	ldr	r3, [pc, #68]	; (800707c <xTimerCreateTimerTask+0x54>)
 8007038:	681b      	ldr	r3, [r3, #0]
 800703a:	2b00      	cmp	r3, #0
 800703c:	d00b      	beq.n	8007056 <xTimerCreateTimerTask+0x2e>
				xReturn = pdPASS;
			}
		}
		#else
		{
			xReturn = xTaskCreate(	prvTimerTask,
 800703e:	4b10      	ldr	r3, [pc, #64]	; (8007080 <xTimerCreateTimerTask+0x58>)
 8007040:	9301      	str	r3, [sp, #4]
 8007042:	2302      	movs	r3, #2
 8007044:	9300      	str	r3, [sp, #0]
 8007046:	2300      	movs	r3, #0
 8007048:	f44f 7282 	mov.w	r2, #260	; 0x104
 800704c:	490d      	ldr	r1, [pc, #52]	; (8007084 <xTimerCreateTimerTask+0x5c>)
 800704e:	480e      	ldr	r0, [pc, #56]	; (8007088 <xTimerCreateTimerTask+0x60>)
 8007050:	f7ff f966 	bl	8006320 <xTaskCreate>
 8007054:	6078      	str	r0, [r7, #4]
	else
	{
		mtCOVERAGE_TEST_MARKER();
	}

	configASSERT( xReturn );
 8007056:	687b      	ldr	r3, [r7, #4]
 8007058:	2b00      	cmp	r3, #0
 800705a:	d10a      	bne.n	8007072 <xTimerCreateTimerTask+0x4a>
	__asm volatile
 800705c:	f04f 0350 	mov.w	r3, #80	; 0x50
 8007060:	f383 8811 	msr	BASEPRI, r3
 8007064:	f3bf 8f6f 	isb	sy
 8007068:	f3bf 8f4f 	dsb	sy
 800706c:	603b      	str	r3, [r7, #0]
}
 800706e:	bf00      	nop
 8007070:	e7fe      	b.n	8007070 <xTimerCreateTimerTask+0x48>
	return xReturn;
 8007072:	687b      	ldr	r3, [r7, #4]
}
 8007074:	4618      	mov	r0, r3
 8007076:	3708      	adds	r7, #8
 8007078:	46bd      	mov	sp, r7
 800707a:	bd80      	pop	{r7, pc}
 800707c:	200008c8 	.word	0x200008c8
 8007080:	200008cc 	.word	0x200008cc
 8007084:	08008a80 	.word	0x08008a80
 8007088:	080071c1 	.word	0x080071c1

0800708c <xTimerGenericCommand>:
	}
}
/*-----------------------------------------------------------*/

BaseType_t xTimerGenericCommand( TimerHandle_t xTimer, const BaseType_t xCommandID, const TickType_t xOptionalValue, BaseType_t * const pxHigherPriorityTaskWoken, const TickType_t xTicksToWait )
{
 800708c:	b580      	push	{r7, lr}
 800708e:	b08a      	sub	sp, #40	; 0x28
 8007090:	af00      	add	r7, sp, #0
 8007092:	60f8      	str	r0, [r7, #12]
 8007094:	60b9      	str	r1, [r7, #8]
 8007096:	607a      	str	r2, [r7, #4]
 8007098:	603b      	str	r3, [r7, #0]
BaseType_t xReturn = pdFAIL;
 800709a:	2300      	movs	r3, #0
 800709c:	627b      	str	r3, [r7, #36]	; 0x24
DaemonTaskMessage_t xMessage;

	configASSERT( xTimer );
 800709e:	68fb      	ldr	r3, [r7, #12]
 80070a0:	2b00      	cmp	r3, #0
 80070a2:	d10a      	bne.n	80070ba <xTimerGenericCommand+0x2e>
	__asm volatile
 80070a4:	f04f 0350 	mov.w	r3, #80	; 0x50
 80070a8:	f383 8811 	msr	BASEPRI, r3
 80070ac:	f3bf 8f6f 	isb	sy
 80070b0:	f3bf 8f4f 	dsb	sy
 80070b4:	623b      	str	r3, [r7, #32]
}
 80070b6:	bf00      	nop
 80070b8:	e7fe      	b.n	80070b8 <xTimerGenericCommand+0x2c>

	/* Send a message to the timer service task to perform a particular action
	on a particular timer definition. */
	if( xTimerQueue != NULL )
 80070ba:	4b1a      	ldr	r3, [pc, #104]	; (8007124 <xTimerGenericCommand+0x98>)
 80070bc:	681b      	ldr	r3, [r3, #0]
 80070be:	2b00      	cmp	r3, #0
 80070c0:	d02a      	beq.n	8007118 <xTimerGenericCommand+0x8c>
	{
		/* Send a command to the timer service task to start the xTimer timer. */
		xMessage.xMessageID = xCommandID;
 80070c2:	68bb      	ldr	r3, [r7, #8]
 80070c4:	617b      	str	r3, [r7, #20]
		xMessage.u.xTimerParameters.xMessageValue = xOptionalValue;
 80070c6:	687b      	ldr	r3, [r7, #4]
 80070c8:	61bb      	str	r3, [r7, #24]
		xMessage.u.xTimerParameters.pxTimer = xTimer;
 80070ca:	68fb      	ldr	r3, [r7, #12]
 80070cc:	61fb      	str	r3, [r7, #28]

		if( xCommandID < tmrFIRST_FROM_ISR_COMMAND )
 80070ce:	68bb      	ldr	r3, [r7, #8]
 80070d0:	2b05      	cmp	r3, #5
 80070d2:	dc18      	bgt.n	8007106 <xTimerGenericCommand+0x7a>
		{
			if( xTaskGetSchedulerState() == taskSCHEDULER_RUNNING )
 80070d4:	f7ff fe9e 	bl	8006e14 <xTaskGetSchedulerState>
 80070d8:	4603      	mov	r3, r0
 80070da:	2b02      	cmp	r3, #2
 80070dc:	d109      	bne.n	80070f2 <xTimerGenericCommand+0x66>
			{
				xReturn = xQueueSendToBack( xTimerQueue, &xMessage, xTicksToWait );
 80070de:	4b11      	ldr	r3, [pc, #68]	; (8007124 <xTimerGenericCommand+0x98>)
 80070e0:	6818      	ldr	r0, [r3, #0]
 80070e2:	f107 0114 	add.w	r1, r7, #20
 80070e6:	2300      	movs	r3, #0
 80070e8:	6b3a      	ldr	r2, [r7, #48]	; 0x30
 80070ea:	f7fe fd35 	bl	8005b58 <xQueueGenericSend>
 80070ee:	6278      	str	r0, [r7, #36]	; 0x24
 80070f0:	e012      	b.n	8007118 <xTimerGenericCommand+0x8c>
			}
			else
			{
				xReturn = xQueueSendToBack( xTimerQueue, &xMessage, tmrNO_DELAY );
 80070f2:	4b0c      	ldr	r3, [pc, #48]	; (8007124 <xTimerGenericCommand+0x98>)
 80070f4:	6818      	ldr	r0, [r3, #0]
 80070f6:	f107 0114 	add.w	r1, r7, #20
 80070fa:	2300      	movs	r3, #0
 80070fc:	2200      	movs	r2, #0
 80070fe:	f7fe fd2b 	bl	8005b58 <xQueueGenericSend>
 8007102:	6278      	str	r0, [r7, #36]	; 0x24
 8007104:	e008      	b.n	8007118 <xTimerGenericCommand+0x8c>
			}
		}
		else
		{
			xReturn = xQueueSendToBackFromISR( xTimerQueue, &xMessage, pxHigherPriorityTaskWoken );
 8007106:	4b07      	ldr	r3, [pc, #28]	; (8007124 <xTimerGenericCommand+0x98>)
 8007108:	6818      	ldr	r0, [r3, #0]
 800710a:	f107 0114 	add.w	r1, r7, #20
 800710e:	2300      	movs	r3, #0
 8007110:	683a      	ldr	r2, [r7, #0]
 8007112:	f7fe fe1f 	bl	8005d54 <xQueueGenericSendFromISR>
 8007116:	6278      	str	r0, [r7, #36]	; 0x24
	else
	{
		mtCOVERAGE_TEST_MARKER();
	}

	return xReturn;
 8007118:	6a7b      	ldr	r3, [r7, #36]	; 0x24
}
 800711a:	4618      	mov	r0, r3
 800711c:	3728      	adds	r7, #40	; 0x28
 800711e:	46bd      	mov	sp, r7
 8007120:	bd80      	pop	{r7, pc}
 8007122:	bf00      	nop
 8007124:	200008c8 	.word	0x200008c8

08007128 <prvProcessExpiredTimer>:
	return pxTimer->pcTimerName;
}
/*-----------------------------------------------------------*/

static void prvProcessExpiredTimer( const TickType_t xNextExpireTime, const TickType_t xTimeNow )
{
 8007128:	b580      	push	{r7, lr}
 800712a:	b088      	sub	sp, #32
 800712c:	af02      	add	r7, sp, #8
 800712e:	6078      	str	r0, [r7, #4]
 8007130:	6039      	str	r1, [r7, #0]
BaseType_t xResult;
Timer_t * const pxTimer = ( Timer_t * ) listGET_OWNER_OF_HEAD_ENTRY( pxCurrentTimerList ); /*lint !e9087 !e9079 void * is used as this macro is used with tasks and co-routines too.  Alignment is known to be fine as the type of the pointer stored and retrieved is the same. */
 8007132:	4b22      	ldr	r3, [pc, #136]	; (80071bc <prvProcessExpiredTimer+0x94>)
 8007134:	681b      	ldr	r3, [r3, #0]
 8007136:	68db      	ldr	r3, [r3, #12]
 8007138:	68db      	ldr	r3, [r3, #12]
 800713a:	617b      	str	r3, [r7, #20]

	/* Remove the timer from the list of active timers.  A check has already
	been performed to ensure the list is not empty. */
	( void ) uxListRemove( &( pxTimer->xTimerListItem ) );
 800713c:	697b      	ldr	r3, [r7, #20]
 800713e:	3304      	adds	r3, #4
 8007140:	4618      	mov	r0, r3
 8007142:	f7fe fc17 	bl	8005974 <uxListRemove>
	traceTIMER_EXPIRED( pxTimer );

	/* If the timer is an auto reload timer then calculate the next
	expiry time and re-insert the timer in the list of active timers. */
	if( ( pxTimer->ucStatus & tmrSTATUS_IS_AUTORELOAD ) != 0 )
 8007146:	697b      	ldr	r3, [r7, #20]
 8007148:	f893 3028 	ldrb.w	r3, [r3, #40]	; 0x28
 800714c:	f003 0304 	and.w	r3, r3, #4
 8007150:	2b00      	cmp	r3, #0
 8007152:	d022      	beq.n	800719a <prvProcessExpiredTimer+0x72>
	{
		/* The timer is inserted into a list using a time relative to anything
		other than the current time.  It will therefore be inserted into the
		correct list relative to the time this task thinks it is now. */
		if( prvInsertTimerInActiveList( pxTimer, ( xNextExpireTime + pxTimer->xTimerPeriodInTicks ), xTimeNow, xNextExpireTime ) != pdFALSE )
 8007154:	697b      	ldr	r3, [r7, #20]
 8007156:	699a      	ldr	r2, [r3, #24]
 8007158:	687b      	ldr	r3, [r7, #4]
 800715a:	18d1      	adds	r1, r2, r3
 800715c:	687b      	ldr	r3, [r7, #4]
 800715e:	683a      	ldr	r2, [r7, #0]
 8007160:	6978      	ldr	r0, [r7, #20]
 8007162:	f000 f8d1 	bl	8007308 <prvInsertTimerInActiveList>
 8007166:	4603      	mov	r3, r0
 8007168:	2b00      	cmp	r3, #0
 800716a:	d01f      	beq.n	80071ac <prvProcessExpiredTimer+0x84>
		{
			/* The timer expired before it was added to the active timer
			list.  Reload it now.  */
			xResult = xTimerGenericCommand( pxTimer, tmrCOMMAND_START_DONT_TRACE, xNextExpireTime, NULL, tmrNO_DELAY );
 800716c:	2300      	movs	r3, #0
 800716e:	9300      	str	r3, [sp, #0]
 8007170:	2300      	movs	r3, #0
 8007172:	687a      	ldr	r2, [r7, #4]
 8007174:	2100      	movs	r1, #0
 8007176:	6978      	ldr	r0, [r7, #20]
 8007178:	f7ff ff88 	bl	800708c <xTimerGenericCommand>
 800717c:	6138      	str	r0, [r7, #16]
			configASSERT( xResult );
 800717e:	693b      	ldr	r3, [r7, #16]
 8007180:	2b00      	cmp	r3, #0
 8007182:	d113      	bne.n	80071ac <prvProcessExpiredTimer+0x84>
	__asm volatile
 8007184:	f04f 0350 	mov.w	r3, #80	; 0x50
 8007188:	f383 8811 	msr	BASEPRI, r3
 800718c:	f3bf 8f6f 	isb	sy
 8007190:	f3bf 8f4f 	dsb	sy
 8007194:	60fb      	str	r3, [r7, #12]
}
 8007196:	bf00      	nop
 8007198:	e7fe      	b.n	8007198 <prvProcessExpiredTimer+0x70>
			mtCOVERAGE_TEST_MARKER();
		}
	}
	else
	{
		pxTimer->ucStatus &= ~tmrSTATUS_IS_ACTIVE;
 800719a:	697b      	ldr	r3, [r7, #20]
 800719c:	f893 3028 	ldrb.w	r3, [r3, #40]	; 0x28
 80071a0:	f023 0301 	bic.w	r3, r3, #1
 80071a4:	b2da      	uxtb	r2, r3
 80071a6:	697b      	ldr	r3, [r7, #20]
 80071a8:	f883 2028 	strb.w	r2, [r3, #40]	; 0x28
		mtCOVERAGE_TEST_MARKER();
	}

	/* Call the timer callback. */
	pxTimer->pxCallbackFunction( ( TimerHandle_t ) pxTimer );
 80071ac:	697b      	ldr	r3, [r7, #20]
 80071ae:	6a1b      	ldr	r3, [r3, #32]
 80071b0:	6978      	ldr	r0, [r7, #20]
 80071b2:	4798      	blx	r3
}
 80071b4:	bf00      	nop
 80071b6:	3718      	adds	r7, #24
 80071b8:	46bd      	mov	sp, r7
 80071ba:	bd80      	pop	{r7, pc}
 80071bc:	200008c0 	.word	0x200008c0

080071c0 <prvTimerTask>:
/*-----------------------------------------------------------*/

static portTASK_FUNCTION( prvTimerTask, pvParameters )
{
 80071c0:	b580      	push	{r7, lr}
 80071c2:	b084      	sub	sp, #16
 80071c4:	af00      	add	r7, sp, #0
 80071c6:	6078      	str	r0, [r7, #4]

	for( ;; )
	{
		/* Query the timers list to see if it contains any timers, and if so,
		obtain the time at which the next timer will expire. */
		xNextExpireTime = prvGetNextExpireTime( &xListWasEmpty );
 80071c8:	f107 0308 	add.w	r3, r7, #8
 80071cc:	4618      	mov	r0, r3
 80071ce:	f000 f857 	bl	8007280 <prvGetNextExpireTime>
 80071d2:	60f8      	str	r0, [r7, #12]

		/* If a timer has expired, process it.  Otherwise, block this task
		until either a timer does expire, or a command is received. */
		prvProcessTimerOrBlockTask( xNextExpireTime, xListWasEmpty );
 80071d4:	68bb      	ldr	r3, [r7, #8]
 80071d6:	4619      	mov	r1, r3
 80071d8:	68f8      	ldr	r0, [r7, #12]
 80071da:	f000 f803 	bl	80071e4 <prvProcessTimerOrBlockTask>

		/* Empty the command queue. */
		prvProcessReceivedCommands();
 80071de:	f000 f8d5 	bl	800738c <prvProcessReceivedCommands>
		xNextExpireTime = prvGetNextExpireTime( &xListWasEmpty );
 80071e2:	e7f1      	b.n	80071c8 <prvTimerTask+0x8>

080071e4 <prvProcessTimerOrBlockTask>:
	}
}
/*-----------------------------------------------------------*/

static void prvProcessTimerOrBlockTask( const TickType_t xNextExpireTime, BaseType_t xListWasEmpty )
{
 80071e4:	b580      	push	{r7, lr}
 80071e6:	b084      	sub	sp, #16
 80071e8:	af00      	add	r7, sp, #0
 80071ea:	6078      	str	r0, [r7, #4]
 80071ec:	6039      	str	r1, [r7, #0]
TickType_t xTimeNow;
BaseType_t xTimerListsWereSwitched;

	vTaskSuspendAll();
 80071ee:	f7ff fa57 	bl	80066a0 <vTaskSuspendAll>
		/* Obtain the time now to make an assessment as to whether the timer
		has expired or not.  If obtaining the time causes the lists to switch
		then don't process this timer as any timers that remained in the list
		when the lists were switched will have been processed within the
		prvSampleTimeNow() function. */
		xTimeNow = prvSampleTimeNow( &xTimerListsWereSwitched );
 80071f2:	f107 0308 	add.w	r3, r7, #8
 80071f6:	4618      	mov	r0, r3
 80071f8:	f000 f866 	bl	80072c8 <prvSampleTimeNow>
 80071fc:	60f8      	str	r0, [r7, #12]
		if( xTimerListsWereSwitched == pdFALSE )
 80071fe:	68bb      	ldr	r3, [r7, #8]
 8007200:	2b00      	cmp	r3, #0
 8007202:	d130      	bne.n	8007266 <prvProcessTimerOrBlockTask+0x82>
		{
			/* The tick count has not overflowed, has the timer expired? */
			if( ( xListWasEmpty == pdFALSE ) && ( xNextExpireTime <= xTimeNow ) )
 8007204:	683b      	ldr	r3, [r7, #0]
 8007206:	2b00      	cmp	r3, #0
 8007208:	d10a      	bne.n	8007220 <prvProcessTimerOrBlockTask+0x3c>
 800720a:	687a      	ldr	r2, [r7, #4]
 800720c:	68fb      	ldr	r3, [r7, #12]
 800720e:	429a      	cmp	r2, r3
 8007210:	d806      	bhi.n	8007220 <prvProcessTimerOrBlockTask+0x3c>
			{
				( void ) xTaskResumeAll();
 8007212:	f7ff fa53 	bl	80066bc <xTaskResumeAll>
				prvProcessExpiredTimer( xNextExpireTime, xTimeNow );
 8007216:	68f9      	ldr	r1, [r7, #12]
 8007218:	6878      	ldr	r0, [r7, #4]
 800721a:	f7ff ff85 	bl	8007128 <prvProcessExpiredTimer>
		else
		{
			( void ) xTaskResumeAll();
		}
	}
}
 800721e:	e024      	b.n	800726a <prvProcessTimerOrBlockTask+0x86>
				if( xListWasEmpty != pdFALSE )
 8007220:	683b      	ldr	r3, [r7, #0]
 8007222:	2b00      	cmp	r3, #0
 8007224:	d008      	beq.n	8007238 <prvProcessTimerOrBlockTask+0x54>
					xListWasEmpty = listLIST_IS_EMPTY( pxOverflowTimerList );
 8007226:	4b13      	ldr	r3, [pc, #76]	; (8007274 <prvProcessTimerOrBlockTask+0x90>)
 8007228:	681b      	ldr	r3, [r3, #0]
 800722a:	681b      	ldr	r3, [r3, #0]
 800722c:	2b00      	cmp	r3, #0
 800722e:	d101      	bne.n	8007234 <prvProcessTimerOrBlockTask+0x50>
 8007230:	2301      	movs	r3, #1
 8007232:	e000      	b.n	8007236 <prvProcessTimerOrBlockTask+0x52>
 8007234:	2300      	movs	r3, #0
 8007236:	603b      	str	r3, [r7, #0]
				vQueueWaitForMessageRestricted( xTimerQueue, ( xNextExpireTime - xTimeNow ), xListWasEmpty );
 8007238:	4b0f      	ldr	r3, [pc, #60]	; (8007278 <prvProcessTimerOrBlockTask+0x94>)
 800723a:	6818      	ldr	r0, [r3, #0]
 800723c:	687a      	ldr	r2, [r7, #4]
 800723e:	68fb      	ldr	r3, [r7, #12]
 8007240:	1ad3      	subs	r3, r2, r3
 8007242:	683a      	ldr	r2, [r7, #0]
 8007244:	4619      	mov	r1, r3
 8007246:	f7ff f837 	bl	80062b8 <vQueueWaitForMessageRestricted>
				if( xTaskResumeAll() == pdFALSE )
 800724a:	f7ff fa37 	bl	80066bc <xTaskResumeAll>
 800724e:	4603      	mov	r3, r0
 8007250:	2b00      	cmp	r3, #0
 8007252:	d10a      	bne.n	800726a <prvProcessTimerOrBlockTask+0x86>
					portYIELD_WITHIN_API();
 8007254:	4b09      	ldr	r3, [pc, #36]	; (800727c <prvProcessTimerOrBlockTask+0x98>)
 8007256:	f04f 5280 	mov.w	r2, #268435456	; 0x10000000
 800725a:	601a      	str	r2, [r3, #0]
 800725c:	f3bf 8f4f 	dsb	sy
 8007260:	f3bf 8f6f 	isb	sy
}
 8007264:	e001      	b.n	800726a <prvProcessTimerOrBlockTask+0x86>
			( void ) xTaskResumeAll();
 8007266:	f7ff fa29 	bl	80066bc <xTaskResumeAll>
}
 800726a:	bf00      	nop
 800726c:	3710      	adds	r7, #16
 800726e:	46bd      	mov	sp, r7
 8007270:	bd80      	pop	{r7, pc}
 8007272:	bf00      	nop
 8007274:	200008c4 	.word	0x200008c4
 8007278:	200008c8 	.word	0x200008c8
 800727c:	e000ed04 	.word	0xe000ed04

08007280 <prvGetNextExpireTime>:
/*-----------------------------------------------------------*/

static TickType_t prvGetNextExpireTime( BaseType_t * const pxListWasEmpty )
{
 8007280:	b480      	push	{r7}
 8007282:	b085      	sub	sp, #20
 8007284:	af00      	add	r7, sp, #0
 8007286:	6078      	str	r0, [r7, #4]
	the timer with the nearest expiry time will expire.  If there are no
	active timers then just set the next expire time to 0.  That will cause
	this task to unblock when the tick count overflows, at which point the
	timer lists will be switched and the next expiry time can be
	re-assessed.  */
	*pxListWasEmpty = listLIST_IS_EMPTY( pxCurrentTimerList );
 8007288:	4b0e      	ldr	r3, [pc, #56]	; (80072c4 <prvGetNextExpireTime+0x44>)
 800728a:	681b      	ldr	r3, [r3, #0]
 800728c:	681b      	ldr	r3, [r3, #0]
 800728e:	2b00      	cmp	r3, #0
 8007290:	d101      	bne.n	8007296 <prvGetNextExpireTime+0x16>
 8007292:	2201      	movs	r2, #1
 8007294:	e000      	b.n	8007298 <prvGetNextExpireTime+0x18>
 8007296:	2200      	movs	r2, #0
 8007298:	687b      	ldr	r3, [r7, #4]
 800729a:	601a      	str	r2, [r3, #0]
	if( *pxListWasEmpty == pdFALSE )
 800729c:	687b      	ldr	r3, [r7, #4]
 800729e:	681b      	ldr	r3, [r3, #0]
 80072a0:	2b00      	cmp	r3, #0
 80072a2:	d105      	bne.n	80072b0 <prvGetNextExpireTime+0x30>
	{
		xNextExpireTime = listGET_ITEM_VALUE_OF_HEAD_ENTRY( pxCurrentTimerList );
 80072a4:	4b07      	ldr	r3, [pc, #28]	; (80072c4 <prvGetNextExpireTime+0x44>)
 80072a6:	681b      	ldr	r3, [r3, #0]
 80072a8:	68db      	ldr	r3, [r3, #12]
 80072aa:	681b      	ldr	r3, [r3, #0]
 80072ac:	60fb      	str	r3, [r7, #12]
 80072ae:	e001      	b.n	80072b4 <prvGetNextExpireTime+0x34>
	}
	else
	{
		/* Ensure the task unblocks when the tick count rolls over. */
		xNextExpireTime = ( TickType_t ) 0U;
 80072b0:	2300      	movs	r3, #0
 80072b2:	60fb      	str	r3, [r7, #12]
	}

	return xNextExpireTime;
 80072b4:	68fb      	ldr	r3, [r7, #12]
}
 80072b6:	4618      	mov	r0, r3
 80072b8:	3714      	adds	r7, #20
 80072ba:	46bd      	mov	sp, r7
 80072bc:	f85d 7b04 	ldr.w	r7, [sp], #4
 80072c0:	4770      	bx	lr
 80072c2:	bf00      	nop
 80072c4:	200008c0 	.word	0x200008c0

080072c8 <prvSampleTimeNow>:
/*-----------------------------------------------------------*/

static TickType_t prvSampleTimeNow( BaseType_t * const pxTimerListsWereSwitched )
{
 80072c8:	b580      	push	{r7, lr}
 80072ca:	b084      	sub	sp, #16
 80072cc:	af00      	add	r7, sp, #0
 80072ce:	6078      	str	r0, [r7, #4]
TickType_t xTimeNow;
PRIVILEGED_DATA static TickType_t xLastTime = ( TickType_t ) 0U; /*lint !e956 Variable is only accessible to one task. */

	xTimeNow = xTaskGetTickCount();
 80072d0:	f7ff fa90 	bl	80067f4 <xTaskGetTickCount>
 80072d4:	60f8      	str	r0, [r7, #12]

	if( xTimeNow < xLastTime )
 80072d6:	4b0b      	ldr	r3, [pc, #44]	; (8007304 <prvSampleTimeNow+0x3c>)
 80072d8:	681b      	ldr	r3, [r3, #0]
 80072da:	68fa      	ldr	r2, [r7, #12]
 80072dc:	429a      	cmp	r2, r3
 80072de:	d205      	bcs.n	80072ec <prvSampleTimeNow+0x24>
	{
		prvSwitchTimerLists();
 80072e0:	f000 f91a 	bl	8007518 <prvSwitchTimerLists>
		*pxTimerListsWereSwitched = pdTRUE;
 80072e4:	687b      	ldr	r3, [r7, #4]
 80072e6:	2201      	movs	r2, #1
 80072e8:	601a      	str	r2, [r3, #0]
 80072ea:	e002      	b.n	80072f2 <prvSampleTimeNow+0x2a>
	}
	else
	{
		*pxTimerListsWereSwitched = pdFALSE;
 80072ec:	687b      	ldr	r3, [r7, #4]
 80072ee:	2200      	movs	r2, #0
 80072f0:	601a      	str	r2, [r3, #0]
	}

	xLastTime = xTimeNow;
 80072f2:	4a04      	ldr	r2, [pc, #16]	; (8007304 <prvSampleTimeNow+0x3c>)
 80072f4:	68fb      	ldr	r3, [r7, #12]
 80072f6:	6013      	str	r3, [r2, #0]

	return xTimeNow;
 80072f8:	68fb      	ldr	r3, [r7, #12]
}
 80072fa:	4618      	mov	r0, r3
 80072fc:	3710      	adds	r7, #16
 80072fe:	46bd      	mov	sp, r7
 8007300:	bd80      	pop	{r7, pc}
 8007302:	bf00      	nop
 8007304:	200008d0 	.word	0x200008d0

08007308 <prvInsertTimerInActiveList>:
/*-----------------------------------------------------------*/

static BaseType_t prvInsertTimerInActiveList( Timer_t * const pxTimer, const TickType_t xNextExpiryTime, const TickType_t xTimeNow, const TickType_t xCommandTime )
{
 8007308:	b580      	push	{r7, lr}
 800730a:	b086      	sub	sp, #24
 800730c:	af00      	add	r7, sp, #0
 800730e:	60f8      	str	r0, [r7, #12]
 8007310:	60b9      	str	r1, [r7, #8]
 8007312:	607a      	str	r2, [r7, #4]
 8007314:	603b      	str	r3, [r7, #0]
BaseType_t xProcessTimerNow = pdFALSE;
 8007316:	2300      	movs	r3, #0
 8007318:	617b      	str	r3, [r7, #20]

	listSET_LIST_ITEM_VALUE( &( pxTimer->xTimerListItem ), xNextExpiryTime );
 800731a:	68fb      	ldr	r3, [r7, #12]
 800731c:	68ba      	ldr	r2, [r7, #8]
 800731e:	605a      	str	r2, [r3, #4]
	listSET_LIST_ITEM_OWNER( &( pxTimer->xTimerListItem ), pxTimer );
 8007320:	68fb      	ldr	r3, [r7, #12]
 8007322:	68fa      	ldr	r2, [r7, #12]
 8007324:	611a      	str	r2, [r3, #16]

	if( xNextExpiryTime <= xTimeNow )
 8007326:	68ba      	ldr	r2, [r7, #8]
 8007328:	687b      	ldr	r3, [r7, #4]
 800732a:	429a      	cmp	r2, r3
 800732c:	d812      	bhi.n	8007354 <prvInsertTimerInActiveList+0x4c>
	{
		/* Has the expiry time elapsed between the command to start/reset a
		timer was issued, and the time the command was processed? */
		if( ( ( TickType_t ) ( xTimeNow - xCommandTime ) ) >= pxTimer->xTimerPeriodInTicks ) /*lint !e961 MISRA exception as the casts are only redundant for some ports. */
 800732e:	687a      	ldr	r2, [r7, #4]
 8007330:	683b      	ldr	r3, [r7, #0]
 8007332:	1ad2      	subs	r2, r2, r3
 8007334:	68fb      	ldr	r3, [r7, #12]
 8007336:	699b      	ldr	r3, [r3, #24]
 8007338:	429a      	cmp	r2, r3
 800733a:	d302      	bcc.n	8007342 <prvInsertTimerInActiveList+0x3a>
		{
			/* The time between a command being issued and the command being
			processed actually exceeds the timers period.  */
			xProcessTimerNow = pdTRUE;
 800733c:	2301      	movs	r3, #1
 800733e:	617b      	str	r3, [r7, #20]
 8007340:	e01b      	b.n	800737a <prvInsertTimerInActiveList+0x72>
		}
		else
		{
			vListInsert( pxOverflowTimerList, &( pxTimer->xTimerListItem ) );
 8007342:	4b10      	ldr	r3, [pc, #64]	; (8007384 <prvInsertTimerInActiveList+0x7c>)
 8007344:	681a      	ldr	r2, [r3, #0]
 8007346:	68fb      	ldr	r3, [r7, #12]
 8007348:	3304      	adds	r3, #4
 800734a:	4619      	mov	r1, r3
 800734c:	4610      	mov	r0, r2
 800734e:	f7fe fad8 	bl	8005902 <vListInsert>
 8007352:	e012      	b.n	800737a <prvInsertTimerInActiveList+0x72>
		}
	}
	else
	{
		if( ( xTimeNow < xCommandTime ) && ( xNextExpiryTime >= xCommandTime ) )
 8007354:	687a      	ldr	r2, [r7, #4]
 8007356:	683b      	ldr	r3, [r7, #0]
 8007358:	429a      	cmp	r2, r3
 800735a:	d206      	bcs.n	800736a <prvInsertTimerInActiveList+0x62>
 800735c:	68ba      	ldr	r2, [r7, #8]
 800735e:	683b      	ldr	r3, [r7, #0]
 8007360:	429a      	cmp	r2, r3
 8007362:	d302      	bcc.n	800736a <prvInsertTimerInActiveList+0x62>
		{
			/* If, since the command was issued, the tick count has overflowed
			but the expiry time has not, then the timer must have already passed
			its expiry time and should be processed immediately. */
			xProcessTimerNow = pdTRUE;
 8007364:	2301      	movs	r3, #1
 8007366:	617b      	str	r3, [r7, #20]
 8007368:	e007      	b.n	800737a <prvInsertTimerInActiveList+0x72>
		}
		else
		{
			vListInsert( pxCurrentTimerList, &( pxTimer->xTimerListItem ) );
 800736a:	4b07      	ldr	r3, [pc, #28]	; (8007388 <prvInsertTimerInActiveList+0x80>)
 800736c:	681a      	ldr	r2, [r3, #0]
 800736e:	68fb      	ldr	r3, [r7, #12]
 8007370:	3304      	adds	r3, #4
 8007372:	4619      	mov	r1, r3
 8007374:	4610      	mov	r0, r2
 8007376:	f7fe fac4 	bl	8005902 <vListInsert>
		}
	}

	return xProcessTimerNow;
 800737a:	697b      	ldr	r3, [r7, #20]
}
 800737c:	4618      	mov	r0, r3
 800737e:	3718      	adds	r7, #24
 8007380:	46bd      	mov	sp, r7
 8007382:	bd80      	pop	{r7, pc}
 8007384:	200008c4 	.word	0x200008c4
 8007388:	200008c0 	.word	0x200008c0

0800738c <prvProcessReceivedCommands>:
/*-----------------------------------------------------------*/

static void	prvProcessReceivedCommands( void )
{
 800738c:	b580      	push	{r7, lr}
 800738e:	b08c      	sub	sp, #48	; 0x30
 8007390:	af02      	add	r7, sp, #8
DaemonTaskMessage_t xMessage;
Timer_t *pxTimer;
BaseType_t xTimerListsWereSwitched, xResult;
TickType_t xTimeNow;

	while( xQueueReceive( xTimerQueue, &xMessage, tmrNO_DELAY ) != pdFAIL ) /*lint !e603 xMessage does not have to be initialised as it is passed out, not in, and it is not used unless xQueueReceive() returns pdTRUE. */
 8007392:	e0ae      	b.n	80074f2 <prvProcessReceivedCommands+0x166>
		}
		#endif /* INCLUDE_xTimerPendFunctionCall */

		/* Commands that are positive are timer commands rather than pended
		function calls. */
		if( xMessage.xMessageID >= ( BaseType_t ) 0 )
 8007394:	68bb      	ldr	r3, [r7, #8]
 8007396:	2b00      	cmp	r3, #0
 8007398:	f2c0 80aa 	blt.w	80074f0 <prvProcessReceivedCommands+0x164>
		{
			/* The messages uses the xTimerParameters member to work on a
			software timer. */
			pxTimer = xMessage.u.xTimerParameters.pxTimer;
 800739c:	693b      	ldr	r3, [r7, #16]
 800739e:	627b      	str	r3, [r7, #36]	; 0x24

			if( listIS_CONTAINED_WITHIN( NULL, &( pxTimer->xTimerListItem ) ) == pdFALSE ) /*lint !e961. The cast is only redundant when NULL is passed into the macro. */
 80073a0:	6a7b      	ldr	r3, [r7, #36]	; 0x24
 80073a2:	695b      	ldr	r3, [r3, #20]
 80073a4:	2b00      	cmp	r3, #0
 80073a6:	d004      	beq.n	80073b2 <prvProcessReceivedCommands+0x26>
			{
				/* The timer is in a list, remove it. */
				( void ) uxListRemove( &( pxTimer->xTimerListItem ) );
 80073a8:	6a7b      	ldr	r3, [r7, #36]	; 0x24
 80073aa:	3304      	adds	r3, #4
 80073ac:	4618      	mov	r0, r3
 80073ae:	f7fe fae1 	bl	8005974 <uxListRemove>
			it must be present in the function call.  prvSampleTimeNow() must be
			called after the message is received from xTimerQueue so there is no
			possibility of a higher priority task adding a message to the message
			queue with a time that is ahead of the timer daemon task (because it
			pre-empted the timer daemon task after the xTimeNow value was set). */
			xTimeNow = prvSampleTimeNow( &xTimerListsWereSwitched );
 80073b2:	1d3b      	adds	r3, r7, #4
 80073b4:	4618      	mov	r0, r3
 80073b6:	f7ff ff87 	bl	80072c8 <prvSampleTimeNow>
 80073ba:	6238      	str	r0, [r7, #32]

			switch( xMessage.xMessageID )
 80073bc:	68bb      	ldr	r3, [r7, #8]
 80073be:	2b09      	cmp	r3, #9
 80073c0:	f200 8097 	bhi.w	80074f2 <prvProcessReceivedCommands+0x166>
 80073c4:	a201      	add	r2, pc, #4	; (adr r2, 80073cc <prvProcessReceivedCommands+0x40>)
 80073c6:	f852 f023 	ldr.w	pc, [r2, r3, lsl #2]
 80073ca:	bf00      	nop
 80073cc:	080073f5 	.word	0x080073f5
 80073d0:	080073f5 	.word	0x080073f5
 80073d4:	080073f5 	.word	0x080073f5
 80073d8:	08007469 	.word	0x08007469
 80073dc:	0800747d 	.word	0x0800747d
 80073e0:	080074c7 	.word	0x080074c7
 80073e4:	080073f5 	.word	0x080073f5
 80073e8:	080073f5 	.word	0x080073f5
 80073ec:	08007469 	.word	0x08007469
 80073f0:	0800747d 	.word	0x0800747d
				case tmrCOMMAND_START_FROM_ISR :
				case tmrCOMMAND_RESET :
				case tmrCOMMAND_RESET_FROM_ISR :
				case tmrCOMMAND_START_DONT_TRACE :
					/* Start or restart a timer. */
					pxTimer->ucStatus |= tmrSTATUS_IS_ACTIVE;
 80073f4:	6a7b      	ldr	r3, [r7, #36]	; 0x24
 80073f6:	f893 3028 	ldrb.w	r3, [r3, #40]	; 0x28
 80073fa:	f043 0301 	orr.w	r3, r3, #1
 80073fe:	b2da      	uxtb	r2, r3
 8007400:	6a7b      	ldr	r3, [r7, #36]	; 0x24
 8007402:	f883 2028 	strb.w	r2, [r3, #40]	; 0x28
					if( prvInsertTimerInActiveList( pxTimer,  xMessage.u.xTimerParameters.xMessageValue + pxTimer->xTimerPeriodInTicks, xTimeNow, xMessage.u.xTimerParameters.xMessageValue ) != pdFALSE )
 8007406:	68fa      	ldr	r2, [r7, #12]
 8007408:	6a7b      	ldr	r3, [r7, #36]	; 0x24
 800740a:	699b      	ldr	r3, [r3, #24]
 800740c:	18d1      	adds	r1, r2, r3
 800740e:	68fb      	ldr	r3, [r7, #12]
 8007410:	6a3a      	ldr	r2, [r7, #32]
 8007412:	6a78      	ldr	r0, [r7, #36]	; 0x24
 8007414:	f7ff ff78 	bl	8007308 <prvInsertTimerInActiveList>
 8007418:	4603      	mov	r3, r0
 800741a:	2b00      	cmp	r3, #0
 800741c:	d069      	beq.n	80074f2 <prvProcessReceivedCommands+0x166>
					{
						/* The timer expired before it was added to the active
						timer list.  Process it now. */
						pxTimer->pxCallbackFunction( ( TimerHandle_t ) pxTimer );
 800741e:	6a7b      	ldr	r3, [r7, #36]	; 0x24
 8007420:	6a1b      	ldr	r3, [r3, #32]
 8007422:	6a78      	ldr	r0, [r7, #36]	; 0x24
 8007424:	4798      	blx	r3
						traceTIMER_EXPIRED( pxTimer );

						if( ( pxTimer->ucStatus & tmrSTATUS_IS_AUTORELOAD ) != 0 )
 8007426:	6a7b      	ldr	r3, [r7, #36]	; 0x24
 8007428:	f893 3028 	ldrb.w	r3, [r3, #40]	; 0x28
 800742c:	f003 0304 	and.w	r3, r3, #4
 8007430:	2b00      	cmp	r3, #0
 8007432:	d05e      	beq.n	80074f2 <prvProcessReceivedCommands+0x166>
						{
							xResult = xTimerGenericCommand( pxTimer, tmrCOMMAND_START_DONT_TRACE, xMessage.u.xTimerParameters.xMessageValue + pxTimer->xTimerPeriodInTicks, NULL, tmrNO_DELAY );
 8007434:	68fa      	ldr	r2, [r7, #12]
 8007436:	6a7b      	ldr	r3, [r7, #36]	; 0x24
 8007438:	699b      	ldr	r3, [r3, #24]
 800743a:	441a      	add	r2, r3
 800743c:	2300      	movs	r3, #0
 800743e:	9300      	str	r3, [sp, #0]
 8007440:	2300      	movs	r3, #0
 8007442:	2100      	movs	r1, #0
 8007444:	6a78      	ldr	r0, [r7, #36]	; 0x24
 8007446:	f7ff fe21 	bl	800708c <xTimerGenericCommand>
 800744a:	61f8      	str	r0, [r7, #28]
							configASSERT( xResult );
 800744c:	69fb      	ldr	r3, [r7, #28]
 800744e:	2b00      	cmp	r3, #0
 8007450:	d14f      	bne.n	80074f2 <prvProcessReceivedCommands+0x166>
	__asm volatile
 8007452:	f04f 0350 	mov.w	r3, #80	; 0x50
 8007456:	f383 8811 	msr	BASEPRI, r3
 800745a:	f3bf 8f6f 	isb	sy
 800745e:	f3bf 8f4f 	dsb	sy
 8007462:	61bb      	str	r3, [r7, #24]
}
 8007464:	bf00      	nop
 8007466:	e7fe      	b.n	8007466 <prvProcessReceivedCommands+0xda>
					break;

				case tmrCOMMAND_STOP :
				case tmrCOMMAND_STOP_FROM_ISR :
					/* The timer has already been removed from the active list. */
					pxTimer->ucStatus &= ~tmrSTATUS_IS_ACTIVE;
 8007468:	6a7b      	ldr	r3, [r7, #36]	; 0x24
 800746a:	f893 3028 	ldrb.w	r3, [r3, #40]	; 0x28
 800746e:	f023 0301 	bic.w	r3, r3, #1
 8007472:	b2da      	uxtb	r2, r3
 8007474:	6a7b      	ldr	r3, [r7, #36]	; 0x24
 8007476:	f883 2028 	strb.w	r2, [r3, #40]	; 0x28
					break;
 800747a:	e03a      	b.n	80074f2 <prvProcessReceivedCommands+0x166>

				case tmrCOMMAND_CHANGE_PERIOD :
				case tmrCOMMAND_CHANGE_PERIOD_FROM_ISR :
					pxTimer->ucStatus |= tmrSTATUS_IS_ACTIVE;
 800747c:	6a7b      	ldr	r3, [r7, #36]	; 0x24
 800747e:	f893 3028 	ldrb.w	r3, [r3, #40]	; 0x28
 8007482:	f043 0301 	orr.w	r3, r3, #1
 8007486:	b2da      	uxtb	r2, r3
 8007488:	6a7b      	ldr	r3, [r7, #36]	; 0x24
 800748a:	f883 2028 	strb.w	r2, [r3, #40]	; 0x28
					pxTimer->xTimerPeriodInTicks = xMessage.u.xTimerParameters.xMessageValue;
 800748e:	68fa      	ldr	r2, [r7, #12]
 8007490:	6a7b      	ldr	r3, [r7, #36]	; 0x24
 8007492:	619a      	str	r2, [r3, #24]
					configASSERT( ( pxTimer->xTimerPeriodInTicks > 0 ) );
 8007494:	6a7b      	ldr	r3, [r7, #36]	; 0x24
 8007496:	699b      	ldr	r3, [r3, #24]
 8007498:	2b00      	cmp	r3, #0
 800749a:	d10a      	bne.n	80074b2 <prvProcessReceivedCommands+0x126>
	__asm volatile
 800749c:	f04f 0350 	mov.w	r3, #80	; 0x50
 80074a0:	f383 8811 	msr	BASEPRI, r3
 80074a4:	f3bf 8f6f 	isb	sy
 80074a8:	f3bf 8f4f 	dsb	sy
 80074ac:	617b      	str	r3, [r7, #20]
}
 80074ae:	bf00      	nop
 80074b0:	e7fe      	b.n	80074b0 <prvProcessReceivedCommands+0x124>
					be longer or shorter than the old one.  The command time is
					therefore set to the current time, and as the period cannot
					be zero the next expiry time can only be in the future,
					meaning (unlike for the xTimerStart() case above) there is
					no fail case that needs to be handled here. */
					( void ) prvInsertTimerInActiveList( pxTimer, ( xTimeNow + pxTimer->xTimerPeriodInTicks ), xTimeNow, xTimeNow );
 80074b2:	6a7b      	ldr	r3, [r7, #36]	; 0x24
 80074b4:	699a      	ldr	r2, [r3, #24]
 80074b6:	6a3b      	ldr	r3, [r7, #32]
 80074b8:	18d1      	adds	r1, r2, r3
 80074ba:	6a3b      	ldr	r3, [r7, #32]
 80074bc:	6a3a      	ldr	r2, [r7, #32]
 80074be:	6a78      	ldr	r0, [r7, #36]	; 0x24
 80074c0:	f7ff ff22 	bl	8007308 <prvInsertTimerInActiveList>
					break;
 80074c4:	e015      	b.n	80074f2 <prvProcessReceivedCommands+0x166>
					#if ( configSUPPORT_DYNAMIC_ALLOCATION == 1 )
					{
						/* The timer has already been removed from the active list,
						just free up the memory if the memory was dynamically
						allocated. */
						if( ( pxTimer->ucStatus & tmrSTATUS_IS_STATICALLY_ALLOCATED ) == ( uint8_t ) 0 )
 80074c6:	6a7b      	ldr	r3, [r7, #36]	; 0x24
 80074c8:	f893 3028 	ldrb.w	r3, [r3, #40]	; 0x28
 80074cc:	f003 0302 	and.w	r3, r3, #2
 80074d0:	2b00      	cmp	r3, #0
 80074d2:	d103      	bne.n	80074dc <prvProcessReceivedCommands+0x150>
						{
							vPortFree( pxTimer );
 80074d4:	6a78      	ldr	r0, [r7, #36]	; 0x24
 80074d6:	f000 fbcb 	bl	8007c70 <vPortFree>
 80074da:	e00a      	b.n	80074f2 <prvProcessReceivedCommands+0x166>
						}
						else
						{
							pxTimer->ucStatus &= ~tmrSTATUS_IS_ACTIVE;
 80074dc:	6a7b      	ldr	r3, [r7, #36]	; 0x24
 80074de:	f893 3028 	ldrb.w	r3, [r3, #40]	; 0x28
 80074e2:	f023 0301 	bic.w	r3, r3, #1
 80074e6:	b2da      	uxtb	r2, r3
 80074e8:	6a7b      	ldr	r3, [r7, #36]	; 0x24
 80074ea:	f883 2028 	strb.w	r2, [r3, #40]	; 0x28
						no need to free the memory - just mark the timer as
						"not active". */
						pxTimer->ucStatus &= ~tmrSTATUS_IS_ACTIVE;
					}
					#endif /* configSUPPORT_DYNAMIC_ALLOCATION */
					break;
 80074ee:	e000      	b.n	80074f2 <prvProcessReceivedCommands+0x166>

				default	:
					/* Don't expect to get here. */
					break;
			}
		}
 80074f0:	bf00      	nop
	while( xQueueReceive( xTimerQueue, &xMessage, tmrNO_DELAY ) != pdFAIL ) /*lint !e603 xMessage does not have to be initialised as it is passed out, not in, and it is not used unless xQueueReceive() returns pdTRUE. */
 80074f2:	4b08      	ldr	r3, [pc, #32]	; (8007514 <prvProcessReceivedCommands+0x188>)
 80074f4:	681b      	ldr	r3, [r3, #0]
 80074f6:	f107 0108 	add.w	r1, r7, #8
 80074fa:	2200      	movs	r2, #0
 80074fc:	4618      	mov	r0, r3
 80074fe:	f7fe fcc1 	bl	8005e84 <xQueueReceive>
 8007502:	4603      	mov	r3, r0
 8007504:	2b00      	cmp	r3, #0
 8007506:	f47f af45 	bne.w	8007394 <prvProcessReceivedCommands+0x8>
	}
}
 800750a:	bf00      	nop
 800750c:	bf00      	nop
 800750e:	3728      	adds	r7, #40	; 0x28
 8007510:	46bd      	mov	sp, r7
 8007512:	bd80      	pop	{r7, pc}
 8007514:	200008c8 	.word	0x200008c8

08007518 <prvSwitchTimerLists>:
/*-----------------------------------------------------------*/

static void prvSwitchTimerLists( void )
{
 8007518:	b580      	push	{r7, lr}
 800751a:	b088      	sub	sp, #32
 800751c:	af02      	add	r7, sp, #8

	/* The tick count has overflowed.  The timer lists must be switched.
	If there are any timers still referenced from the current timer list
	then they must have expired and should be processed before the lists
	are switched. */
	while( listLIST_IS_EMPTY( pxCurrentTimerList ) == pdFALSE )
 800751e:	e048      	b.n	80075b2 <prvSwitchTimerLists+0x9a>
	{
		xNextExpireTime = listGET_ITEM_VALUE_OF_HEAD_ENTRY( pxCurrentTimerList );
 8007520:	4b2d      	ldr	r3, [pc, #180]	; (80075d8 <prvSwitchTimerLists+0xc0>)
 8007522:	681b      	ldr	r3, [r3, #0]
 8007524:	68db      	ldr	r3, [r3, #12]
 8007526:	681b      	ldr	r3, [r3, #0]
 8007528:	613b      	str	r3, [r7, #16]

		/* Remove the timer from the list. */
		pxTimer = ( Timer_t * ) listGET_OWNER_OF_HEAD_ENTRY( pxCurrentTimerList ); /*lint !e9087 !e9079 void * is used as this macro is used with tasks and co-routines too.  Alignment is known to be fine as the type of the pointer stored and retrieved is the same. */
 800752a:	4b2b      	ldr	r3, [pc, #172]	; (80075d8 <prvSwitchTimerLists+0xc0>)
 800752c:	681b      	ldr	r3, [r3, #0]
 800752e:	68db      	ldr	r3, [r3, #12]
 8007530:	68db      	ldr	r3, [r3, #12]
 8007532:	60fb      	str	r3, [r7, #12]
		( void ) uxListRemove( &( pxTimer->xTimerListItem ) );
 8007534:	68fb      	ldr	r3, [r7, #12]
 8007536:	3304      	adds	r3, #4
 8007538:	4618      	mov	r0, r3
 800753a:	f7fe fa1b 	bl	8005974 <uxListRemove>
		traceTIMER_EXPIRED( pxTimer );

		/* Execute its callback, then send a command to restart the timer if
		it is an auto-reload timer.  It cannot be restarted here as the lists
		have not yet been switched. */
		pxTimer->pxCallbackFunction( ( TimerHandle_t ) pxTimer );
 800753e:	68fb      	ldr	r3, [r7, #12]
 8007540:	6a1b      	ldr	r3, [r3, #32]
 8007542:	68f8      	ldr	r0, [r7, #12]
 8007544:	4798      	blx	r3

		if( ( pxTimer->ucStatus & tmrSTATUS_IS_AUTORELOAD ) != 0 )
 8007546:	68fb      	ldr	r3, [r7, #12]
 8007548:	f893 3028 	ldrb.w	r3, [r3, #40]	; 0x28
 800754c:	f003 0304 	and.w	r3, r3, #4
 8007550:	2b00      	cmp	r3, #0
 8007552:	d02e      	beq.n	80075b2 <prvSwitchTimerLists+0x9a>
			the timer going into the same timer list then it has already expired
			and the timer should be re-inserted into the current list so it is
			processed again within this loop.  Otherwise a command should be sent
			to restart the timer to ensure it is only inserted into a list after
			the lists have been swapped. */
			xReloadTime = ( xNextExpireTime + pxTimer->xTimerPeriodInTicks );
 8007554:	68fb      	ldr	r3, [r7, #12]
 8007556:	699b      	ldr	r3, [r3, #24]
 8007558:	693a      	ldr	r2, [r7, #16]
 800755a:	4413      	add	r3, r2
 800755c:	60bb      	str	r3, [r7, #8]
			if( xReloadTime > xNextExpireTime )
 800755e:	68ba      	ldr	r2, [r7, #8]
 8007560:	693b      	ldr	r3, [r7, #16]
 8007562:	429a      	cmp	r2, r3
 8007564:	d90e      	bls.n	8007584 <prvSwitchTimerLists+0x6c>
			{
				listSET_LIST_ITEM_VALUE( &( pxTimer->xTimerListItem ), xReloadTime );
 8007566:	68fb      	ldr	r3, [r7, #12]
 8007568:	68ba      	ldr	r2, [r7, #8]
 800756a:	605a      	str	r2, [r3, #4]
				listSET_LIST_ITEM_OWNER( &( pxTimer->xTimerListItem ), pxTimer );
 800756c:	68fb      	ldr	r3, [r7, #12]
 800756e:	68fa      	ldr	r2, [r7, #12]
 8007570:	611a      	str	r2, [r3, #16]
				vListInsert( pxCurrentTimerList, &( pxTimer->xTimerListItem ) );
 8007572:	4b19      	ldr	r3, [pc, #100]	; (80075d8 <prvSwitchTimerLists+0xc0>)
 8007574:	681a      	ldr	r2, [r3, #0]
 8007576:	68fb      	ldr	r3, [r7, #12]
 8007578:	3304      	adds	r3, #4
 800757a:	4619      	mov	r1, r3
 800757c:	4610      	mov	r0, r2
 800757e:	f7fe f9c0 	bl	8005902 <vListInsert>
 8007582:	e016      	b.n	80075b2 <prvSwitchTimerLists+0x9a>
			}
			else
			{
				xResult = xTimerGenericCommand( pxTimer, tmrCOMMAND_START_DONT_TRACE, xNextExpireTime, NULL, tmrNO_DELAY );
 8007584:	2300      	movs	r3, #0
 8007586:	9300      	str	r3, [sp, #0]
 8007588:	2300      	movs	r3, #0
 800758a:	693a      	ldr	r2, [r7, #16]
 800758c:	2100      	movs	r1, #0
 800758e:	68f8      	ldr	r0, [r7, #12]
 8007590:	f7ff fd7c 	bl	800708c <xTimerGenericCommand>
 8007594:	6078      	str	r0, [r7, #4]
				configASSERT( xResult );
 8007596:	687b      	ldr	r3, [r7, #4]
 8007598:	2b00      	cmp	r3, #0
 800759a:	d10a      	bne.n	80075b2 <prvSwitchTimerLists+0x9a>
	__asm volatile
 800759c:	f04f 0350 	mov.w	r3, #80	; 0x50
 80075a0:	f383 8811 	msr	BASEPRI, r3
 80075a4:	f3bf 8f6f 	isb	sy
 80075a8:	f3bf 8f4f 	dsb	sy
 80075ac:	603b      	str	r3, [r7, #0]
}
 80075ae:	bf00      	nop
 80075b0:	e7fe      	b.n	80075b0 <prvSwitchTimerLists+0x98>
	while( listLIST_IS_EMPTY( pxCurrentTimerList ) == pdFALSE )
 80075b2:	4b09      	ldr	r3, [pc, #36]	; (80075d8 <prvSwitchTimerLists+0xc0>)
 80075b4:	681b      	ldr	r3, [r3, #0]
 80075b6:	681b      	ldr	r3, [r3, #0]
 80075b8:	2b00      	cmp	r3, #0
 80075ba:	d1b1      	bne.n	8007520 <prvSwitchTimerLists+0x8>
		{
			mtCOVERAGE_TEST_MARKER();
		}
	}

	pxTemp = pxCurrentTimerList;
 80075bc:	4b06      	ldr	r3, [pc, #24]	; (80075d8 <prvSwitchTimerLists+0xc0>)
 80075be:	681b      	ldr	r3, [r3, #0]
 80075c0:	617b      	str	r3, [r7, #20]
	pxCurrentTimerList = pxOverflowTimerList;
 80075c2:	4b06      	ldr	r3, [pc, #24]	; (80075dc <prvSwitchTimerLists+0xc4>)
 80075c4:	681b      	ldr	r3, [r3, #0]
 80075c6:	4a04      	ldr	r2, [pc, #16]	; (80075d8 <prvSwitchTimerLists+0xc0>)
 80075c8:	6013      	str	r3, [r2, #0]
	pxOverflowTimerList = pxTemp;
 80075ca:	4a04      	ldr	r2, [pc, #16]	; (80075dc <prvSwitchTimerLists+0xc4>)
 80075cc:	697b      	ldr	r3, [r7, #20]
 80075ce:	6013      	str	r3, [r2, #0]
}
 80075d0:	bf00      	nop
 80075d2:	3718      	adds	r7, #24
 80075d4:	46bd      	mov	sp, r7
 80075d6:	bd80      	pop	{r7, pc}
 80075d8:	200008c0 	.word	0x200008c0
 80075dc:	200008c4 	.word	0x200008c4

080075e0 <prvCheckForValidListAndQueue>:
/*-----------------------------------------------------------*/

static void prvCheckForValidListAndQueue( void )
{
 80075e0:	b580      	push	{r7, lr}
 80075e2:	af00      	add	r7, sp, #0
	/* Check that the list from which active timers are referenced, and the
	queue used to communicate with the timer service, have been
	initialised. */
	taskENTER_CRITICAL();
 80075e4:	f000 f95e 	bl	80078a4 <vPortEnterCritical>
	{
		if( xTimerQueue == NULL )
 80075e8:	4b12      	ldr	r3, [pc, #72]	; (8007634 <prvCheckForValidListAndQueue+0x54>)
 80075ea:	681b      	ldr	r3, [r3, #0]
 80075ec:	2b00      	cmp	r3, #0
 80075ee:	d11d      	bne.n	800762c <prvCheckForValidListAndQueue+0x4c>
		{
			vListInitialise( &xActiveTimerList1 );
 80075f0:	4811      	ldr	r0, [pc, #68]	; (8007638 <prvCheckForValidListAndQueue+0x58>)
 80075f2:	f7fe f935 	bl	8005860 <vListInitialise>
			vListInitialise( &xActiveTimerList2 );
 80075f6:	4811      	ldr	r0, [pc, #68]	; (800763c <prvCheckForValidListAndQueue+0x5c>)
 80075f8:	f7fe f932 	bl	8005860 <vListInitialise>
			pxCurrentTimerList = &xActiveTimerList1;
 80075fc:	4b10      	ldr	r3, [pc, #64]	; (8007640 <prvCheckForValidListAndQueue+0x60>)
 80075fe:	4a0e      	ldr	r2, [pc, #56]	; (8007638 <prvCheckForValidListAndQueue+0x58>)
 8007600:	601a      	str	r2, [r3, #0]
			pxOverflowTimerList = &xActiveTimerList2;
 8007602:	4b10      	ldr	r3, [pc, #64]	; (8007644 <prvCheckForValidListAndQueue+0x64>)
 8007604:	4a0d      	ldr	r2, [pc, #52]	; (800763c <prvCheckForValidListAndQueue+0x5c>)
 8007606:	601a      	str	r2, [r3, #0]

				xTimerQueue = xQueueCreateStatic( ( UBaseType_t ) configTIMER_QUEUE_LENGTH, ( UBaseType_t ) sizeof( DaemonTaskMessage_t ), &( ucStaticTimerQueueStorage[ 0 ] ), &xStaticTimerQueue );
			}
			#else
			{
				xTimerQueue = xQueueCreate( ( UBaseType_t ) configTIMER_QUEUE_LENGTH, sizeof( DaemonTaskMessage_t ) );
 8007608:	2200      	movs	r2, #0
 800760a:	210c      	movs	r1, #12
 800760c:	200a      	movs	r0, #10
 800760e:	f7fe fa43 	bl	8005a98 <xQueueGenericCreate>
 8007612:	4603      	mov	r3, r0
 8007614:	4a07      	ldr	r2, [pc, #28]	; (8007634 <prvCheckForValidListAndQueue+0x54>)
 8007616:	6013      	str	r3, [r2, #0]
			}
			#endif

			#if ( configQUEUE_REGISTRY_SIZE > 0 )
			{
				if( xTimerQueue != NULL )
 8007618:	4b06      	ldr	r3, [pc, #24]	; (8007634 <prvCheckForValidListAndQueue+0x54>)
 800761a:	681b      	ldr	r3, [r3, #0]
 800761c:	2b00      	cmp	r3, #0
 800761e:	d005      	beq.n	800762c <prvCheckForValidListAndQueue+0x4c>
				{
					vQueueAddToRegistry( xTimerQueue, "TmrQ" );
 8007620:	4b04      	ldr	r3, [pc, #16]	; (8007634 <prvCheckForValidListAndQueue+0x54>)
 8007622:	681b      	ldr	r3, [r3, #0]
 8007624:	4908      	ldr	r1, [pc, #32]	; (8007648 <prvCheckForValidListAndQueue+0x68>)
 8007626:	4618      	mov	r0, r3
 8007628:	f7fe fe1c 	bl	8006264 <vQueueAddToRegistry>
		else
		{
			mtCOVERAGE_TEST_MARKER();
		}
	}
	taskEXIT_CRITICAL();
 800762c:	f000 f96a 	bl	8007904 <vPortExitCritical>
}
 8007630:	bf00      	nop
 8007632:	bd80      	pop	{r7, pc}
 8007634:	200008c8 	.word	0x200008c8
 8007638:	20000898 	.word	0x20000898
 800763c:	200008ac 	.word	0x200008ac
 8007640:	200008c0 	.word	0x200008c0
 8007644:	200008c4 	.word	0x200008c4
 8007648:	08008a88 	.word	0x08008a88

0800764c <pxPortInitialiseStack>:

/*
 * See header file for description.
 */
StackType_t *pxPortInitialiseStack( StackType_t *pxTopOfStack, TaskFunction_t pxCode, void *pvParameters )
{
 800764c:	b480      	push	{r7}
 800764e:	b085      	sub	sp, #20
 8007650:	af00      	add	r7, sp, #0
 8007652:	60f8      	str	r0, [r7, #12]
 8007654:	60b9      	str	r1, [r7, #8]
 8007656:	607a      	str	r2, [r7, #4]
	/* Simulate the stack frame as it would be created by a context switch
	interrupt. */

	/* Offset added to account for the way the MCU uses the stack on entry/exit
	of interrupts, and to ensure alignment. */
	pxTopOfStack--;
 8007658:	68fb      	ldr	r3, [r7, #12]
 800765a:	3b04      	subs	r3, #4
 800765c:	60fb      	str	r3, [r7, #12]

	*pxTopOfStack = portINITIAL_XPSR;	/* xPSR */
 800765e:	68fb      	ldr	r3, [r7, #12]
 8007660:	f04f 7280 	mov.w	r2, #16777216	; 0x1000000
 8007664:	601a      	str	r2, [r3, #0]
	pxTopOfStack--;
 8007666:	68fb      	ldr	r3, [r7, #12]
 8007668:	3b04      	subs	r3, #4
 800766a:	60fb      	str	r3, [r7, #12]
	*pxTopOfStack = ( ( StackType_t ) pxCode ) & portSTART_ADDRESS_MASK;	/* PC */
 800766c:	68bb      	ldr	r3, [r7, #8]
 800766e:	f023 0201 	bic.w	r2, r3, #1
 8007672:	68fb      	ldr	r3, [r7, #12]
 8007674:	601a      	str	r2, [r3, #0]
	pxTopOfStack--;
 8007676:	68fb      	ldr	r3, [r7, #12]
 8007678:	3b04      	subs	r3, #4
 800767a:	60fb      	str	r3, [r7, #12]
	*pxTopOfStack = ( StackType_t ) portTASK_RETURN_ADDRESS;	/* LR */
 800767c:	4a0c      	ldr	r2, [pc, #48]	; (80076b0 <pxPortInitialiseStack+0x64>)
 800767e:	68fb      	ldr	r3, [r7, #12]
 8007680:	601a      	str	r2, [r3, #0]

	/* Save code space by skipping register initialisation. */
	pxTopOfStack -= 5;	/* R12, R3, R2 and R1. */
 8007682:	68fb      	ldr	r3, [r7, #12]
 8007684:	3b14      	subs	r3, #20
 8007686:	60fb      	str	r3, [r7, #12]
	*pxTopOfStack = ( StackType_t ) pvParameters;	/* R0 */
 8007688:	687a      	ldr	r2, [r7, #4]
 800768a:	68fb      	ldr	r3, [r7, #12]
 800768c:	601a      	str	r2, [r3, #0]

	/* A save method is being used that requires each task to maintain its
	own exec return value. */
	pxTopOfStack--;
 800768e:	68fb      	ldr	r3, [r7, #12]
 8007690:	3b04      	subs	r3, #4
 8007692:	60fb      	str	r3, [r7, #12]
	*pxTopOfStack = portINITIAL_EXC_RETURN;
 8007694:	68fb      	ldr	r3, [r7, #12]
 8007696:	f06f 0202 	mvn.w	r2, #2
 800769a:	601a      	str	r2, [r3, #0]

	pxTopOfStack -= 8;	/* R11, R10, R9, R8, R7, R6, R5 and R4. */
 800769c:	68fb      	ldr	r3, [r7, #12]
 800769e:	3b20      	subs	r3, #32
 80076a0:	60fb      	str	r3, [r7, #12]

	return pxTopOfStack;
 80076a2:	68fb      	ldr	r3, [r7, #12]
}
 80076a4:	4618      	mov	r0, r3
 80076a6:	3714      	adds	r7, #20
 80076a8:	46bd      	mov	sp, r7
 80076aa:	f85d 7b04 	ldr.w	r7, [sp], #4
 80076ae:	4770      	bx	lr
 80076b0:	080076b5 	.word	0x080076b5

080076b4 <prvTaskExitError>:
/*-----------------------------------------------------------*/

static void prvTaskExitError( void )
{
 80076b4:	b480      	push	{r7}
 80076b6:	b085      	sub	sp, #20
 80076b8:	af00      	add	r7, sp, #0
volatile uint32_t ulDummy = 0;
 80076ba:	2300      	movs	r3, #0
 80076bc:	607b      	str	r3, [r7, #4]
	its caller as there is nothing to return to.  If a task wants to exit it
	should instead call vTaskDelete( NULL ).

	Artificially force an assert() to be triggered if configASSERT() is
	defined, then stop here so application writers can catch the error. */
	configASSERT( uxCriticalNesting == ~0UL );
 80076be:	4b12      	ldr	r3, [pc, #72]	; (8007708 <prvTaskExitError+0x54>)
 80076c0:	681b      	ldr	r3, [r3, #0]
 80076c2:	f1b3 3fff 	cmp.w	r3, #4294967295	; 0xffffffff
 80076c6:	d00a      	beq.n	80076de <prvTaskExitError+0x2a>
	__asm volatile
 80076c8:	f04f 0350 	mov.w	r3, #80	; 0x50
 80076cc:	f383 8811 	msr	BASEPRI, r3
 80076d0:	f3bf 8f6f 	isb	sy
 80076d4:	f3bf 8f4f 	dsb	sy
 80076d8:	60fb      	str	r3, [r7, #12]
}
 80076da:	bf00      	nop
 80076dc:	e7fe      	b.n	80076dc <prvTaskExitError+0x28>
	__asm volatile
 80076de:	f04f 0350 	mov.w	r3, #80	; 0x50
 80076e2:	f383 8811 	msr	BASEPRI, r3
 80076e6:	f3bf 8f6f 	isb	sy
 80076ea:	f3bf 8f4f 	dsb	sy
 80076ee:	60bb      	str	r3, [r7, #8]
}
 80076f0:	bf00      	nop
	portDISABLE_INTERRUPTS();
	while( ulDummy == 0 )
 80076f2:	bf00      	nop
 80076f4:	687b      	ldr	r3, [r7, #4]
 80076f6:	2b00      	cmp	r3, #0
 80076f8:	d0fc      	beq.n	80076f4 <prvTaskExitError+0x40>
		about code appearing after this function is called - making ulDummy
		volatile makes the compiler think the function could return and
		therefore not output an 'unreachable code' warning for code that appears
		after it. */
	}
}
 80076fa:	bf00      	nop
 80076fc:	bf00      	nop
 80076fe:	3714      	adds	r7, #20
 8007700:	46bd      	mov	sp, r7
 8007702:	f85d 7b04 	ldr.w	r7, [sp], #4
 8007706:	4770      	bx	lr
 8007708:	20000048 	.word	0x20000048
 800770c:	00000000 	.word	0x00000000

08007710 <SVC_Handler>:
/*-----------------------------------------------------------*/

void vPortSVCHandler( void )
{
	__asm volatile (
 8007710:	4b07      	ldr	r3, [pc, #28]	; (8007730 <pxCurrentTCBConst2>)
 8007712:	6819      	ldr	r1, [r3, #0]
 8007714:	6808      	ldr	r0, [r1, #0]
 8007716:	e8b0 4ff0 	ldmia.w	r0!, {r4, r5, r6, r7, r8, r9, sl, fp, lr}
 800771a:	f380 8809 	msr	PSP, r0
 800771e:	f3bf 8f6f 	isb	sy
 8007722:	f04f 0000 	mov.w	r0, #0
 8007726:	f380 8811 	msr	BASEPRI, r0
 800772a:	4770      	bx	lr
 800772c:	f3af 8000 	nop.w

08007730 <pxCurrentTCBConst2>:
 8007730:	200006b8 	.word	0x200006b8
					"	bx r14							\n"
					"									\n"
					"	.align 4						\n"
					"pxCurrentTCBConst2: .word pxCurrentTCB				\n"
				);
}
 8007734:	bf00      	nop
 8007736:	bf00      	nop

08007738 <prvPortStartFirstTask>:
{
	/* Start the first task.  This also clears the bit that indicates the FPU is
	in use in case the FPU was used before the scheduler was started - which
	would otherwise result in the unnecessary leaving of space in the SVC stack
	for lazy saving of FPU registers. */
	__asm volatile(
 8007738:	4808      	ldr	r0, [pc, #32]	; (800775c <prvPortStartFirstTask+0x24>)
 800773a:	6800      	ldr	r0, [r0, #0]
 800773c:	6800      	ldr	r0, [r0, #0]
 800773e:	f380 8808 	msr	MSP, r0
 8007742:	f04f 0000 	mov.w	r0, #0
 8007746:	f380 8814 	msr	CONTROL, r0
 800774a:	b662      	cpsie	i
 800774c:	b661      	cpsie	f
 800774e:	f3bf 8f4f 	dsb	sy
 8007752:	f3bf 8f6f 	isb	sy
 8007756:	df00      	svc	0
 8007758:	bf00      	nop
					" dsb					\n"
					" isb					\n"
					" svc 0					\n" /* System call to start first task. */
					" nop					\n"
				);
}
 800775a:	bf00      	nop
 800775c:	e000ed08 	.word	0xe000ed08

08007760 <xPortStartScheduler>:

/*
 * See header file for description.
 */
BaseType_t xPortStartScheduler( void )
{
 8007760:	b580      	push	{r7, lr}
 8007762:	b086      	sub	sp, #24
 8007764:	af00      	add	r7, sp, #0
	configASSERT( configMAX_SYSCALL_INTERRUPT_PRIORITY );

	/* This port can be used on all revisions of the Cortex-M7 core other than
	the r0p1 parts.  r0p1 parts should use the port from the
	/source/portable/GCC/ARM_CM7/r0p1 directory. */
	configASSERT( portCPUID != portCORTEX_M7_r0p1_ID );
 8007766:	4b46      	ldr	r3, [pc, #280]	; (8007880 <xPortStartScheduler+0x120>)
 8007768:	681b      	ldr	r3, [r3, #0]
 800776a:	4a46      	ldr	r2, [pc, #280]	; (8007884 <xPortStartScheduler+0x124>)
 800776c:	4293      	cmp	r3, r2
 800776e:	d10a      	bne.n	8007786 <xPortStartScheduler+0x26>
	__asm volatile
 8007770:	f04f 0350 	mov.w	r3, #80	; 0x50
 8007774:	f383 8811 	msr	BASEPRI, r3
 8007778:	f3bf 8f6f 	isb	sy
 800777c:	f3bf 8f4f 	dsb	sy
 8007780:	613b      	str	r3, [r7, #16]
}
 8007782:	bf00      	nop
 8007784:	e7fe      	b.n	8007784 <xPortStartScheduler+0x24>
	configASSERT( portCPUID != portCORTEX_M7_r0p0_ID );
 8007786:	4b3e      	ldr	r3, [pc, #248]	; (8007880 <xPortStartScheduler+0x120>)
 8007788:	681b      	ldr	r3, [r3, #0]
 800778a:	4a3f      	ldr	r2, [pc, #252]	; (8007888 <xPortStartScheduler+0x128>)
 800778c:	4293      	cmp	r3, r2
 800778e:	d10a      	bne.n	80077a6 <xPortStartScheduler+0x46>
	__asm volatile
 8007790:	f04f 0350 	mov.w	r3, #80	; 0x50
 8007794:	f383 8811 	msr	BASEPRI, r3
 8007798:	f3bf 8f6f 	isb	sy
 800779c:	f3bf 8f4f 	dsb	sy
 80077a0:	60fb      	str	r3, [r7, #12]
}
 80077a2:	bf00      	nop
 80077a4:	e7fe      	b.n	80077a4 <xPortStartScheduler+0x44>

	#if( configASSERT_DEFINED == 1 )
	{
		volatile uint32_t ulOriginalPriority;
		volatile uint8_t * const pucFirstUserPriorityRegister = ( volatile uint8_t * const ) ( portNVIC_IP_REGISTERS_OFFSET_16 + portFIRST_USER_INTERRUPT_NUMBER );
 80077a6:	4b39      	ldr	r3, [pc, #228]	; (800788c <xPortStartScheduler+0x12c>)
 80077a8:	617b      	str	r3, [r7, #20]
		functions can be called.  ISR safe functions are those that end in
		"FromISR".  FreeRTOS maintains separate thread and ISR API functions to
		ensure interrupt entry is as fast and simple as possible.

		Save the interrupt priority value that is about to be clobbered. */
		ulOriginalPriority = *pucFirstUserPriorityRegister;
 80077aa:	697b      	ldr	r3, [r7, #20]
 80077ac:	781b      	ldrb	r3, [r3, #0]
 80077ae:	b2db      	uxtb	r3, r3
 80077b0:	607b      	str	r3, [r7, #4]

		/* Determine the number of priority bits available.  First write to all
		possible bits. */
		*pucFirstUserPriorityRegister = portMAX_8_BIT_VALUE;
 80077b2:	697b      	ldr	r3, [r7, #20]
 80077b4:	22ff      	movs	r2, #255	; 0xff
 80077b6:	701a      	strb	r2, [r3, #0]

		/* Read the value back to see how many bits stuck. */
		ucMaxPriorityValue = *pucFirstUserPriorityRegister;
 80077b8:	697b      	ldr	r3, [r7, #20]
 80077ba:	781b      	ldrb	r3, [r3, #0]
 80077bc:	b2db      	uxtb	r3, r3
 80077be:	70fb      	strb	r3, [r7, #3]

		/* Use the same mask on the maximum system call priority. */
		ucMaxSysCallPriority = configMAX_SYSCALL_INTERRUPT_PRIORITY & ucMaxPriorityValue;
 80077c0:	78fb      	ldrb	r3, [r7, #3]
 80077c2:	b2db      	uxtb	r3, r3
 80077c4:	f003 0350 	and.w	r3, r3, #80	; 0x50
 80077c8:	b2da      	uxtb	r2, r3
 80077ca:	4b31      	ldr	r3, [pc, #196]	; (8007890 <xPortStartScheduler+0x130>)
 80077cc:	701a      	strb	r2, [r3, #0]

		/* Calculate the maximum acceptable priority group value for the number
		of bits read back. */
		ulMaxPRIGROUPValue = portMAX_PRIGROUP_BITS;
 80077ce:	4b31      	ldr	r3, [pc, #196]	; (8007894 <xPortStartScheduler+0x134>)
 80077d0:	2207      	movs	r2, #7
 80077d2:	601a      	str	r2, [r3, #0]
		while( ( ucMaxPriorityValue & portTOP_BIT_OF_BYTE ) == portTOP_BIT_OF_BYTE )
 80077d4:	e009      	b.n	80077ea <xPortStartScheduler+0x8a>
		{
			ulMaxPRIGROUPValue--;
 80077d6:	4b2f      	ldr	r3, [pc, #188]	; (8007894 <xPortStartScheduler+0x134>)
 80077d8:	681b      	ldr	r3, [r3, #0]
 80077da:	3b01      	subs	r3, #1
 80077dc:	4a2d      	ldr	r2, [pc, #180]	; (8007894 <xPortStartScheduler+0x134>)
 80077de:	6013      	str	r3, [r2, #0]
			ucMaxPriorityValue <<= ( uint8_t ) 0x01;
 80077e0:	78fb      	ldrb	r3, [r7, #3]
 80077e2:	b2db      	uxtb	r3, r3
 80077e4:	005b      	lsls	r3, r3, #1
 80077e6:	b2db      	uxtb	r3, r3
 80077e8:	70fb      	strb	r3, [r7, #3]
		while( ( ucMaxPriorityValue & portTOP_BIT_OF_BYTE ) == portTOP_BIT_OF_BYTE )
 80077ea:	78fb      	ldrb	r3, [r7, #3]
 80077ec:	b2db      	uxtb	r3, r3
 80077ee:	f003 0380 	and.w	r3, r3, #128	; 0x80
 80077f2:	2b80      	cmp	r3, #128	; 0x80
 80077f4:	d0ef      	beq.n	80077d6 <xPortStartScheduler+0x76>
		#ifdef configPRIO_BITS
		{
			/* Check the FreeRTOS configuration that defines the number of
			priority bits matches the number of priority bits actually queried
			from the hardware. */
			configASSERT( ( portMAX_PRIGROUP_BITS - ulMaxPRIGROUPValue ) == configPRIO_BITS );
 80077f6:	4b27      	ldr	r3, [pc, #156]	; (8007894 <xPortStartScheduler+0x134>)
 80077f8:	681b      	ldr	r3, [r3, #0]
 80077fa:	f1c3 0307 	rsb	r3, r3, #7
 80077fe:	2b04      	cmp	r3, #4
 8007800:	d00a      	beq.n	8007818 <xPortStartScheduler+0xb8>
	__asm volatile
 8007802:	f04f 0350 	mov.w	r3, #80	; 0x50
 8007806:	f383 8811 	msr	BASEPRI, r3
 800780a:	f3bf 8f6f 	isb	sy
 800780e:	f3bf 8f4f 	dsb	sy
 8007812:	60bb      	str	r3, [r7, #8]
}
 8007814:	bf00      	nop
 8007816:	e7fe      	b.n	8007816 <xPortStartScheduler+0xb6>
		}
		#endif

		/* Shift the priority group value back to its position within the AIRCR
		register. */
		ulMaxPRIGROUPValue <<= portPRIGROUP_SHIFT;
 8007818:	4b1e      	ldr	r3, [pc, #120]	; (8007894 <xPortStartScheduler+0x134>)
 800781a:	681b      	ldr	r3, [r3, #0]
 800781c:	021b      	lsls	r3, r3, #8
 800781e:	4a1d      	ldr	r2, [pc, #116]	; (8007894 <xPortStartScheduler+0x134>)
 8007820:	6013      	str	r3, [r2, #0]
		ulMaxPRIGROUPValue &= portPRIORITY_GROUP_MASK;
 8007822:	4b1c      	ldr	r3, [pc, #112]	; (8007894 <xPortStartScheduler+0x134>)
 8007824:	681b      	ldr	r3, [r3, #0]
 8007826:	f403 63e0 	and.w	r3, r3, #1792	; 0x700
 800782a:	4a1a      	ldr	r2, [pc, #104]	; (8007894 <xPortStartScheduler+0x134>)
 800782c:	6013      	str	r3, [r2, #0]

		/* Restore the clobbered interrupt priority register to its original
		value. */
		*pucFirstUserPriorityRegister = ulOriginalPriority;
 800782e:	687b      	ldr	r3, [r7, #4]
 8007830:	b2da      	uxtb	r2, r3
 8007832:	697b      	ldr	r3, [r7, #20]
 8007834:	701a      	strb	r2, [r3, #0]
	}
	#endif /* conifgASSERT_DEFINED */

	/* Make PendSV and SysTick the lowest priority interrupts. */
	portNVIC_SYSPRI2_REG |= portNVIC_PENDSV_PRI;
 8007836:	4b18      	ldr	r3, [pc, #96]	; (8007898 <xPortStartScheduler+0x138>)
 8007838:	681b      	ldr	r3, [r3, #0]
 800783a:	4a17      	ldr	r2, [pc, #92]	; (8007898 <xPortStartScheduler+0x138>)
 800783c:	f443 0370 	orr.w	r3, r3, #15728640	; 0xf00000
 8007840:	6013      	str	r3, [r2, #0]
	portNVIC_SYSPRI2_REG |= portNVIC_SYSTICK_PRI;
 8007842:	4b15      	ldr	r3, [pc, #84]	; (8007898 <xPortStartScheduler+0x138>)
 8007844:	681b      	ldr	r3, [r3, #0]
 8007846:	4a14      	ldr	r2, [pc, #80]	; (8007898 <xPortStartScheduler+0x138>)
 8007848:	f043 4370 	orr.w	r3, r3, #4026531840	; 0xf0000000
 800784c:	6013      	str	r3, [r2, #0]

	/* Start the timer that generates the tick ISR.  Interrupts are disabled
	here already. */
	vPortSetupTimerInterrupt();
 800784e:	f000 f8dd 	bl	8007a0c <vPortSetupTimerInterrupt>

	/* Initialise the critical nesting count ready for the first task. */
	uxCriticalNesting = 0;
 8007852:	4b12      	ldr	r3, [pc, #72]	; (800789c <xPortStartScheduler+0x13c>)
 8007854:	2200      	movs	r2, #0
 8007856:	601a      	str	r2, [r3, #0]

	/* Ensure the VFP is enabled - it should be anyway. */
	vPortEnableVFP();
 8007858:	f000 f8fc 	bl	8007a54 <vPortEnableVFP>

	/* Lazy save always. */
	*( portFPCCR ) |= portASPEN_AND_LSPEN_BITS;
 800785c:	4b10      	ldr	r3, [pc, #64]	; (80078a0 <xPortStartScheduler+0x140>)
 800785e:	681b      	ldr	r3, [r3, #0]
 8007860:	4a0f      	ldr	r2, [pc, #60]	; (80078a0 <xPortStartScheduler+0x140>)
 8007862:	f043 4340 	orr.w	r3, r3, #3221225472	; 0xc0000000
 8007866:	6013      	str	r3, [r2, #0]

	/* Start the first task. */
	prvPortStartFirstTask();
 8007868:	f7ff ff66 	bl	8007738 <prvPortStartFirstTask>
	exit error function to prevent compiler warnings about a static function
	not being called in the case that the application writer overrides this
	functionality by defining configTASK_RETURN_ADDRESS.  Call
	vTaskSwitchContext() so link time optimisation does not remove the
	symbol. */
	vTaskSwitchContext();
 800786c:	f7ff f88a 	bl	8006984 <vTaskSwitchContext>
	prvTaskExitError();
 8007870:	f7ff ff20 	bl	80076b4 <prvTaskExitError>

	/* Should not get here! */
	return 0;
 8007874:	2300      	movs	r3, #0
}
 8007876:	4618      	mov	r0, r3
 8007878:	3718      	adds	r7, #24
 800787a:	46bd      	mov	sp, r7
 800787c:	bd80      	pop	{r7, pc}
 800787e:	bf00      	nop
 8007880:	e000ed00 	.word	0xe000ed00
 8007884:	410fc271 	.word	0x410fc271
 8007888:	410fc270 	.word	0x410fc270
 800788c:	e000e400 	.word	0xe000e400
 8007890:	200008d4 	.word	0x200008d4
 8007894:	200008d8 	.word	0x200008d8
 8007898:	e000ed20 	.word	0xe000ed20
 800789c:	20000048 	.word	0x20000048
 80078a0:	e000ef34 	.word	0xe000ef34

080078a4 <vPortEnterCritical>:
	configASSERT( uxCriticalNesting == 1000UL );
}
/*-----------------------------------------------------------*/

void vPortEnterCritical( void )
{
 80078a4:	b480      	push	{r7}
 80078a6:	b083      	sub	sp, #12
 80078a8:	af00      	add	r7, sp, #0
	__asm volatile
 80078aa:	f04f 0350 	mov.w	r3, #80	; 0x50
 80078ae:	f383 8811 	msr	BASEPRI, r3
 80078b2:	f3bf 8f6f 	isb	sy
 80078b6:	f3bf 8f4f 	dsb	sy
 80078ba:	607b      	str	r3, [r7, #4]
}
 80078bc:	bf00      	nop
	portDISABLE_INTERRUPTS();
	uxCriticalNesting++;
 80078be:	4b0f      	ldr	r3, [pc, #60]	; (80078fc <vPortEnterCritical+0x58>)
 80078c0:	681b      	ldr	r3, [r3, #0]
 80078c2:	3301      	adds	r3, #1
 80078c4:	4a0d      	ldr	r2, [pc, #52]	; (80078fc <vPortEnterCritical+0x58>)
 80078c6:	6013      	str	r3, [r2, #0]
	/* This is not the interrupt safe version of the enter critical function so
	assert() if it is being called from an interrupt context.  Only API
	functions that end in "FromISR" can be used in an interrupt.  Only assert if
	the critical nesting count is 1 to protect against recursive calls if the
	assert function also uses a critical section. */
	if( uxCriticalNesting == 1 )
 80078c8:	4b0c      	ldr	r3, [pc, #48]	; (80078fc <vPortEnterCritical+0x58>)
 80078ca:	681b      	ldr	r3, [r3, #0]
 80078cc:	2b01      	cmp	r3, #1
 80078ce:	d10f      	bne.n	80078f0 <vPortEnterCritical+0x4c>
	{
		configASSERT( ( portNVIC_INT_CTRL_REG & portVECTACTIVE_MASK ) == 0 );
 80078d0:	4b0b      	ldr	r3, [pc, #44]	; (8007900 <vPortEnterCritical+0x5c>)
 80078d2:	681b      	ldr	r3, [r3, #0]
 80078d4:	b2db      	uxtb	r3, r3
 80078d6:	2b00      	cmp	r3, #0
 80078d8:	d00a      	beq.n	80078f0 <vPortEnterCritical+0x4c>
	__asm volatile
 80078da:	f04f 0350 	mov.w	r3, #80	; 0x50
 80078de:	f383 8811 	msr	BASEPRI, r3
 80078e2:	f3bf 8f6f 	isb	sy
 80078e6:	f3bf 8f4f 	dsb	sy
 80078ea:	603b      	str	r3, [r7, #0]
}
 80078ec:	bf00      	nop
 80078ee:	e7fe      	b.n	80078ee <vPortEnterCritical+0x4a>
	}
}
 80078f0:	bf00      	nop
 80078f2:	370c      	adds	r7, #12
 80078f4:	46bd      	mov	sp, r7
 80078f6:	f85d 7b04 	ldr.w	r7, [sp], #4
 80078fa:	4770      	bx	lr
 80078fc:	20000048 	.word	0x20000048
 8007900:	e000ed04 	.word	0xe000ed04

08007904 <vPortExitCritical>:
/*-----------------------------------------------------------*/

void vPortExitCritical( void )
{
 8007904:	b480      	push	{r7}
 8007906:	b083      	sub	sp, #12
 8007908:	af00      	add	r7, sp, #0
	configASSERT( uxCriticalNesting );
 800790a:	4b12      	ldr	r3, [pc, #72]	; (8007954 <vPortExitCritical+0x50>)
 800790c:	681b      	ldr	r3, [r3, #0]
 800790e:	2b00      	cmp	r3, #0
 8007910:	d10a      	bne.n	8007928 <vPortExitCritical+0x24>
	__asm volatile
 8007912:	f04f 0350 	mov.w	r3, #80	; 0x50
 8007916:	f383 8811 	msr	BASEPRI, r3
 800791a:	f3bf 8f6f 	isb	sy
 800791e:	f3bf 8f4f 	dsb	sy
 8007922:	607b      	str	r3, [r7, #4]
}
 8007924:	bf00      	nop
 8007926:	e7fe      	b.n	8007926 <vPortExitCritical+0x22>
	uxCriticalNesting--;
 8007928:	4b0a      	ldr	r3, [pc, #40]	; (8007954 <vPortExitCritical+0x50>)
 800792a:	681b      	ldr	r3, [r3, #0]
 800792c:	3b01      	subs	r3, #1
 800792e:	4a09      	ldr	r2, [pc, #36]	; (8007954 <vPortExitCritical+0x50>)
 8007930:	6013      	str	r3, [r2, #0]
	if( uxCriticalNesting == 0 )
 8007932:	4b08      	ldr	r3, [pc, #32]	; (8007954 <vPortExitCritical+0x50>)
 8007934:	681b      	ldr	r3, [r3, #0]
 8007936:	2b00      	cmp	r3, #0
 8007938:	d105      	bne.n	8007946 <vPortExitCritical+0x42>
 800793a:	2300      	movs	r3, #0
 800793c:	603b      	str	r3, [r7, #0]
	__asm volatile
 800793e:	683b      	ldr	r3, [r7, #0]
 8007940:	f383 8811 	msr	BASEPRI, r3
}
 8007944:	bf00      	nop
	{
		portENABLE_INTERRUPTS();
	}
}
 8007946:	bf00      	nop
 8007948:	370c      	adds	r7, #12
 800794a:	46bd      	mov	sp, r7
 800794c:	f85d 7b04 	ldr.w	r7, [sp], #4
 8007950:	4770      	bx	lr
 8007952:	bf00      	nop
 8007954:	20000048 	.word	0x20000048
	...

08007960 <PendSV_Handler>:

void xPortPendSVHandler( void )
{
	/* This is a naked function. */

	__asm volatile
 8007960:	f3ef 8009 	mrs	r0, PSP
 8007964:	f3bf 8f6f 	isb	sy
 8007968:	4b15      	ldr	r3, [pc, #84]	; (80079c0 <pxCurrentTCBConst>)
 800796a:	681a      	ldr	r2, [r3, #0]
 800796c:	f01e 0f10 	tst.w	lr, #16
 8007970:	bf08      	it	eq
 8007972:	ed20 8a10 	vstmdbeq	r0!, {s16-s31}
 8007976:	e920 4ff0 	stmdb	r0!, {r4, r5, r6, r7, r8, r9, sl, fp, lr}
 800797a:	6010      	str	r0, [r2, #0]
 800797c:	e92d 0009 	stmdb	sp!, {r0, r3}
 8007980:	f04f 0050 	mov.w	r0, #80	; 0x50
 8007984:	f380 8811 	msr	BASEPRI, r0
 8007988:	f3bf 8f4f 	dsb	sy
 800798c:	f3bf 8f6f 	isb	sy
 8007990:	f7fe fff8 	bl	8006984 <vTaskSwitchContext>
 8007994:	f04f 0000 	mov.w	r0, #0
 8007998:	f380 8811 	msr	BASEPRI, r0
 800799c:	bc09      	pop	{r0, r3}
 800799e:	6819      	ldr	r1, [r3, #0]
 80079a0:	6808      	ldr	r0, [r1, #0]
 80079a2:	e8b0 4ff0 	ldmia.w	r0!, {r4, r5, r6, r7, r8, r9, sl, fp, lr}
 80079a6:	f01e 0f10 	tst.w	lr, #16
 80079aa:	bf08      	it	eq
 80079ac:	ecb0 8a10 	vldmiaeq	r0!, {s16-s31}
 80079b0:	f380 8809 	msr	PSP, r0
 80079b4:	f3bf 8f6f 	isb	sy
 80079b8:	4770      	bx	lr
 80079ba:	bf00      	nop
 80079bc:	f3af 8000 	nop.w

080079c0 <pxCurrentTCBConst>:
 80079c0:	200006b8 	.word	0x200006b8
	"										\n"
	"	.align 4							\n"
	"pxCurrentTCBConst: .word pxCurrentTCB	\n"
	::"i"(configMAX_SYSCALL_INTERRUPT_PRIORITY)
	);
}
 80079c4:	bf00      	nop
 80079c6:	bf00      	nop

080079c8 <SysTick_Handler>:
/*-----------------------------------------------------------*/

void xPortSysTickHandler( void )
{
 80079c8:	b580      	push	{r7, lr}
 80079ca:	b082      	sub	sp, #8
 80079cc:	af00      	add	r7, sp, #0
	__asm volatile
 80079ce:	f04f 0350 	mov.w	r3, #80	; 0x50
 80079d2:	f383 8811 	msr	BASEPRI, r3
 80079d6:	f3bf 8f6f 	isb	sy
 80079da:	f3bf 8f4f 	dsb	sy
 80079de:	607b      	str	r3, [r7, #4]
}
 80079e0:	bf00      	nop
	save and then restore the interrupt mask value as its value is already
	known. */
	portDISABLE_INTERRUPTS();
	{
		/* Increment the RTOS tick. */
		if( xTaskIncrementTick() != pdFALSE )
 80079e2:	f7fe ff17 	bl	8006814 <xTaskIncrementTick>
 80079e6:	4603      	mov	r3, r0
 80079e8:	2b00      	cmp	r3, #0
 80079ea:	d003      	beq.n	80079f4 <SysTick_Handler+0x2c>
		{
			/* A context switch is required.  Context switching is performed in
			the PendSV interrupt.  Pend the PendSV interrupt. */
			portNVIC_INT_CTRL_REG = portNVIC_PENDSVSET_BIT;
 80079ec:	4b06      	ldr	r3, [pc, #24]	; (8007a08 <SysTick_Handler+0x40>)
 80079ee:	f04f 5280 	mov.w	r2, #268435456	; 0x10000000
 80079f2:	601a      	str	r2, [r3, #0]
 80079f4:	2300      	movs	r3, #0
 80079f6:	603b      	str	r3, [r7, #0]
	__asm volatile
 80079f8:	683b      	ldr	r3, [r7, #0]
 80079fa:	f383 8811 	msr	BASEPRI, r3
}
 80079fe:	bf00      	nop
		}
	}
	portENABLE_INTERRUPTS();
}
 8007a00:	bf00      	nop
 8007a02:	3708      	adds	r7, #8
 8007a04:	46bd      	mov	sp, r7
 8007a06:	bd80      	pop	{r7, pc}
 8007a08:	e000ed04 	.word	0xe000ed04

08007a0c <vPortSetupTimerInterrupt>:
/*
 * Setup the systick timer to generate the tick interrupts at the required
 * frequency.
 */
__attribute__(( weak )) void vPortSetupTimerInterrupt( void )
{
 8007a0c:	b480      	push	{r7}
 8007a0e:	af00      	add	r7, sp, #0
		ulStoppedTimerCompensation = portMISSED_COUNTS_FACTOR / ( configCPU_CLOCK_HZ / configSYSTICK_CLOCK_HZ );
	}
	#endif /* configUSE_TICKLESS_IDLE */

	/* Stop and clear the SysTick. */
	portNVIC_SYSTICK_CTRL_REG = 0UL;
 8007a10:	4b0b      	ldr	r3, [pc, #44]	; (8007a40 <vPortSetupTimerInterrupt+0x34>)
 8007a12:	2200      	movs	r2, #0
 8007a14:	601a      	str	r2, [r3, #0]
	portNVIC_SYSTICK_CURRENT_VALUE_REG = 0UL;
 8007a16:	4b0b      	ldr	r3, [pc, #44]	; (8007a44 <vPortSetupTimerInterrupt+0x38>)
 8007a18:	2200      	movs	r2, #0
 8007a1a:	601a      	str	r2, [r3, #0]

	/* Configure SysTick to interrupt at the requested rate. */
	portNVIC_SYSTICK_LOAD_REG = ( configSYSTICK_CLOCK_HZ / configTICK_RATE_HZ ) - 1UL;
 8007a1c:	4b0a      	ldr	r3, [pc, #40]	; (8007a48 <vPortSetupTimerInterrupt+0x3c>)
 8007a1e:	681b      	ldr	r3, [r3, #0]
 8007a20:	4a0a      	ldr	r2, [pc, #40]	; (8007a4c <vPortSetupTimerInterrupt+0x40>)
 8007a22:	fba2 2303 	umull	r2, r3, r2, r3
 8007a26:	099b      	lsrs	r3, r3, #6
 8007a28:	4a09      	ldr	r2, [pc, #36]	; (8007a50 <vPortSetupTimerInterrupt+0x44>)
 8007a2a:	3b01      	subs	r3, #1
 8007a2c:	6013      	str	r3, [r2, #0]
	portNVIC_SYSTICK_CTRL_REG = ( portNVIC_SYSTICK_CLK_BIT | portNVIC_SYSTICK_INT_BIT | portNVIC_SYSTICK_ENABLE_BIT );
 8007a2e:	4b04      	ldr	r3, [pc, #16]	; (8007a40 <vPortSetupTimerInterrupt+0x34>)
 8007a30:	2207      	movs	r2, #7
 8007a32:	601a      	str	r2, [r3, #0]
}
 8007a34:	bf00      	nop
 8007a36:	46bd      	mov	sp, r7
 8007a38:	f85d 7b04 	ldr.w	r7, [sp], #4
 8007a3c:	4770      	bx	lr
 8007a3e:	bf00      	nop
 8007a40:	e000e010 	.word	0xe000e010
 8007a44:	e000e018 	.word	0xe000e018
 8007a48:	20000024 	.word	0x20000024
 8007a4c:	10624dd3 	.word	0x10624dd3
 8007a50:	e000e014 	.word	0xe000e014

08007a54 <vPortEnableVFP>:
/*-----------------------------------------------------------*/

/* This is a naked function. */
static void vPortEnableVFP( void )
{
	__asm volatile
 8007a54:	f8df 000c 	ldr.w	r0, [pc, #12]	; 8007a64 <vPortEnableVFP+0x10>
 8007a58:	6801      	ldr	r1, [r0, #0]
 8007a5a:	f441 0170 	orr.w	r1, r1, #15728640	; 0xf00000
 8007a5e:	6001      	str	r1, [r0, #0]
 8007a60:	4770      	bx	lr
		"								\n"
		"	orr r1, r1, #( 0xf << 20 )	\n" /* Enable CP10 and CP11 coprocessors, then save back. */
		"	str r1, [r0]				\n"
		"	bx r14						"
	);
}
 8007a62:	bf00      	nop
 8007a64:	e000ed88 	.word	0xe000ed88

08007a68 <vPortValidateInterruptPriority>:
/*-----------------------------------------------------------*/

#if( configASSERT_DEFINED == 1 )

	void vPortValidateInterruptPriority( void )
	{
 8007a68:	b480      	push	{r7}
 8007a6a:	b085      	sub	sp, #20
 8007a6c:	af00      	add	r7, sp, #0
	uint32_t ulCurrentInterrupt;
	uint8_t ucCurrentPriority;

		/* Obtain the number of the currently executing interrupt. */
		__asm volatile( "mrs %0, ipsr" : "=r"( ulCurrentInterrupt ) :: "memory" );
 8007a6e:	f3ef 8305 	mrs	r3, IPSR
 8007a72:	60fb      	str	r3, [r7, #12]

		/* Is the interrupt number a user defined interrupt? */
		if( ulCurrentInterrupt >= portFIRST_USER_INTERRUPT_NUMBER )
 8007a74:	68fb      	ldr	r3, [r7, #12]
 8007a76:	2b0f      	cmp	r3, #15
 8007a78:	d914      	bls.n	8007aa4 <vPortValidateInterruptPriority+0x3c>
		{
			/* Look up the interrupt's priority. */
			ucCurrentPriority = pcInterruptPriorityRegisters[ ulCurrentInterrupt ];
 8007a7a:	4a17      	ldr	r2, [pc, #92]	; (8007ad8 <vPortValidateInterruptPriority+0x70>)
 8007a7c:	68fb      	ldr	r3, [r7, #12]
 8007a7e:	4413      	add	r3, r2
 8007a80:	781b      	ldrb	r3, [r3, #0]
 8007a82:	72fb      	strb	r3, [r7, #11]
			interrupt entry is as fast and simple as possible.

			The following links provide detailed information:
			http://www.freertos.org/RTOS-Cortex-M3-M4.html
			http://www.freertos.org/FAQHelp.html */
			configASSERT( ucCurrentPriority >= ucMaxSysCallPriority );
 8007a84:	4b15      	ldr	r3, [pc, #84]	; (8007adc <vPortValidateInterruptPriority+0x74>)
 8007a86:	781b      	ldrb	r3, [r3, #0]
 8007a88:	7afa      	ldrb	r2, [r7, #11]
 8007a8a:	429a      	cmp	r2, r3
 8007a8c:	d20a      	bcs.n	8007aa4 <vPortValidateInterruptPriority+0x3c>
	__asm volatile
 8007a8e:	f04f 0350 	mov.w	r3, #80	; 0x50
 8007a92:	f383 8811 	msr	BASEPRI, r3
 8007a96:	f3bf 8f6f 	isb	sy
 8007a9a:	f3bf 8f4f 	dsb	sy
 8007a9e:	607b      	str	r3, [r7, #4]
}
 8007aa0:	bf00      	nop
 8007aa2:	e7fe      	b.n	8007aa2 <vPortValidateInterruptPriority+0x3a>
		configuration then the correct setting can be achieved on all Cortex-M
		devices by calling NVIC_SetPriorityGrouping( 0 ); before starting the
		scheduler.  Note however that some vendor specific peripheral libraries
		assume a non-zero priority group setting, in which cases using a value
		of zero will result in unpredictable behaviour. */
		configASSERT( ( portAIRCR_REG & portPRIORITY_GROUP_MASK ) <= ulMaxPRIGROUPValue );
 8007aa4:	4b0e      	ldr	r3, [pc, #56]	; (8007ae0 <vPortValidateInterruptPriority+0x78>)
 8007aa6:	681b      	ldr	r3, [r3, #0]
 8007aa8:	f403 62e0 	and.w	r2, r3, #1792	; 0x700
 8007aac:	4b0d      	ldr	r3, [pc, #52]	; (8007ae4 <vPortValidateInterruptPriority+0x7c>)
 8007aae:	681b      	ldr	r3, [r3, #0]
 8007ab0:	429a      	cmp	r2, r3
 8007ab2:	d90a      	bls.n	8007aca <vPortValidateInterruptPriority+0x62>
	__asm volatile
 8007ab4:	f04f 0350 	mov.w	r3, #80	; 0x50
 8007ab8:	f383 8811 	msr	BASEPRI, r3
 8007abc:	f3bf 8f6f 	isb	sy
 8007ac0:	f3bf 8f4f 	dsb	sy
 8007ac4:	603b      	str	r3, [r7, #0]
}
 8007ac6:	bf00      	nop
 8007ac8:	e7fe      	b.n	8007ac8 <vPortValidateInterruptPriority+0x60>
	}
 8007aca:	bf00      	nop
 8007acc:	3714      	adds	r7, #20
 8007ace:	46bd      	mov	sp, r7
 8007ad0:	f85d 7b04 	ldr.w	r7, [sp], #4
 8007ad4:	4770      	bx	lr
 8007ad6:	bf00      	nop
 8007ad8:	e000e3f0 	.word	0xe000e3f0
 8007adc:	200008d4 	.word	0x200008d4
 8007ae0:	e000ed0c 	.word	0xe000ed0c
 8007ae4:	200008d8 	.word	0x200008d8

08007ae8 <pvPortMalloc>:
static size_t xBlockAllocatedBit = 0;

/*-----------------------------------------------------------*/

void *pvPortMalloc( size_t xWantedSize )
{
 8007ae8:	b580      	push	{r7, lr}
 8007aea:	b08a      	sub	sp, #40	; 0x28
 8007aec:	af00      	add	r7, sp, #0
 8007aee:	6078      	str	r0, [r7, #4]
BlockLink_t *pxBlock, *pxPreviousBlock, *pxNewBlockLink;
void *pvReturn = NULL;
 8007af0:	2300      	movs	r3, #0
 8007af2:	61fb      	str	r3, [r7, #28]

	vTaskSuspendAll();
 8007af4:	f7fe fdd4 	bl	80066a0 <vTaskSuspendAll>
	{
		/* If this is the first call to malloc then the heap will require
		initialisation to setup the list of free blocks. */
		if( pxEnd == NULL )
 8007af8:	4b58      	ldr	r3, [pc, #352]	; (8007c5c <pvPortMalloc+0x174>)
 8007afa:	681b      	ldr	r3, [r3, #0]
 8007afc:	2b00      	cmp	r3, #0
 8007afe:	d101      	bne.n	8007b04 <pvPortMalloc+0x1c>
		{
			prvHeapInit();
 8007b00:	f000 f910 	bl	8007d24 <prvHeapInit>

		/* Check the requested block size is not so large that the top bit is
		set.  The top bit of the block size member of the BlockLink_t structure
		is used to determine who owns the block - the application or the
		kernel, so it must be free. */
		if( ( xWantedSize & xBlockAllocatedBit ) == 0 )
 8007b04:	4b56      	ldr	r3, [pc, #344]	; (8007c60 <pvPortMalloc+0x178>)
 8007b06:	681a      	ldr	r2, [r3, #0]
 8007b08:	687b      	ldr	r3, [r7, #4]
 8007b0a:	4013      	ands	r3, r2
 8007b0c:	2b00      	cmp	r3, #0
 8007b0e:	f040 808e 	bne.w	8007c2e <pvPortMalloc+0x146>
		{
			/* The wanted size is increased so it can contain a BlockLink_t
			structure in addition to the requested amount of bytes. */
			if( xWantedSize > 0 )
 8007b12:	687b      	ldr	r3, [r7, #4]
 8007b14:	2b00      	cmp	r3, #0
 8007b16:	d01d      	beq.n	8007b54 <pvPortMalloc+0x6c>
			{
				xWantedSize += xHeapStructSize;
 8007b18:	2208      	movs	r2, #8
 8007b1a:	687b      	ldr	r3, [r7, #4]
 8007b1c:	4413      	add	r3, r2
 8007b1e:	607b      	str	r3, [r7, #4]

				/* Ensure that blocks are always aligned to the required number
				of bytes. */
				if( ( xWantedSize & portBYTE_ALIGNMENT_MASK ) != 0x00 )
 8007b20:	687b      	ldr	r3, [r7, #4]
 8007b22:	f003 0307 	and.w	r3, r3, #7
 8007b26:	2b00      	cmp	r3, #0
 8007b28:	d014      	beq.n	8007b54 <pvPortMalloc+0x6c>
				{
					/* Byte alignment required. */
					xWantedSize += ( portBYTE_ALIGNMENT - ( xWantedSize & portBYTE_ALIGNMENT_MASK ) );
 8007b2a:	687b      	ldr	r3, [r7, #4]
 8007b2c:	f023 0307 	bic.w	r3, r3, #7
 8007b30:	3308      	adds	r3, #8
 8007b32:	607b      	str	r3, [r7, #4]
					configASSERT( ( xWantedSize & portBYTE_ALIGNMENT_MASK ) == 0 );
 8007b34:	687b      	ldr	r3, [r7, #4]
 8007b36:	f003 0307 	and.w	r3, r3, #7
 8007b3a:	2b00      	cmp	r3, #0
 8007b3c:	d00a      	beq.n	8007b54 <pvPortMalloc+0x6c>
	__asm volatile
 8007b3e:	f04f 0350 	mov.w	r3, #80	; 0x50
 8007b42:	f383 8811 	msr	BASEPRI, r3
 8007b46:	f3bf 8f6f 	isb	sy
 8007b4a:	f3bf 8f4f 	dsb	sy
 8007b4e:	617b      	str	r3, [r7, #20]
}
 8007b50:	bf00      	nop
 8007b52:	e7fe      	b.n	8007b52 <pvPortMalloc+0x6a>
			else
			{
				mtCOVERAGE_TEST_MARKER();
			}

			if( ( xWantedSize > 0 ) && ( xWantedSize <= xFreeBytesRemaining ) )
 8007b54:	687b      	ldr	r3, [r7, #4]
 8007b56:	2b00      	cmp	r3, #0
 8007b58:	d069      	beq.n	8007c2e <pvPortMalloc+0x146>
 8007b5a:	4b42      	ldr	r3, [pc, #264]	; (8007c64 <pvPortMalloc+0x17c>)
 8007b5c:	681b      	ldr	r3, [r3, #0]
 8007b5e:	687a      	ldr	r2, [r7, #4]
 8007b60:	429a      	cmp	r2, r3
 8007b62:	d864      	bhi.n	8007c2e <pvPortMalloc+0x146>
			{
				/* Traverse the list from the start	(lowest address) block until
				one	of adequate size is found. */
				pxPreviousBlock = &xStart;
 8007b64:	4b40      	ldr	r3, [pc, #256]	; (8007c68 <pvPortMalloc+0x180>)
 8007b66:	623b      	str	r3, [r7, #32]
				pxBlock = xStart.pxNextFreeBlock;
 8007b68:	4b3f      	ldr	r3, [pc, #252]	; (8007c68 <pvPortMalloc+0x180>)
 8007b6a:	681b      	ldr	r3, [r3, #0]
 8007b6c:	627b      	str	r3, [r7, #36]	; 0x24
				while( ( pxBlock->xBlockSize < xWantedSize ) && ( pxBlock->pxNextFreeBlock != NULL ) )
 8007b6e:	e004      	b.n	8007b7a <pvPortMalloc+0x92>
				{
					pxPreviousBlock = pxBlock;
 8007b70:	6a7b      	ldr	r3, [r7, #36]	; 0x24
 8007b72:	623b      	str	r3, [r7, #32]
					pxBlock = pxBlock->pxNextFreeBlock;
 8007b74:	6a7b      	ldr	r3, [r7, #36]	; 0x24
 8007b76:	681b      	ldr	r3, [r3, #0]
 8007b78:	627b      	str	r3, [r7, #36]	; 0x24
				while( ( pxBlock->xBlockSize < xWantedSize ) && ( pxBlock->pxNextFreeBlock != NULL ) )
 8007b7a:	6a7b      	ldr	r3, [r7, #36]	; 0x24
 8007b7c:	685b      	ldr	r3, [r3, #4]
 8007b7e:	687a      	ldr	r2, [r7, #4]
 8007b80:	429a      	cmp	r2, r3
 8007b82:	d903      	bls.n	8007b8c <pvPortMalloc+0xa4>
 8007b84:	6a7b      	ldr	r3, [r7, #36]	; 0x24
 8007b86:	681b      	ldr	r3, [r3, #0]
 8007b88:	2b00      	cmp	r3, #0
 8007b8a:	d1f1      	bne.n	8007b70 <pvPortMalloc+0x88>
				}

				/* If the end marker was reached then a block of adequate size
				was	not found. */
				if( pxBlock != pxEnd )
 8007b8c:	4b33      	ldr	r3, [pc, #204]	; (8007c5c <pvPortMalloc+0x174>)
 8007b8e:	681b      	ldr	r3, [r3, #0]
 8007b90:	6a7a      	ldr	r2, [r7, #36]	; 0x24
 8007b92:	429a      	cmp	r2, r3
 8007b94:	d04b      	beq.n	8007c2e <pvPortMalloc+0x146>
				{
					/* Return the memory space pointed to - jumping over the
					BlockLink_t structure at its start. */
					pvReturn = ( void * ) ( ( ( uint8_t * ) pxPreviousBlock->pxNextFreeBlock ) + xHeapStructSize );
 8007b96:	6a3b      	ldr	r3, [r7, #32]
 8007b98:	681b      	ldr	r3, [r3, #0]
 8007b9a:	2208      	movs	r2, #8
 8007b9c:	4413      	add	r3, r2
 8007b9e:	61fb      	str	r3, [r7, #28]

					/* This block is being returned for use so must be taken out
					of the list of free blocks. */
					pxPreviousBlock->pxNextFreeBlock = pxBlock->pxNextFreeBlock;
 8007ba0:	6a7b      	ldr	r3, [r7, #36]	; 0x24
 8007ba2:	681a      	ldr	r2, [r3, #0]
 8007ba4:	6a3b      	ldr	r3, [r7, #32]
 8007ba6:	601a      	str	r2, [r3, #0]

					/* If the block is larger than required it can be split into
					two. */
					if( ( pxBlock->xBlockSize - xWantedSize ) > heapMINIMUM_BLOCK_SIZE )
 8007ba8:	6a7b      	ldr	r3, [r7, #36]	; 0x24
 8007baa:	685a      	ldr	r2, [r3, #4]
 8007bac:	687b      	ldr	r3, [r7, #4]
 8007bae:	1ad2      	subs	r2, r2, r3
 8007bb0:	2308      	movs	r3, #8
 8007bb2:	005b      	lsls	r3, r3, #1
 8007bb4:	429a      	cmp	r2, r3
 8007bb6:	d91f      	bls.n	8007bf8 <pvPortMalloc+0x110>
					{
						/* This block is to be split into two.  Create a new
						block following the number of bytes requested. The void
						cast is used to prevent byte alignment warnings from the
						compiler. */
						pxNewBlockLink = ( void * ) ( ( ( uint8_t * ) pxBlock ) + xWantedSize );
 8007bb8:	6a7a      	ldr	r2, [r7, #36]	; 0x24
 8007bba:	687b      	ldr	r3, [r7, #4]
 8007bbc:	4413      	add	r3, r2
 8007bbe:	61bb      	str	r3, [r7, #24]
						configASSERT( ( ( ( size_t ) pxNewBlockLink ) & portBYTE_ALIGNMENT_MASK ) == 0 );
 8007bc0:	69bb      	ldr	r3, [r7, #24]
 8007bc2:	f003 0307 	and.w	r3, r3, #7
 8007bc6:	2b00      	cmp	r3, #0
 8007bc8:	d00a      	beq.n	8007be0 <pvPortMalloc+0xf8>
	__asm volatile
 8007bca:	f04f 0350 	mov.w	r3, #80	; 0x50
 8007bce:	f383 8811 	msr	BASEPRI, r3
 8007bd2:	f3bf 8f6f 	isb	sy
 8007bd6:	f3bf 8f4f 	dsb	sy
 8007bda:	613b      	str	r3, [r7, #16]
}
 8007bdc:	bf00      	nop
 8007bde:	e7fe      	b.n	8007bde <pvPortMalloc+0xf6>

						/* Calculate the sizes of two blocks split from the
						single block. */
						pxNewBlockLink->xBlockSize = pxBlock->xBlockSize - xWantedSize;
 8007be0:	6a7b      	ldr	r3, [r7, #36]	; 0x24
 8007be2:	685a      	ldr	r2, [r3, #4]
 8007be4:	687b      	ldr	r3, [r7, #4]
 8007be6:	1ad2      	subs	r2, r2, r3
 8007be8:	69bb      	ldr	r3, [r7, #24]
 8007bea:	605a      	str	r2, [r3, #4]
						pxBlock->xBlockSize = xWantedSize;
 8007bec:	6a7b      	ldr	r3, [r7, #36]	; 0x24
 8007bee:	687a      	ldr	r2, [r7, #4]
 8007bf0:	605a      	str	r2, [r3, #4]

						/* Insert the new block into the list of free blocks. */
						prvInsertBlockIntoFreeList( pxNewBlockLink );
 8007bf2:	69b8      	ldr	r0, [r7, #24]
 8007bf4:	f000 f8f8 	bl	8007de8 <prvInsertBlockIntoFreeList>
					else
					{
						mtCOVERAGE_TEST_MARKER();
					}

					xFreeBytesRemaining -= pxBlock->xBlockSize;
 8007bf8:	4b1a      	ldr	r3, [pc, #104]	; (8007c64 <pvPortMalloc+0x17c>)
 8007bfa:	681a      	ldr	r2, [r3, #0]
 8007bfc:	6a7b      	ldr	r3, [r7, #36]	; 0x24
 8007bfe:	685b      	ldr	r3, [r3, #4]
 8007c00:	1ad3      	subs	r3, r2, r3
 8007c02:	4a18      	ldr	r2, [pc, #96]	; (8007c64 <pvPortMalloc+0x17c>)
 8007c04:	6013      	str	r3, [r2, #0]

					if( xFreeBytesRemaining < xMinimumEverFreeBytesRemaining )
 8007c06:	4b17      	ldr	r3, [pc, #92]	; (8007c64 <pvPortMalloc+0x17c>)
 8007c08:	681a      	ldr	r2, [r3, #0]
 8007c0a:	4b18      	ldr	r3, [pc, #96]	; (8007c6c <pvPortMalloc+0x184>)
 8007c0c:	681b      	ldr	r3, [r3, #0]
 8007c0e:	429a      	cmp	r2, r3
 8007c10:	d203      	bcs.n	8007c1a <pvPortMalloc+0x132>
					{
						xMinimumEverFreeBytesRemaining = xFreeBytesRemaining;
 8007c12:	4b14      	ldr	r3, [pc, #80]	; (8007c64 <pvPortMalloc+0x17c>)
 8007c14:	681b      	ldr	r3, [r3, #0]
 8007c16:	4a15      	ldr	r2, [pc, #84]	; (8007c6c <pvPortMalloc+0x184>)
 8007c18:	6013      	str	r3, [r2, #0]
						mtCOVERAGE_TEST_MARKER();
					}

					/* The block is being returned - it is allocated and owned
					by the application and has no "next" block. */
					pxBlock->xBlockSize |= xBlockAllocatedBit;
 8007c1a:	6a7b      	ldr	r3, [r7, #36]	; 0x24
 8007c1c:	685a      	ldr	r2, [r3, #4]
 8007c1e:	4b10      	ldr	r3, [pc, #64]	; (8007c60 <pvPortMalloc+0x178>)
 8007c20:	681b      	ldr	r3, [r3, #0]
 8007c22:	431a      	orrs	r2, r3
 8007c24:	6a7b      	ldr	r3, [r7, #36]	; 0x24
 8007c26:	605a      	str	r2, [r3, #4]
					pxBlock->pxNextFreeBlock = NULL;
 8007c28:	6a7b      	ldr	r3, [r7, #36]	; 0x24
 8007c2a:	2200      	movs	r2, #0
 8007c2c:	601a      	str	r2, [r3, #0]
			mtCOVERAGE_TEST_MARKER();
		}

		traceMALLOC( pvReturn, xWantedSize );
	}
	( void ) xTaskResumeAll();
 8007c2e:	f7fe fd45 	bl	80066bc <xTaskResumeAll>
			mtCOVERAGE_TEST_MARKER();
		}
	}
	#endif

	configASSERT( ( ( ( size_t ) pvReturn ) & ( size_t ) portBYTE_ALIGNMENT_MASK ) == 0 );
 8007c32:	69fb      	ldr	r3, [r7, #28]
 8007c34:	f003 0307 	and.w	r3, r3, #7
 8007c38:	2b00      	cmp	r3, #0
 8007c3a:	d00a      	beq.n	8007c52 <pvPortMalloc+0x16a>
	__asm volatile
 8007c3c:	f04f 0350 	mov.w	r3, #80	; 0x50
 8007c40:	f383 8811 	msr	BASEPRI, r3
 8007c44:	f3bf 8f6f 	isb	sy
 8007c48:	f3bf 8f4f 	dsb	sy
 8007c4c:	60fb      	str	r3, [r7, #12]
}
 8007c4e:	bf00      	nop
 8007c50:	e7fe      	b.n	8007c50 <pvPortMalloc+0x168>
	return pvReturn;
 8007c52:	69fb      	ldr	r3, [r7, #28]
}
 8007c54:	4618      	mov	r0, r3
 8007c56:	3728      	adds	r7, #40	; 0x28
 8007c58:	46bd      	mov	sp, r7
 8007c5a:	bd80      	pop	{r7, pc}
 8007c5c:	200134e4 	.word	0x200134e4
 8007c60:	200134f0 	.word	0x200134f0
 8007c64:	200134e8 	.word	0x200134e8
 8007c68:	200134dc 	.word	0x200134dc
 8007c6c:	200134ec 	.word	0x200134ec

08007c70 <vPortFree>:
/*-----------------------------------------------------------*/

void vPortFree( void *pv )
{
 8007c70:	b580      	push	{r7, lr}
 8007c72:	b086      	sub	sp, #24
 8007c74:	af00      	add	r7, sp, #0
 8007c76:	6078      	str	r0, [r7, #4]
uint8_t *puc = ( uint8_t * ) pv;
 8007c78:	687b      	ldr	r3, [r7, #4]
 8007c7a:	617b      	str	r3, [r7, #20]
BlockLink_t *pxLink;

	if( pv != NULL )
 8007c7c:	687b      	ldr	r3, [r7, #4]
 8007c7e:	2b00      	cmp	r3, #0
 8007c80:	d048      	beq.n	8007d14 <vPortFree+0xa4>
	{
		/* The memory being freed will have an BlockLink_t structure immediately
		before it. */
		puc -= xHeapStructSize;
 8007c82:	2308      	movs	r3, #8
 8007c84:	425b      	negs	r3, r3
 8007c86:	697a      	ldr	r2, [r7, #20]
 8007c88:	4413      	add	r3, r2
 8007c8a:	617b      	str	r3, [r7, #20]

		/* This casting is to keep the compiler from issuing warnings. */
		pxLink = ( void * ) puc;
 8007c8c:	697b      	ldr	r3, [r7, #20]
 8007c8e:	613b      	str	r3, [r7, #16]

		/* Check the block is actually allocated. */
		configASSERT( ( pxLink->xBlockSize & xBlockAllocatedBit ) != 0 );
 8007c90:	693b      	ldr	r3, [r7, #16]
 8007c92:	685a      	ldr	r2, [r3, #4]
 8007c94:	4b21      	ldr	r3, [pc, #132]	; (8007d1c <vPortFree+0xac>)
 8007c96:	681b      	ldr	r3, [r3, #0]
 8007c98:	4013      	ands	r3, r2
 8007c9a:	2b00      	cmp	r3, #0
 8007c9c:	d10a      	bne.n	8007cb4 <vPortFree+0x44>
	__asm volatile
 8007c9e:	f04f 0350 	mov.w	r3, #80	; 0x50
 8007ca2:	f383 8811 	msr	BASEPRI, r3
 8007ca6:	f3bf 8f6f 	isb	sy
 8007caa:	f3bf 8f4f 	dsb	sy
 8007cae:	60fb      	str	r3, [r7, #12]
}
 8007cb0:	bf00      	nop
 8007cb2:	e7fe      	b.n	8007cb2 <vPortFree+0x42>
		configASSERT( pxLink->pxNextFreeBlock == NULL );
 8007cb4:	693b      	ldr	r3, [r7, #16]
 8007cb6:	681b      	ldr	r3, [r3, #0]
 8007cb8:	2b00      	cmp	r3, #0
 8007cba:	d00a      	beq.n	8007cd2 <vPortFree+0x62>
	__asm volatile
 8007cbc:	f04f 0350 	mov.w	r3, #80	; 0x50
 8007cc0:	f383 8811 	msr	BASEPRI, r3
 8007cc4:	f3bf 8f6f 	isb	sy
 8007cc8:	f3bf 8f4f 	dsb	sy
 8007ccc:	60bb      	str	r3, [r7, #8]
}
 8007cce:	bf00      	nop
 8007cd0:	e7fe      	b.n	8007cd0 <vPortFree+0x60>

		if( ( pxLink->xBlockSize & xBlockAllocatedBit ) != 0 )
 8007cd2:	693b      	ldr	r3, [r7, #16]
 8007cd4:	685a      	ldr	r2, [r3, #4]
 8007cd6:	4b11      	ldr	r3, [pc, #68]	; (8007d1c <vPortFree+0xac>)
 8007cd8:	681b      	ldr	r3, [r3, #0]
 8007cda:	4013      	ands	r3, r2
 8007cdc:	2b00      	cmp	r3, #0
 8007cde:	d019      	beq.n	8007d14 <vPortFree+0xa4>
		{
			if( pxLink->pxNextFreeBlock == NULL )
 8007ce0:	693b      	ldr	r3, [r7, #16]
 8007ce2:	681b      	ldr	r3, [r3, #0]
 8007ce4:	2b00      	cmp	r3, #0
 8007ce6:	d115      	bne.n	8007d14 <vPortFree+0xa4>
			{
				/* The block is being returned to the heap - it is no longer
				allocated. */
				pxLink->xBlockSize &= ~xBlockAllocatedBit;
 8007ce8:	693b      	ldr	r3, [r7, #16]
 8007cea:	685a      	ldr	r2, [r3, #4]
 8007cec:	4b0b      	ldr	r3, [pc, #44]	; (8007d1c <vPortFree+0xac>)
 8007cee:	681b      	ldr	r3, [r3, #0]
 8007cf0:	43db      	mvns	r3, r3
 8007cf2:	401a      	ands	r2, r3
 8007cf4:	693b      	ldr	r3, [r7, #16]
 8007cf6:	605a      	str	r2, [r3, #4]

				vTaskSuspendAll();
 8007cf8:	f7fe fcd2 	bl	80066a0 <vTaskSuspendAll>
				{
					/* Add this block to the list of free blocks. */
					xFreeBytesRemaining += pxLink->xBlockSize;
 8007cfc:	693b      	ldr	r3, [r7, #16]
 8007cfe:	685a      	ldr	r2, [r3, #4]
 8007d00:	4b07      	ldr	r3, [pc, #28]	; (8007d20 <vPortFree+0xb0>)
 8007d02:	681b      	ldr	r3, [r3, #0]
 8007d04:	4413      	add	r3, r2
 8007d06:	4a06      	ldr	r2, [pc, #24]	; (8007d20 <vPortFree+0xb0>)
 8007d08:	6013      	str	r3, [r2, #0]
					traceFREE( pv, pxLink->xBlockSize );
					prvInsertBlockIntoFreeList( ( ( BlockLink_t * ) pxLink ) );
 8007d0a:	6938      	ldr	r0, [r7, #16]
 8007d0c:	f000 f86c 	bl	8007de8 <prvInsertBlockIntoFreeList>
				}
				( void ) xTaskResumeAll();
 8007d10:	f7fe fcd4 	bl	80066bc <xTaskResumeAll>
		else
		{
			mtCOVERAGE_TEST_MARKER();
		}
	}
}
 8007d14:	bf00      	nop
 8007d16:	3718      	adds	r7, #24
 8007d18:	46bd      	mov	sp, r7
 8007d1a:	bd80      	pop	{r7, pc}
 8007d1c:	200134f0 	.word	0x200134f0
 8007d20:	200134e8 	.word	0x200134e8

08007d24 <prvHeapInit>:
	/* This just exists to keep the linker quiet. */
}
/*-----------------------------------------------------------*/

static void prvHeapInit( void )
{
 8007d24:	b480      	push	{r7}
 8007d26:	b085      	sub	sp, #20
 8007d28:	af00      	add	r7, sp, #0
BlockLink_t *pxFirstFreeBlock;
uint8_t *pucAlignedHeap;
size_t uxAddress;
size_t xTotalHeapSize = configTOTAL_HEAP_SIZE;
 8007d2a:	f44f 3396 	mov.w	r3, #76800	; 0x12c00
 8007d2e:	60bb      	str	r3, [r7, #8]

	/* Ensure the heap starts on a correctly aligned boundary. */
	uxAddress = ( size_t ) ucHeap;
 8007d30:	4b27      	ldr	r3, [pc, #156]	; (8007dd0 <prvHeapInit+0xac>)
 8007d32:	60fb      	str	r3, [r7, #12]

	if( ( uxAddress & portBYTE_ALIGNMENT_MASK ) != 0 )
 8007d34:	68fb      	ldr	r3, [r7, #12]
 8007d36:	f003 0307 	and.w	r3, r3, #7
 8007d3a:	2b00      	cmp	r3, #0
 8007d3c:	d00c      	beq.n	8007d58 <prvHeapInit+0x34>
	{
		uxAddress += ( portBYTE_ALIGNMENT - 1 );
 8007d3e:	68fb      	ldr	r3, [r7, #12]
 8007d40:	3307      	adds	r3, #7
 8007d42:	60fb      	str	r3, [r7, #12]
		uxAddress &= ~( ( size_t ) portBYTE_ALIGNMENT_MASK );
 8007d44:	68fb      	ldr	r3, [r7, #12]
 8007d46:	f023 0307 	bic.w	r3, r3, #7
 8007d4a:	60fb      	str	r3, [r7, #12]
		xTotalHeapSize -= uxAddress - ( size_t ) ucHeap;
 8007d4c:	68ba      	ldr	r2, [r7, #8]
 8007d4e:	68fb      	ldr	r3, [r7, #12]
 8007d50:	1ad3      	subs	r3, r2, r3
 8007d52:	4a1f      	ldr	r2, [pc, #124]	; (8007dd0 <prvHeapInit+0xac>)
 8007d54:	4413      	add	r3, r2
 8007d56:	60bb      	str	r3, [r7, #8]
	}

	pucAlignedHeap = ( uint8_t * ) uxAddress;
 8007d58:	68fb      	ldr	r3, [r7, #12]
 8007d5a:	607b      	str	r3, [r7, #4]

	/* xStart is used to hold a pointer to the first item in the list of free
	blocks.  The void cast is used to prevent compiler warnings. */
	xStart.pxNextFreeBlock = ( void * ) pucAlignedHeap;
 8007d5c:	4a1d      	ldr	r2, [pc, #116]	; (8007dd4 <prvHeapInit+0xb0>)
 8007d5e:	687b      	ldr	r3, [r7, #4]
 8007d60:	6013      	str	r3, [r2, #0]
	xStart.xBlockSize = ( size_t ) 0;
 8007d62:	4b1c      	ldr	r3, [pc, #112]	; (8007dd4 <prvHeapInit+0xb0>)
 8007d64:	2200      	movs	r2, #0
 8007d66:	605a      	str	r2, [r3, #4]

	/* pxEnd is used to mark the end of the list of free blocks and is inserted
	at the end of the heap space. */
	uxAddress = ( ( size_t ) pucAlignedHeap ) + xTotalHeapSize;
 8007d68:	687b      	ldr	r3, [r7, #4]
 8007d6a:	68ba      	ldr	r2, [r7, #8]
 8007d6c:	4413      	add	r3, r2
 8007d6e:	60fb      	str	r3, [r7, #12]
	uxAddress -= xHeapStructSize;
 8007d70:	2208      	movs	r2, #8
 8007d72:	68fb      	ldr	r3, [r7, #12]
 8007d74:	1a9b      	subs	r3, r3, r2
 8007d76:	60fb      	str	r3, [r7, #12]
	uxAddress &= ~( ( size_t ) portBYTE_ALIGNMENT_MASK );
 8007d78:	68fb      	ldr	r3, [r7, #12]
 8007d7a:	f023 0307 	bic.w	r3, r3, #7
 8007d7e:	60fb      	str	r3, [r7, #12]
	pxEnd = ( void * ) uxAddress;
 8007d80:	68fb      	ldr	r3, [r7, #12]
 8007d82:	4a15      	ldr	r2, [pc, #84]	; (8007dd8 <prvHeapInit+0xb4>)
 8007d84:	6013      	str	r3, [r2, #0]
	pxEnd->xBlockSize = 0;
 8007d86:	4b14      	ldr	r3, [pc, #80]	; (8007dd8 <prvHeapInit+0xb4>)
 8007d88:	681b      	ldr	r3, [r3, #0]
 8007d8a:	2200      	movs	r2, #0
 8007d8c:	605a      	str	r2, [r3, #4]
	pxEnd->pxNextFreeBlock = NULL;
 8007d8e:	4b12      	ldr	r3, [pc, #72]	; (8007dd8 <prvHeapInit+0xb4>)
 8007d90:	681b      	ldr	r3, [r3, #0]
 8007d92:	2200      	movs	r2, #0
 8007d94:	601a      	str	r2, [r3, #0]

	/* To start with there is a single free block that is sized to take up the
	entire heap space, minus the space taken by pxEnd. */
	pxFirstFreeBlock = ( void * ) pucAlignedHeap;
 8007d96:	687b      	ldr	r3, [r7, #4]
 8007d98:	603b      	str	r3, [r7, #0]
	pxFirstFreeBlock->xBlockSize = uxAddress - ( size_t ) pxFirstFreeBlock;
 8007d9a:	683b      	ldr	r3, [r7, #0]
 8007d9c:	68fa      	ldr	r2, [r7, #12]
 8007d9e:	1ad2      	subs	r2, r2, r3
 8007da0:	683b      	ldr	r3, [r7, #0]
 8007da2:	605a      	str	r2, [r3, #4]
	pxFirstFreeBlock->pxNextFreeBlock = pxEnd;
 8007da4:	4b0c      	ldr	r3, [pc, #48]	; (8007dd8 <prvHeapInit+0xb4>)
 8007da6:	681a      	ldr	r2, [r3, #0]
 8007da8:	683b      	ldr	r3, [r7, #0]
 8007daa:	601a      	str	r2, [r3, #0]

	/* Only one block exists - and it covers the entire usable heap space. */
	xMinimumEverFreeBytesRemaining = pxFirstFreeBlock->xBlockSize;
 8007dac:	683b      	ldr	r3, [r7, #0]
 8007dae:	685b      	ldr	r3, [r3, #4]
 8007db0:	4a0a      	ldr	r2, [pc, #40]	; (8007ddc <prvHeapInit+0xb8>)
 8007db2:	6013      	str	r3, [r2, #0]
	xFreeBytesRemaining = pxFirstFreeBlock->xBlockSize;
 8007db4:	683b      	ldr	r3, [r7, #0]
 8007db6:	685b      	ldr	r3, [r3, #4]
 8007db8:	4a09      	ldr	r2, [pc, #36]	; (8007de0 <prvHeapInit+0xbc>)
 8007dba:	6013      	str	r3, [r2, #0]

	/* Work out the position of the top bit in a size_t variable. */
	xBlockAllocatedBit = ( ( size_t ) 1 ) << ( ( sizeof( size_t ) * heapBITS_PER_BYTE ) - 1 );
 8007dbc:	4b09      	ldr	r3, [pc, #36]	; (8007de4 <prvHeapInit+0xc0>)
 8007dbe:	f04f 4200 	mov.w	r2, #2147483648	; 0x80000000
 8007dc2:	601a      	str	r2, [r3, #0]
}
 8007dc4:	bf00      	nop
 8007dc6:	3714      	adds	r7, #20
 8007dc8:	46bd      	mov	sp, r7
 8007dca:	f85d 7b04 	ldr.w	r7, [sp], #4
 8007dce:	4770      	bx	lr
 8007dd0:	200008dc 	.word	0x200008dc
 8007dd4:	200134dc 	.word	0x200134dc
 8007dd8:	200134e4 	.word	0x200134e4
 8007ddc:	200134ec 	.word	0x200134ec
 8007de0:	200134e8 	.word	0x200134e8
 8007de4:	200134f0 	.word	0x200134f0

08007de8 <prvInsertBlockIntoFreeList>:
/*-----------------------------------------------------------*/

static void prvInsertBlockIntoFreeList( BlockLink_t *pxBlockToInsert )
{
 8007de8:	b480      	push	{r7}
 8007dea:	b085      	sub	sp, #20
 8007dec:	af00      	add	r7, sp, #0
 8007dee:	6078      	str	r0, [r7, #4]
BlockLink_t *pxIterator;
uint8_t *puc;

	/* Iterate through the list until a block is found that has a higher address
	than the block being inserted. */
	for( pxIterator = &xStart; pxIterator->pxNextFreeBlock < pxBlockToInsert; pxIterator = pxIterator->pxNextFreeBlock )
 8007df0:	4b28      	ldr	r3, [pc, #160]	; (8007e94 <prvInsertBlockIntoFreeList+0xac>)
 8007df2:	60fb      	str	r3, [r7, #12]
 8007df4:	e002      	b.n	8007dfc <prvInsertBlockIntoFreeList+0x14>
 8007df6:	68fb      	ldr	r3, [r7, #12]
 8007df8:	681b      	ldr	r3, [r3, #0]
 8007dfa:	60fb      	str	r3, [r7, #12]
 8007dfc:	68fb      	ldr	r3, [r7, #12]
 8007dfe:	681b      	ldr	r3, [r3, #0]
 8007e00:	687a      	ldr	r2, [r7, #4]
 8007e02:	429a      	cmp	r2, r3
 8007e04:	d8f7      	bhi.n	8007df6 <prvInsertBlockIntoFreeList+0xe>
		/* Nothing to do here, just iterate to the right position. */
	}

	/* Do the block being inserted, and the block it is being inserted after
	make a contiguous block of memory? */
	puc = ( uint8_t * ) pxIterator;
 8007e06:	68fb      	ldr	r3, [r7, #12]
 8007e08:	60bb      	str	r3, [r7, #8]
	if( ( puc + pxIterator->xBlockSize ) == ( uint8_t * ) pxBlockToInsert )
 8007e0a:	68fb      	ldr	r3, [r7, #12]
 8007e0c:	685b      	ldr	r3, [r3, #4]
 8007e0e:	68ba      	ldr	r2, [r7, #8]
 8007e10:	4413      	add	r3, r2
 8007e12:	687a      	ldr	r2, [r7, #4]
 8007e14:	429a      	cmp	r2, r3
 8007e16:	d108      	bne.n	8007e2a <prvInsertBlockIntoFreeList+0x42>
	{
		pxIterator->xBlockSize += pxBlockToInsert->xBlockSize;
 8007e18:	68fb      	ldr	r3, [r7, #12]
 8007e1a:	685a      	ldr	r2, [r3, #4]
 8007e1c:	687b      	ldr	r3, [r7, #4]
 8007e1e:	685b      	ldr	r3, [r3, #4]
 8007e20:	441a      	add	r2, r3
 8007e22:	68fb      	ldr	r3, [r7, #12]
 8007e24:	605a      	str	r2, [r3, #4]
		pxBlockToInsert = pxIterator;
 8007e26:	68fb      	ldr	r3, [r7, #12]
 8007e28:	607b      	str	r3, [r7, #4]
		mtCOVERAGE_TEST_MARKER();
	}

	/* Do the block being inserted, and the block it is being inserted before
	make a contiguous block of memory? */
	puc = ( uint8_t * ) pxBlockToInsert;
 8007e2a:	687b      	ldr	r3, [r7, #4]
 8007e2c:	60bb      	str	r3, [r7, #8]
	if( ( puc + pxBlockToInsert->xBlockSize ) == ( uint8_t * ) pxIterator->pxNextFreeBlock )
 8007e2e:	687b      	ldr	r3, [r7, #4]
 8007e30:	685b      	ldr	r3, [r3, #4]
 8007e32:	68ba      	ldr	r2, [r7, #8]
 8007e34:	441a      	add	r2, r3
 8007e36:	68fb      	ldr	r3, [r7, #12]
 8007e38:	681b      	ldr	r3, [r3, #0]
 8007e3a:	429a      	cmp	r2, r3
 8007e3c:	d118      	bne.n	8007e70 <prvInsertBlockIntoFreeList+0x88>
	{
		if( pxIterator->pxNextFreeBlock != pxEnd )
 8007e3e:	68fb      	ldr	r3, [r7, #12]
 8007e40:	681a      	ldr	r2, [r3, #0]
 8007e42:	4b15      	ldr	r3, [pc, #84]	; (8007e98 <prvInsertBlockIntoFreeList+0xb0>)
 8007e44:	681b      	ldr	r3, [r3, #0]
 8007e46:	429a      	cmp	r2, r3
 8007e48:	d00d      	beq.n	8007e66 <prvInsertBlockIntoFreeList+0x7e>
		{
			/* Form one big block from the two blocks. */
			pxBlockToInsert->xBlockSize += pxIterator->pxNextFreeBlock->xBlockSize;
 8007e4a:	687b      	ldr	r3, [r7, #4]
 8007e4c:	685a      	ldr	r2, [r3, #4]
 8007e4e:	68fb      	ldr	r3, [r7, #12]
 8007e50:	681b      	ldr	r3, [r3, #0]
 8007e52:	685b      	ldr	r3, [r3, #4]
 8007e54:	441a      	add	r2, r3
 8007e56:	687b      	ldr	r3, [r7, #4]
 8007e58:	605a      	str	r2, [r3, #4]
			pxBlockToInsert->pxNextFreeBlock = pxIterator->pxNextFreeBlock->pxNextFreeBlock;
 8007e5a:	68fb      	ldr	r3, [r7, #12]
 8007e5c:	681b      	ldr	r3, [r3, #0]
 8007e5e:	681a      	ldr	r2, [r3, #0]
 8007e60:	687b      	ldr	r3, [r7, #4]
 8007e62:	601a      	str	r2, [r3, #0]
 8007e64:	e008      	b.n	8007e78 <prvInsertBlockIntoFreeList+0x90>
		}
		else
		{
			pxBlockToInsert->pxNextFreeBlock = pxEnd;
 8007e66:	4b0c      	ldr	r3, [pc, #48]	; (8007e98 <prvInsertBlockIntoFreeList+0xb0>)
 8007e68:	681a      	ldr	r2, [r3, #0]
 8007e6a:	687b      	ldr	r3, [r7, #4]
 8007e6c:	601a      	str	r2, [r3, #0]
 8007e6e:	e003      	b.n	8007e78 <prvInsertBlockIntoFreeList+0x90>
		}
	}
	else
	{
		pxBlockToInsert->pxNextFreeBlock = pxIterator->pxNextFreeBlock;
 8007e70:	68fb      	ldr	r3, [r7, #12]
 8007e72:	681a      	ldr	r2, [r3, #0]
 8007e74:	687b      	ldr	r3, [r7, #4]
 8007e76:	601a      	str	r2, [r3, #0]

	/* If the block being inserted plugged a gab, so was merged with the block
	before and the block after, then it's pxNextFreeBlock pointer will have
	already been set, and should not be set here as that would make it point
	to itself. */
	if( pxIterator != pxBlockToInsert )
 8007e78:	68fa      	ldr	r2, [r7, #12]
 8007e7a:	687b      	ldr	r3, [r7, #4]
 8007e7c:	429a      	cmp	r2, r3
 8007e7e:	d002      	beq.n	8007e86 <prvInsertBlockIntoFreeList+0x9e>
	{
		pxIterator->pxNextFreeBlock = pxBlockToInsert;
 8007e80:	68fb      	ldr	r3, [r7, #12]
 8007e82:	687a      	ldr	r2, [r7, #4]
 8007e84:	601a      	str	r2, [r3, #0]
	}
	else
	{
		mtCOVERAGE_TEST_MARKER();
	}
}
 8007e86:	bf00      	nop
 8007e88:	3714      	adds	r7, #20
 8007e8a:	46bd      	mov	sp, r7
 8007e8c:	f85d 7b04 	ldr.w	r7, [sp], #4
 8007e90:	4770      	bx	lr
 8007e92:	bf00      	nop
 8007e94:	200134dc 	.word	0x200134dc
 8007e98:	200134e4 	.word	0x200134e4

08007e9c <__errno>:
 8007e9c:	4b01      	ldr	r3, [pc, #4]	; (8007ea4 <__errno+0x8>)
 8007e9e:	6818      	ldr	r0, [r3, #0]
 8007ea0:	4770      	bx	lr
 8007ea2:	bf00      	nop
 8007ea4:	2000004c 	.word	0x2000004c

08007ea8 <__libc_init_array>:
 8007ea8:	b570      	push	{r4, r5, r6, lr}
 8007eaa:	4d0d      	ldr	r5, [pc, #52]	; (8007ee0 <__libc_init_array+0x38>)
 8007eac:	4c0d      	ldr	r4, [pc, #52]	; (8007ee4 <__libc_init_array+0x3c>)
 8007eae:	1b64      	subs	r4, r4, r5
 8007eb0:	10a4      	asrs	r4, r4, #2
 8007eb2:	2600      	movs	r6, #0
 8007eb4:	42a6      	cmp	r6, r4
 8007eb6:	d109      	bne.n	8007ecc <__libc_init_array+0x24>
 8007eb8:	4d0b      	ldr	r5, [pc, #44]	; (8007ee8 <__libc_init_array+0x40>)
 8007eba:	4c0c      	ldr	r4, [pc, #48]	; (8007eec <__libc_init_array+0x44>)
 8007ebc:	f000 fc8e 	bl	80087dc <_init>
 8007ec0:	1b64      	subs	r4, r4, r5
 8007ec2:	10a4      	asrs	r4, r4, #2
 8007ec4:	2600      	movs	r6, #0
 8007ec6:	42a6      	cmp	r6, r4
 8007ec8:	d105      	bne.n	8007ed6 <__libc_init_array+0x2e>
 8007eca:	bd70      	pop	{r4, r5, r6, pc}
 8007ecc:	f855 3b04 	ldr.w	r3, [r5], #4
 8007ed0:	4798      	blx	r3
 8007ed2:	3601      	adds	r6, #1
 8007ed4:	e7ee      	b.n	8007eb4 <__libc_init_array+0xc>
 8007ed6:	f855 3b04 	ldr.w	r3, [r5], #4
 8007eda:	4798      	blx	r3
 8007edc:	3601      	adds	r6, #1
 8007ede:	e7f2      	b.n	8007ec6 <__libc_init_array+0x1e>
 8007ee0:	08008cc4 	.word	0x08008cc4
 8007ee4:	08008cc4 	.word	0x08008cc4
 8007ee8:	08008cc4 	.word	0x08008cc4
 8007eec:	08008cc8 	.word	0x08008cc8

08007ef0 <memcpy>:
 8007ef0:	440a      	add	r2, r1
 8007ef2:	4291      	cmp	r1, r2
 8007ef4:	f100 33ff 	add.w	r3, r0, #4294967295	; 0xffffffff
 8007ef8:	d100      	bne.n	8007efc <memcpy+0xc>
 8007efa:	4770      	bx	lr
 8007efc:	b510      	push	{r4, lr}
 8007efe:	f811 4b01 	ldrb.w	r4, [r1], #1
 8007f02:	f803 4f01 	strb.w	r4, [r3, #1]!
 8007f06:	4291      	cmp	r1, r2
 8007f08:	d1f9      	bne.n	8007efe <memcpy+0xe>
 8007f0a:	bd10      	pop	{r4, pc}

08007f0c <memset>:
 8007f0c:	4402      	add	r2, r0
 8007f0e:	4603      	mov	r3, r0
 8007f10:	4293      	cmp	r3, r2
 8007f12:	d100      	bne.n	8007f16 <memset+0xa>
 8007f14:	4770      	bx	lr
 8007f16:	f803 1b01 	strb.w	r1, [r3], #1
 8007f1a:	e7f9      	b.n	8007f10 <memset+0x4>

08007f1c <siprintf>:
 8007f1c:	b40e      	push	{r1, r2, r3}
 8007f1e:	b500      	push	{lr}
 8007f20:	b09c      	sub	sp, #112	; 0x70
 8007f22:	ab1d      	add	r3, sp, #116	; 0x74
 8007f24:	9002      	str	r0, [sp, #8]
 8007f26:	9006      	str	r0, [sp, #24]
 8007f28:	f06f 4100 	mvn.w	r1, #2147483648	; 0x80000000
 8007f2c:	4809      	ldr	r0, [pc, #36]	; (8007f54 <siprintf+0x38>)
 8007f2e:	9107      	str	r1, [sp, #28]
 8007f30:	9104      	str	r1, [sp, #16]
 8007f32:	4909      	ldr	r1, [pc, #36]	; (8007f58 <siprintf+0x3c>)
 8007f34:	f853 2b04 	ldr.w	r2, [r3], #4
 8007f38:	9105      	str	r1, [sp, #20]
 8007f3a:	6800      	ldr	r0, [r0, #0]
 8007f3c:	9301      	str	r3, [sp, #4]
 8007f3e:	a902      	add	r1, sp, #8
 8007f40:	f000 f868 	bl	8008014 <_svfiprintf_r>
 8007f44:	9b02      	ldr	r3, [sp, #8]
 8007f46:	2200      	movs	r2, #0
 8007f48:	701a      	strb	r2, [r3, #0]
 8007f4a:	b01c      	add	sp, #112	; 0x70
 8007f4c:	f85d eb04 	ldr.w	lr, [sp], #4
 8007f50:	b003      	add	sp, #12
 8007f52:	4770      	bx	lr
 8007f54:	2000004c 	.word	0x2000004c
 8007f58:	ffff0208 	.word	0xffff0208

08007f5c <__ssputs_r>:
 8007f5c:	e92d 47f0 	stmdb	sp!, {r4, r5, r6, r7, r8, r9, sl, lr}
 8007f60:	688e      	ldr	r6, [r1, #8]
 8007f62:	429e      	cmp	r6, r3
 8007f64:	4682      	mov	sl, r0
 8007f66:	460c      	mov	r4, r1
 8007f68:	4690      	mov	r8, r2
 8007f6a:	461f      	mov	r7, r3
 8007f6c:	d838      	bhi.n	8007fe0 <__ssputs_r+0x84>
 8007f6e:	898a      	ldrh	r2, [r1, #12]
 8007f70:	f412 6f90 	tst.w	r2, #1152	; 0x480
 8007f74:	d032      	beq.n	8007fdc <__ssputs_r+0x80>
 8007f76:	6825      	ldr	r5, [r4, #0]
 8007f78:	6909      	ldr	r1, [r1, #16]
 8007f7a:	eba5 0901 	sub.w	r9, r5, r1
 8007f7e:	6965      	ldr	r5, [r4, #20]
 8007f80:	eb05 0545 	add.w	r5, r5, r5, lsl #1
 8007f84:	eb05 75d5 	add.w	r5, r5, r5, lsr #31
 8007f88:	3301      	adds	r3, #1
 8007f8a:	444b      	add	r3, r9
 8007f8c:	106d      	asrs	r5, r5, #1
 8007f8e:	429d      	cmp	r5, r3
 8007f90:	bf38      	it	cc
 8007f92:	461d      	movcc	r5, r3
 8007f94:	0553      	lsls	r3, r2, #21
 8007f96:	d531      	bpl.n	8007ffc <__ssputs_r+0xa0>
 8007f98:	4629      	mov	r1, r5
 8007f9a:	f000 fb55 	bl	8008648 <_malloc_r>
 8007f9e:	4606      	mov	r6, r0
 8007fa0:	b950      	cbnz	r0, 8007fb8 <__ssputs_r+0x5c>
 8007fa2:	230c      	movs	r3, #12
 8007fa4:	f8ca 3000 	str.w	r3, [sl]
 8007fa8:	89a3      	ldrh	r3, [r4, #12]
 8007faa:	f043 0340 	orr.w	r3, r3, #64	; 0x40
 8007fae:	81a3      	strh	r3, [r4, #12]
 8007fb0:	f04f 30ff 	mov.w	r0, #4294967295	; 0xffffffff
 8007fb4:	e8bd 87f0 	ldmia.w	sp!, {r4, r5, r6, r7, r8, r9, sl, pc}
 8007fb8:	6921      	ldr	r1, [r4, #16]
 8007fba:	464a      	mov	r2, r9
 8007fbc:	f7ff ff98 	bl	8007ef0 <memcpy>
 8007fc0:	89a3      	ldrh	r3, [r4, #12]
 8007fc2:	f423 6390 	bic.w	r3, r3, #1152	; 0x480
 8007fc6:	f043 0380 	orr.w	r3, r3, #128	; 0x80
 8007fca:	81a3      	strh	r3, [r4, #12]
 8007fcc:	6126      	str	r6, [r4, #16]
 8007fce:	6165      	str	r5, [r4, #20]
 8007fd0:	444e      	add	r6, r9
 8007fd2:	eba5 0509 	sub.w	r5, r5, r9
 8007fd6:	6026      	str	r6, [r4, #0]
 8007fd8:	60a5      	str	r5, [r4, #8]
 8007fda:	463e      	mov	r6, r7
 8007fdc:	42be      	cmp	r6, r7
 8007fde:	d900      	bls.n	8007fe2 <__ssputs_r+0x86>
 8007fe0:	463e      	mov	r6, r7
 8007fe2:	6820      	ldr	r0, [r4, #0]
 8007fe4:	4632      	mov	r2, r6
 8007fe6:	4641      	mov	r1, r8
 8007fe8:	f000 faa8 	bl	800853c <memmove>
 8007fec:	68a3      	ldr	r3, [r4, #8]
 8007fee:	1b9b      	subs	r3, r3, r6
 8007ff0:	60a3      	str	r3, [r4, #8]
 8007ff2:	6823      	ldr	r3, [r4, #0]
 8007ff4:	4433      	add	r3, r6
 8007ff6:	6023      	str	r3, [r4, #0]
 8007ff8:	2000      	movs	r0, #0
 8007ffa:	e7db      	b.n	8007fb4 <__ssputs_r+0x58>
 8007ffc:	462a      	mov	r2, r5
 8007ffe:	f000 fb97 	bl	8008730 <_realloc_r>
 8008002:	4606      	mov	r6, r0
 8008004:	2800      	cmp	r0, #0
 8008006:	d1e1      	bne.n	8007fcc <__ssputs_r+0x70>
 8008008:	6921      	ldr	r1, [r4, #16]
 800800a:	4650      	mov	r0, sl
 800800c:	f000 fab0 	bl	8008570 <_free_r>
 8008010:	e7c7      	b.n	8007fa2 <__ssputs_r+0x46>
	...

08008014 <_svfiprintf_r>:
 8008014:	e92d 4ff0 	stmdb	sp!, {r4, r5, r6, r7, r8, r9, sl, fp, lr}
 8008018:	4698      	mov	r8, r3
 800801a:	898b      	ldrh	r3, [r1, #12]
 800801c:	061b      	lsls	r3, r3, #24
 800801e:	b09d      	sub	sp, #116	; 0x74
 8008020:	4607      	mov	r7, r0
 8008022:	460d      	mov	r5, r1
 8008024:	4614      	mov	r4, r2
 8008026:	d50e      	bpl.n	8008046 <_svfiprintf_r+0x32>
 8008028:	690b      	ldr	r3, [r1, #16]
 800802a:	b963      	cbnz	r3, 8008046 <_svfiprintf_r+0x32>
 800802c:	2140      	movs	r1, #64	; 0x40
 800802e:	f000 fb0b 	bl	8008648 <_malloc_r>
 8008032:	6028      	str	r0, [r5, #0]
 8008034:	6128      	str	r0, [r5, #16]
 8008036:	b920      	cbnz	r0, 8008042 <_svfiprintf_r+0x2e>
 8008038:	230c      	movs	r3, #12
 800803a:	603b      	str	r3, [r7, #0]
 800803c:	f04f 30ff 	mov.w	r0, #4294967295	; 0xffffffff
 8008040:	e0d1      	b.n	80081e6 <_svfiprintf_r+0x1d2>
 8008042:	2340      	movs	r3, #64	; 0x40
 8008044:	616b      	str	r3, [r5, #20]
 8008046:	2300      	movs	r3, #0
 8008048:	9309      	str	r3, [sp, #36]	; 0x24
 800804a:	2320      	movs	r3, #32
 800804c:	f88d 3029 	strb.w	r3, [sp, #41]	; 0x29
 8008050:	f8cd 800c 	str.w	r8, [sp, #12]
 8008054:	2330      	movs	r3, #48	; 0x30
 8008056:	f8df 81a8 	ldr.w	r8, [pc, #424]	; 8008200 <_svfiprintf_r+0x1ec>
 800805a:	f88d 302a 	strb.w	r3, [sp, #42]	; 0x2a
 800805e:	f04f 0901 	mov.w	r9, #1
 8008062:	4623      	mov	r3, r4
 8008064:	469a      	mov	sl, r3
 8008066:	f813 2b01 	ldrb.w	r2, [r3], #1
 800806a:	b10a      	cbz	r2, 8008070 <_svfiprintf_r+0x5c>
 800806c:	2a25      	cmp	r2, #37	; 0x25
 800806e:	d1f9      	bne.n	8008064 <_svfiprintf_r+0x50>
 8008070:	ebba 0b04 	subs.w	fp, sl, r4
 8008074:	d00b      	beq.n	800808e <_svfiprintf_r+0x7a>
 8008076:	465b      	mov	r3, fp
 8008078:	4622      	mov	r2, r4
 800807a:	4629      	mov	r1, r5
 800807c:	4638      	mov	r0, r7
 800807e:	f7ff ff6d 	bl	8007f5c <__ssputs_r>
 8008082:	3001      	adds	r0, #1
 8008084:	f000 80aa 	beq.w	80081dc <_svfiprintf_r+0x1c8>
 8008088:	9a09      	ldr	r2, [sp, #36]	; 0x24
 800808a:	445a      	add	r2, fp
 800808c:	9209      	str	r2, [sp, #36]	; 0x24
 800808e:	f89a 3000 	ldrb.w	r3, [sl]
 8008092:	2b00      	cmp	r3, #0
 8008094:	f000 80a2 	beq.w	80081dc <_svfiprintf_r+0x1c8>
 8008098:	2300      	movs	r3, #0
 800809a:	f04f 32ff 	mov.w	r2, #4294967295	; 0xffffffff
 800809e:	e9cd 2305 	strd	r2, r3, [sp, #20]
 80080a2:	f10a 0a01 	add.w	sl, sl, #1
 80080a6:	9304      	str	r3, [sp, #16]
 80080a8:	9307      	str	r3, [sp, #28]
 80080aa:	f88d 3053 	strb.w	r3, [sp, #83]	; 0x53
 80080ae:	931a      	str	r3, [sp, #104]	; 0x68
 80080b0:	4654      	mov	r4, sl
 80080b2:	2205      	movs	r2, #5
 80080b4:	f814 1b01 	ldrb.w	r1, [r4], #1
 80080b8:	4851      	ldr	r0, [pc, #324]	; (8008200 <_svfiprintf_r+0x1ec>)
 80080ba:	f7f8 f891 	bl	80001e0 <memchr>
 80080be:	9a04      	ldr	r2, [sp, #16]
 80080c0:	b9d8      	cbnz	r0, 80080fa <_svfiprintf_r+0xe6>
 80080c2:	06d0      	lsls	r0, r2, #27
 80080c4:	bf44      	itt	mi
 80080c6:	2320      	movmi	r3, #32
 80080c8:	f88d 3053 	strbmi.w	r3, [sp, #83]	; 0x53
 80080cc:	0711      	lsls	r1, r2, #28
 80080ce:	bf44      	itt	mi
 80080d0:	232b      	movmi	r3, #43	; 0x2b
 80080d2:	f88d 3053 	strbmi.w	r3, [sp, #83]	; 0x53
 80080d6:	f89a 3000 	ldrb.w	r3, [sl]
 80080da:	2b2a      	cmp	r3, #42	; 0x2a
 80080dc:	d015      	beq.n	800810a <_svfiprintf_r+0xf6>
 80080de:	9a07      	ldr	r2, [sp, #28]
 80080e0:	4654      	mov	r4, sl
 80080e2:	2000      	movs	r0, #0
 80080e4:	f04f 0c0a 	mov.w	ip, #10
 80080e8:	4621      	mov	r1, r4
 80080ea:	f811 3b01 	ldrb.w	r3, [r1], #1
 80080ee:	3b30      	subs	r3, #48	; 0x30
 80080f0:	2b09      	cmp	r3, #9
 80080f2:	d94e      	bls.n	8008192 <_svfiprintf_r+0x17e>
 80080f4:	b1b0      	cbz	r0, 8008124 <_svfiprintf_r+0x110>
 80080f6:	9207      	str	r2, [sp, #28]
 80080f8:	e014      	b.n	8008124 <_svfiprintf_r+0x110>
 80080fa:	eba0 0308 	sub.w	r3, r0, r8
 80080fe:	fa09 f303 	lsl.w	r3, r9, r3
 8008102:	4313      	orrs	r3, r2
 8008104:	9304      	str	r3, [sp, #16]
 8008106:	46a2      	mov	sl, r4
 8008108:	e7d2      	b.n	80080b0 <_svfiprintf_r+0x9c>
 800810a:	9b03      	ldr	r3, [sp, #12]
 800810c:	1d19      	adds	r1, r3, #4
 800810e:	681b      	ldr	r3, [r3, #0]
 8008110:	9103      	str	r1, [sp, #12]
 8008112:	2b00      	cmp	r3, #0
 8008114:	bfbb      	ittet	lt
 8008116:	425b      	neglt	r3, r3
 8008118:	f042 0202 	orrlt.w	r2, r2, #2
 800811c:	9307      	strge	r3, [sp, #28]
 800811e:	9307      	strlt	r3, [sp, #28]
 8008120:	bfb8      	it	lt
 8008122:	9204      	strlt	r2, [sp, #16]
 8008124:	7823      	ldrb	r3, [r4, #0]
 8008126:	2b2e      	cmp	r3, #46	; 0x2e
 8008128:	d10c      	bne.n	8008144 <_svfiprintf_r+0x130>
 800812a:	7863      	ldrb	r3, [r4, #1]
 800812c:	2b2a      	cmp	r3, #42	; 0x2a
 800812e:	d135      	bne.n	800819c <_svfiprintf_r+0x188>
 8008130:	9b03      	ldr	r3, [sp, #12]
 8008132:	1d1a      	adds	r2, r3, #4
 8008134:	681b      	ldr	r3, [r3, #0]
 8008136:	9203      	str	r2, [sp, #12]
 8008138:	2b00      	cmp	r3, #0
 800813a:	bfb8      	it	lt
 800813c:	f04f 33ff 	movlt.w	r3, #4294967295	; 0xffffffff
 8008140:	3402      	adds	r4, #2
 8008142:	9305      	str	r3, [sp, #20]
 8008144:	f8df a0c8 	ldr.w	sl, [pc, #200]	; 8008210 <_svfiprintf_r+0x1fc>
 8008148:	7821      	ldrb	r1, [r4, #0]
 800814a:	2203      	movs	r2, #3
 800814c:	4650      	mov	r0, sl
 800814e:	f7f8 f847 	bl	80001e0 <memchr>
 8008152:	b140      	cbz	r0, 8008166 <_svfiprintf_r+0x152>
 8008154:	2340      	movs	r3, #64	; 0x40
 8008156:	eba0 000a 	sub.w	r0, r0, sl
 800815a:	fa03 f000 	lsl.w	r0, r3, r0
 800815e:	9b04      	ldr	r3, [sp, #16]
 8008160:	4303      	orrs	r3, r0
 8008162:	3401      	adds	r4, #1
 8008164:	9304      	str	r3, [sp, #16]
 8008166:	f814 1b01 	ldrb.w	r1, [r4], #1
 800816a:	4826      	ldr	r0, [pc, #152]	; (8008204 <_svfiprintf_r+0x1f0>)
 800816c:	f88d 1028 	strb.w	r1, [sp, #40]	; 0x28
 8008170:	2206      	movs	r2, #6
 8008172:	f7f8 f835 	bl	80001e0 <memchr>
 8008176:	2800      	cmp	r0, #0
 8008178:	d038      	beq.n	80081ec <_svfiprintf_r+0x1d8>
 800817a:	4b23      	ldr	r3, [pc, #140]	; (8008208 <_svfiprintf_r+0x1f4>)
 800817c:	bb1b      	cbnz	r3, 80081c6 <_svfiprintf_r+0x1b2>
 800817e:	9b03      	ldr	r3, [sp, #12]
 8008180:	3307      	adds	r3, #7
 8008182:	f023 0307 	bic.w	r3, r3, #7
 8008186:	3308      	adds	r3, #8
 8008188:	9303      	str	r3, [sp, #12]
 800818a:	9b09      	ldr	r3, [sp, #36]	; 0x24
 800818c:	4433      	add	r3, r6
 800818e:	9309      	str	r3, [sp, #36]	; 0x24
 8008190:	e767      	b.n	8008062 <_svfiprintf_r+0x4e>
 8008192:	fb0c 3202 	mla	r2, ip, r2, r3
 8008196:	460c      	mov	r4, r1
 8008198:	2001      	movs	r0, #1
 800819a:	e7a5      	b.n	80080e8 <_svfiprintf_r+0xd4>
 800819c:	2300      	movs	r3, #0
 800819e:	3401      	adds	r4, #1
 80081a0:	9305      	str	r3, [sp, #20]
 80081a2:	4619      	mov	r1, r3
 80081a4:	f04f 0c0a 	mov.w	ip, #10
 80081a8:	4620      	mov	r0, r4
 80081aa:	f810 2b01 	ldrb.w	r2, [r0], #1
 80081ae:	3a30      	subs	r2, #48	; 0x30
 80081b0:	2a09      	cmp	r2, #9
 80081b2:	d903      	bls.n	80081bc <_svfiprintf_r+0x1a8>
 80081b4:	2b00      	cmp	r3, #0
 80081b6:	d0c5      	beq.n	8008144 <_svfiprintf_r+0x130>
 80081b8:	9105      	str	r1, [sp, #20]
 80081ba:	e7c3      	b.n	8008144 <_svfiprintf_r+0x130>
 80081bc:	fb0c 2101 	mla	r1, ip, r1, r2
 80081c0:	4604      	mov	r4, r0
 80081c2:	2301      	movs	r3, #1
 80081c4:	e7f0      	b.n	80081a8 <_svfiprintf_r+0x194>
 80081c6:	ab03      	add	r3, sp, #12
 80081c8:	9300      	str	r3, [sp, #0]
 80081ca:	462a      	mov	r2, r5
 80081cc:	4b0f      	ldr	r3, [pc, #60]	; (800820c <_svfiprintf_r+0x1f8>)
 80081ce:	a904      	add	r1, sp, #16
 80081d0:	4638      	mov	r0, r7
 80081d2:	f3af 8000 	nop.w
 80081d6:	1c42      	adds	r2, r0, #1
 80081d8:	4606      	mov	r6, r0
 80081da:	d1d6      	bne.n	800818a <_svfiprintf_r+0x176>
 80081dc:	89ab      	ldrh	r3, [r5, #12]
 80081de:	065b      	lsls	r3, r3, #25
 80081e0:	f53f af2c 	bmi.w	800803c <_svfiprintf_r+0x28>
 80081e4:	9809      	ldr	r0, [sp, #36]	; 0x24
 80081e6:	b01d      	add	sp, #116	; 0x74
 80081e8:	e8bd 8ff0 	ldmia.w	sp!, {r4, r5, r6, r7, r8, r9, sl, fp, pc}
 80081ec:	ab03      	add	r3, sp, #12
 80081ee:	9300      	str	r3, [sp, #0]
 80081f0:	462a      	mov	r2, r5
 80081f2:	4b06      	ldr	r3, [pc, #24]	; (800820c <_svfiprintf_r+0x1f8>)
 80081f4:	a904      	add	r1, sp, #16
 80081f6:	4638      	mov	r0, r7
 80081f8:	f000 f87a 	bl	80082f0 <_printf_i>
 80081fc:	e7eb      	b.n	80081d6 <_svfiprintf_r+0x1c2>
 80081fe:	bf00      	nop
 8008200:	08008c88 	.word	0x08008c88
 8008204:	08008c92 	.word	0x08008c92
 8008208:	00000000 	.word	0x00000000
 800820c:	08007f5d 	.word	0x08007f5d
 8008210:	08008c8e 	.word	0x08008c8e

08008214 <_printf_common>:
 8008214:	e92d 47f0 	stmdb	sp!, {r4, r5, r6, r7, r8, r9, sl, lr}
 8008218:	4616      	mov	r6, r2
 800821a:	4699      	mov	r9, r3
 800821c:	688a      	ldr	r2, [r1, #8]
 800821e:	690b      	ldr	r3, [r1, #16]
 8008220:	f8dd 8020 	ldr.w	r8, [sp, #32]
 8008224:	4293      	cmp	r3, r2
 8008226:	bfb8      	it	lt
 8008228:	4613      	movlt	r3, r2
 800822a:	6033      	str	r3, [r6, #0]
 800822c:	f891 2043 	ldrb.w	r2, [r1, #67]	; 0x43
 8008230:	4607      	mov	r7, r0
 8008232:	460c      	mov	r4, r1
 8008234:	b10a      	cbz	r2, 800823a <_printf_common+0x26>
 8008236:	3301      	adds	r3, #1
 8008238:	6033      	str	r3, [r6, #0]
 800823a:	6823      	ldr	r3, [r4, #0]
 800823c:	0699      	lsls	r1, r3, #26
 800823e:	bf42      	ittt	mi
 8008240:	6833      	ldrmi	r3, [r6, #0]
 8008242:	3302      	addmi	r3, #2
 8008244:	6033      	strmi	r3, [r6, #0]
 8008246:	6825      	ldr	r5, [r4, #0]
 8008248:	f015 0506 	ands.w	r5, r5, #6
 800824c:	d106      	bne.n	800825c <_printf_common+0x48>
 800824e:	f104 0a19 	add.w	sl, r4, #25
 8008252:	68e3      	ldr	r3, [r4, #12]
 8008254:	6832      	ldr	r2, [r6, #0]
 8008256:	1a9b      	subs	r3, r3, r2
 8008258:	42ab      	cmp	r3, r5
 800825a:	dc26      	bgt.n	80082aa <_printf_common+0x96>
 800825c:	f894 2043 	ldrb.w	r2, [r4, #67]	; 0x43
 8008260:	1e13      	subs	r3, r2, #0
 8008262:	6822      	ldr	r2, [r4, #0]
 8008264:	bf18      	it	ne
 8008266:	2301      	movne	r3, #1
 8008268:	0692      	lsls	r2, r2, #26
 800826a:	d42b      	bmi.n	80082c4 <_printf_common+0xb0>
 800826c:	f104 0243 	add.w	r2, r4, #67	; 0x43
 8008270:	4649      	mov	r1, r9
 8008272:	4638      	mov	r0, r7
 8008274:	47c0      	blx	r8
 8008276:	3001      	adds	r0, #1
 8008278:	d01e      	beq.n	80082b8 <_printf_common+0xa4>
 800827a:	6823      	ldr	r3, [r4, #0]
 800827c:	68e5      	ldr	r5, [r4, #12]
 800827e:	6832      	ldr	r2, [r6, #0]
 8008280:	f003 0306 	and.w	r3, r3, #6
 8008284:	2b04      	cmp	r3, #4
 8008286:	bf08      	it	eq
 8008288:	1aad      	subeq	r5, r5, r2
 800828a:	68a3      	ldr	r3, [r4, #8]
 800828c:	6922      	ldr	r2, [r4, #16]
 800828e:	bf0c      	ite	eq
 8008290:	ea25 75e5 	biceq.w	r5, r5, r5, asr #31
 8008294:	2500      	movne	r5, #0
 8008296:	4293      	cmp	r3, r2
 8008298:	bfc4      	itt	gt
 800829a:	1a9b      	subgt	r3, r3, r2
 800829c:	18ed      	addgt	r5, r5, r3
 800829e:	2600      	movs	r6, #0
 80082a0:	341a      	adds	r4, #26
 80082a2:	42b5      	cmp	r5, r6
 80082a4:	d11a      	bne.n	80082dc <_printf_common+0xc8>
 80082a6:	2000      	movs	r0, #0
 80082a8:	e008      	b.n	80082bc <_printf_common+0xa8>
 80082aa:	2301      	movs	r3, #1
 80082ac:	4652      	mov	r2, sl
 80082ae:	4649      	mov	r1, r9
 80082b0:	4638      	mov	r0, r7
 80082b2:	47c0      	blx	r8
 80082b4:	3001      	adds	r0, #1
 80082b6:	d103      	bne.n	80082c0 <_printf_common+0xac>
 80082b8:	f04f 30ff 	mov.w	r0, #4294967295	; 0xffffffff
 80082bc:	e8bd 87f0 	ldmia.w	sp!, {r4, r5, r6, r7, r8, r9, sl, pc}
 80082c0:	3501      	adds	r5, #1
 80082c2:	e7c6      	b.n	8008252 <_printf_common+0x3e>
 80082c4:	18e1      	adds	r1, r4, r3
 80082c6:	1c5a      	adds	r2, r3, #1
 80082c8:	2030      	movs	r0, #48	; 0x30
 80082ca:	f881 0043 	strb.w	r0, [r1, #67]	; 0x43
 80082ce:	4422      	add	r2, r4
 80082d0:	f894 1045 	ldrb.w	r1, [r4, #69]	; 0x45
 80082d4:	f882 1043 	strb.w	r1, [r2, #67]	; 0x43
 80082d8:	3302      	adds	r3, #2
 80082da:	e7c7      	b.n	800826c <_printf_common+0x58>
 80082dc:	2301      	movs	r3, #1
 80082de:	4622      	mov	r2, r4
 80082e0:	4649      	mov	r1, r9
 80082e2:	4638      	mov	r0, r7
 80082e4:	47c0      	blx	r8
 80082e6:	3001      	adds	r0, #1
 80082e8:	d0e6      	beq.n	80082b8 <_printf_common+0xa4>
 80082ea:	3601      	adds	r6, #1
 80082ec:	e7d9      	b.n	80082a2 <_printf_common+0x8e>
	...

080082f0 <_printf_i>:
 80082f0:	e92d 47ff 	stmdb	sp!, {r0, r1, r2, r3, r4, r5, r6, r7, r8, r9, sl, lr}
 80082f4:	7e0f      	ldrb	r7, [r1, #24]
 80082f6:	9d0c      	ldr	r5, [sp, #48]	; 0x30
 80082f8:	2f78      	cmp	r7, #120	; 0x78
 80082fa:	4691      	mov	r9, r2
 80082fc:	4680      	mov	r8, r0
 80082fe:	460c      	mov	r4, r1
 8008300:	469a      	mov	sl, r3
 8008302:	f101 0243 	add.w	r2, r1, #67	; 0x43
 8008306:	d807      	bhi.n	8008318 <_printf_i+0x28>
 8008308:	2f62      	cmp	r7, #98	; 0x62
 800830a:	d80a      	bhi.n	8008322 <_printf_i+0x32>
 800830c:	2f00      	cmp	r7, #0
 800830e:	f000 80d8 	beq.w	80084c2 <_printf_i+0x1d2>
 8008312:	2f58      	cmp	r7, #88	; 0x58
 8008314:	f000 80a3 	beq.w	800845e <_printf_i+0x16e>
 8008318:	f104 0542 	add.w	r5, r4, #66	; 0x42
 800831c:	f884 7042 	strb.w	r7, [r4, #66]	; 0x42
 8008320:	e03a      	b.n	8008398 <_printf_i+0xa8>
 8008322:	f1a7 0363 	sub.w	r3, r7, #99	; 0x63
 8008326:	2b15      	cmp	r3, #21
 8008328:	d8f6      	bhi.n	8008318 <_printf_i+0x28>
 800832a:	a101      	add	r1, pc, #4	; (adr r1, 8008330 <_printf_i+0x40>)
 800832c:	f851 f023 	ldr.w	pc, [r1, r3, lsl #2]
 8008330:	08008389 	.word	0x08008389
 8008334:	0800839d 	.word	0x0800839d
 8008338:	08008319 	.word	0x08008319
 800833c:	08008319 	.word	0x08008319
 8008340:	08008319 	.word	0x08008319
 8008344:	08008319 	.word	0x08008319
 8008348:	0800839d 	.word	0x0800839d
 800834c:	08008319 	.word	0x08008319
 8008350:	08008319 	.word	0x08008319
 8008354:	08008319 	.word	0x08008319
 8008358:	08008319 	.word	0x08008319
 800835c:	080084a9 	.word	0x080084a9
 8008360:	080083cd 	.word	0x080083cd
 8008364:	0800848b 	.word	0x0800848b
 8008368:	08008319 	.word	0x08008319
 800836c:	08008319 	.word	0x08008319
 8008370:	080084cb 	.word	0x080084cb
 8008374:	08008319 	.word	0x08008319
 8008378:	080083cd 	.word	0x080083cd
 800837c:	08008319 	.word	0x08008319
 8008380:	08008319 	.word	0x08008319
 8008384:	08008493 	.word	0x08008493
 8008388:	682b      	ldr	r3, [r5, #0]
 800838a:	1d1a      	adds	r2, r3, #4
 800838c:	681b      	ldr	r3, [r3, #0]
 800838e:	602a      	str	r2, [r5, #0]
 8008390:	f104 0542 	add.w	r5, r4, #66	; 0x42
 8008394:	f884 3042 	strb.w	r3, [r4, #66]	; 0x42
 8008398:	2301      	movs	r3, #1
 800839a:	e0a3      	b.n	80084e4 <_printf_i+0x1f4>
 800839c:	6820      	ldr	r0, [r4, #0]
 800839e:	6829      	ldr	r1, [r5, #0]
 80083a0:	0606      	lsls	r6, r0, #24
 80083a2:	f101 0304 	add.w	r3, r1, #4
 80083a6:	d50a      	bpl.n	80083be <_printf_i+0xce>
 80083a8:	680e      	ldr	r6, [r1, #0]
 80083aa:	602b      	str	r3, [r5, #0]
 80083ac:	2e00      	cmp	r6, #0
 80083ae:	da03      	bge.n	80083b8 <_printf_i+0xc8>
 80083b0:	232d      	movs	r3, #45	; 0x2d
 80083b2:	4276      	negs	r6, r6
 80083b4:	f884 3043 	strb.w	r3, [r4, #67]	; 0x43
 80083b8:	485e      	ldr	r0, [pc, #376]	; (8008534 <_printf_i+0x244>)
 80083ba:	230a      	movs	r3, #10
 80083bc:	e019      	b.n	80083f2 <_printf_i+0x102>
 80083be:	680e      	ldr	r6, [r1, #0]
 80083c0:	602b      	str	r3, [r5, #0]
 80083c2:	f010 0f40 	tst.w	r0, #64	; 0x40
 80083c6:	bf18      	it	ne
 80083c8:	b236      	sxthne	r6, r6
 80083ca:	e7ef      	b.n	80083ac <_printf_i+0xbc>
 80083cc:	682b      	ldr	r3, [r5, #0]
 80083ce:	6820      	ldr	r0, [r4, #0]
 80083d0:	1d19      	adds	r1, r3, #4
 80083d2:	6029      	str	r1, [r5, #0]
 80083d4:	0601      	lsls	r1, r0, #24
 80083d6:	d501      	bpl.n	80083dc <_printf_i+0xec>
 80083d8:	681e      	ldr	r6, [r3, #0]
 80083da:	e002      	b.n	80083e2 <_printf_i+0xf2>
 80083dc:	0646      	lsls	r6, r0, #25
 80083de:	d5fb      	bpl.n	80083d8 <_printf_i+0xe8>
 80083e0:	881e      	ldrh	r6, [r3, #0]
 80083e2:	4854      	ldr	r0, [pc, #336]	; (8008534 <_printf_i+0x244>)
 80083e4:	2f6f      	cmp	r7, #111	; 0x6f
 80083e6:	bf0c      	ite	eq
 80083e8:	2308      	moveq	r3, #8
 80083ea:	230a      	movne	r3, #10
 80083ec:	2100      	movs	r1, #0
 80083ee:	f884 1043 	strb.w	r1, [r4, #67]	; 0x43
 80083f2:	6865      	ldr	r5, [r4, #4]
 80083f4:	60a5      	str	r5, [r4, #8]
 80083f6:	2d00      	cmp	r5, #0
 80083f8:	bfa2      	ittt	ge
 80083fa:	6821      	ldrge	r1, [r4, #0]
 80083fc:	f021 0104 	bicge.w	r1, r1, #4
 8008400:	6021      	strge	r1, [r4, #0]
 8008402:	b90e      	cbnz	r6, 8008408 <_printf_i+0x118>
 8008404:	2d00      	cmp	r5, #0
 8008406:	d04d      	beq.n	80084a4 <_printf_i+0x1b4>
 8008408:	4615      	mov	r5, r2
 800840a:	fbb6 f1f3 	udiv	r1, r6, r3
 800840e:	fb03 6711 	mls	r7, r3, r1, r6
 8008412:	5dc7      	ldrb	r7, [r0, r7]
 8008414:	f805 7d01 	strb.w	r7, [r5, #-1]!
 8008418:	4637      	mov	r7, r6
 800841a:	42bb      	cmp	r3, r7
 800841c:	460e      	mov	r6, r1
 800841e:	d9f4      	bls.n	800840a <_printf_i+0x11a>
 8008420:	2b08      	cmp	r3, #8
 8008422:	d10b      	bne.n	800843c <_printf_i+0x14c>
 8008424:	6823      	ldr	r3, [r4, #0]
 8008426:	07de      	lsls	r6, r3, #31
 8008428:	d508      	bpl.n	800843c <_printf_i+0x14c>
 800842a:	6923      	ldr	r3, [r4, #16]
 800842c:	6861      	ldr	r1, [r4, #4]
 800842e:	4299      	cmp	r1, r3
 8008430:	bfde      	ittt	le
 8008432:	2330      	movle	r3, #48	; 0x30
 8008434:	f805 3c01 	strble.w	r3, [r5, #-1]
 8008438:	f105 35ff 	addle.w	r5, r5, #4294967295	; 0xffffffff
 800843c:	1b52      	subs	r2, r2, r5
 800843e:	6122      	str	r2, [r4, #16]
 8008440:	f8cd a000 	str.w	sl, [sp]
 8008444:	464b      	mov	r3, r9
 8008446:	aa03      	add	r2, sp, #12
 8008448:	4621      	mov	r1, r4
 800844a:	4640      	mov	r0, r8
 800844c:	f7ff fee2 	bl	8008214 <_printf_common>
 8008450:	3001      	adds	r0, #1
 8008452:	d14c      	bne.n	80084ee <_printf_i+0x1fe>
 8008454:	f04f 30ff 	mov.w	r0, #4294967295	; 0xffffffff
 8008458:	b004      	add	sp, #16
 800845a:	e8bd 87f0 	ldmia.w	sp!, {r4, r5, r6, r7, r8, r9, sl, pc}
 800845e:	4835      	ldr	r0, [pc, #212]	; (8008534 <_printf_i+0x244>)
 8008460:	f881 7045 	strb.w	r7, [r1, #69]	; 0x45
 8008464:	6829      	ldr	r1, [r5, #0]
 8008466:	6823      	ldr	r3, [r4, #0]
 8008468:	f851 6b04 	ldr.w	r6, [r1], #4
 800846c:	6029      	str	r1, [r5, #0]
 800846e:	061d      	lsls	r5, r3, #24
 8008470:	d514      	bpl.n	800849c <_printf_i+0x1ac>
 8008472:	07df      	lsls	r7, r3, #31
 8008474:	bf44      	itt	mi
 8008476:	f043 0320 	orrmi.w	r3, r3, #32
 800847a:	6023      	strmi	r3, [r4, #0]
 800847c:	b91e      	cbnz	r6, 8008486 <_printf_i+0x196>
 800847e:	6823      	ldr	r3, [r4, #0]
 8008480:	f023 0320 	bic.w	r3, r3, #32
 8008484:	6023      	str	r3, [r4, #0]
 8008486:	2310      	movs	r3, #16
 8008488:	e7b0      	b.n	80083ec <_printf_i+0xfc>
 800848a:	6823      	ldr	r3, [r4, #0]
 800848c:	f043 0320 	orr.w	r3, r3, #32
 8008490:	6023      	str	r3, [r4, #0]
 8008492:	2378      	movs	r3, #120	; 0x78
 8008494:	4828      	ldr	r0, [pc, #160]	; (8008538 <_printf_i+0x248>)
 8008496:	f884 3045 	strb.w	r3, [r4, #69]	; 0x45
 800849a:	e7e3      	b.n	8008464 <_printf_i+0x174>
 800849c:	0659      	lsls	r1, r3, #25
 800849e:	bf48      	it	mi
 80084a0:	b2b6      	uxthmi	r6, r6
 80084a2:	e7e6      	b.n	8008472 <_printf_i+0x182>
 80084a4:	4615      	mov	r5, r2
 80084a6:	e7bb      	b.n	8008420 <_printf_i+0x130>
 80084a8:	682b      	ldr	r3, [r5, #0]
 80084aa:	6826      	ldr	r6, [r4, #0]
 80084ac:	6961      	ldr	r1, [r4, #20]
 80084ae:	1d18      	adds	r0, r3, #4
 80084b0:	6028      	str	r0, [r5, #0]
 80084b2:	0635      	lsls	r5, r6, #24
 80084b4:	681b      	ldr	r3, [r3, #0]
 80084b6:	d501      	bpl.n	80084bc <_printf_i+0x1cc>
 80084b8:	6019      	str	r1, [r3, #0]
 80084ba:	e002      	b.n	80084c2 <_printf_i+0x1d2>
 80084bc:	0670      	lsls	r0, r6, #25
 80084be:	d5fb      	bpl.n	80084b8 <_printf_i+0x1c8>
 80084c0:	8019      	strh	r1, [r3, #0]
 80084c2:	2300      	movs	r3, #0
 80084c4:	6123      	str	r3, [r4, #16]
 80084c6:	4615      	mov	r5, r2
 80084c8:	e7ba      	b.n	8008440 <_printf_i+0x150>
 80084ca:	682b      	ldr	r3, [r5, #0]
 80084cc:	1d1a      	adds	r2, r3, #4
 80084ce:	602a      	str	r2, [r5, #0]
 80084d0:	681d      	ldr	r5, [r3, #0]
 80084d2:	6862      	ldr	r2, [r4, #4]
 80084d4:	2100      	movs	r1, #0
 80084d6:	4628      	mov	r0, r5
 80084d8:	f7f7 fe82 	bl	80001e0 <memchr>
 80084dc:	b108      	cbz	r0, 80084e2 <_printf_i+0x1f2>
 80084de:	1b40      	subs	r0, r0, r5
 80084e0:	6060      	str	r0, [r4, #4]
 80084e2:	6863      	ldr	r3, [r4, #4]
 80084e4:	6123      	str	r3, [r4, #16]
 80084e6:	2300      	movs	r3, #0
 80084e8:	f884 3043 	strb.w	r3, [r4, #67]	; 0x43
 80084ec:	e7a8      	b.n	8008440 <_printf_i+0x150>
 80084ee:	6923      	ldr	r3, [r4, #16]
 80084f0:	462a      	mov	r2, r5
 80084f2:	4649      	mov	r1, r9
 80084f4:	4640      	mov	r0, r8
 80084f6:	47d0      	blx	sl
 80084f8:	3001      	adds	r0, #1
 80084fa:	d0ab      	beq.n	8008454 <_printf_i+0x164>
 80084fc:	6823      	ldr	r3, [r4, #0]
 80084fe:	079b      	lsls	r3, r3, #30
 8008500:	d413      	bmi.n	800852a <_printf_i+0x23a>
 8008502:	68e0      	ldr	r0, [r4, #12]
 8008504:	9b03      	ldr	r3, [sp, #12]
 8008506:	4298      	cmp	r0, r3
 8008508:	bfb8      	it	lt
 800850a:	4618      	movlt	r0, r3
 800850c:	e7a4      	b.n	8008458 <_printf_i+0x168>
 800850e:	2301      	movs	r3, #1
 8008510:	4632      	mov	r2, r6
 8008512:	4649      	mov	r1, r9
 8008514:	4640      	mov	r0, r8
 8008516:	47d0      	blx	sl
 8008518:	3001      	adds	r0, #1
 800851a:	d09b      	beq.n	8008454 <_printf_i+0x164>
 800851c:	3501      	adds	r5, #1
 800851e:	68e3      	ldr	r3, [r4, #12]
 8008520:	9903      	ldr	r1, [sp, #12]
 8008522:	1a5b      	subs	r3, r3, r1
 8008524:	42ab      	cmp	r3, r5
 8008526:	dcf2      	bgt.n	800850e <_printf_i+0x21e>
 8008528:	e7eb      	b.n	8008502 <_printf_i+0x212>
 800852a:	2500      	movs	r5, #0
 800852c:	f104 0619 	add.w	r6, r4, #25
 8008530:	e7f5      	b.n	800851e <_printf_i+0x22e>
 8008532:	bf00      	nop
 8008534:	08008c99 	.word	0x08008c99
 8008538:	08008caa 	.word	0x08008caa

0800853c <memmove>:
 800853c:	4288      	cmp	r0, r1
 800853e:	b510      	push	{r4, lr}
 8008540:	eb01 0402 	add.w	r4, r1, r2
 8008544:	d902      	bls.n	800854c <memmove+0x10>
 8008546:	4284      	cmp	r4, r0
 8008548:	4623      	mov	r3, r4
 800854a:	d807      	bhi.n	800855c <memmove+0x20>
 800854c:	1e43      	subs	r3, r0, #1
 800854e:	42a1      	cmp	r1, r4
 8008550:	d008      	beq.n	8008564 <memmove+0x28>
 8008552:	f811 2b01 	ldrb.w	r2, [r1], #1
 8008556:	f803 2f01 	strb.w	r2, [r3, #1]!
 800855a:	e7f8      	b.n	800854e <memmove+0x12>
 800855c:	4402      	add	r2, r0
 800855e:	4601      	mov	r1, r0
 8008560:	428a      	cmp	r2, r1
 8008562:	d100      	bne.n	8008566 <memmove+0x2a>
 8008564:	bd10      	pop	{r4, pc}
 8008566:	f813 4d01 	ldrb.w	r4, [r3, #-1]!
 800856a:	f802 4d01 	strb.w	r4, [r2, #-1]!
 800856e:	e7f7      	b.n	8008560 <memmove+0x24>

08008570 <_free_r>:
 8008570:	b537      	push	{r0, r1, r2, r4, r5, lr}
 8008572:	2900      	cmp	r1, #0
 8008574:	d044      	beq.n	8008600 <_free_r+0x90>
 8008576:	f851 3c04 	ldr.w	r3, [r1, #-4]
 800857a:	9001      	str	r0, [sp, #4]
 800857c:	2b00      	cmp	r3, #0
 800857e:	f1a1 0404 	sub.w	r4, r1, #4
 8008582:	bfb8      	it	lt
 8008584:	18e4      	addlt	r4, r4, r3
 8008586:	f000 f913 	bl	80087b0 <__malloc_lock>
 800858a:	4a1e      	ldr	r2, [pc, #120]	; (8008604 <_free_r+0x94>)
 800858c:	9801      	ldr	r0, [sp, #4]
 800858e:	6813      	ldr	r3, [r2, #0]
 8008590:	b933      	cbnz	r3, 80085a0 <_free_r+0x30>
 8008592:	6063      	str	r3, [r4, #4]
 8008594:	6014      	str	r4, [r2, #0]
 8008596:	b003      	add	sp, #12
 8008598:	e8bd 4030 	ldmia.w	sp!, {r4, r5, lr}
 800859c:	f000 b90e 	b.w	80087bc <__malloc_unlock>
 80085a0:	42a3      	cmp	r3, r4
 80085a2:	d908      	bls.n	80085b6 <_free_r+0x46>
 80085a4:	6825      	ldr	r5, [r4, #0]
 80085a6:	1961      	adds	r1, r4, r5
 80085a8:	428b      	cmp	r3, r1
 80085aa:	bf01      	itttt	eq
 80085ac:	6819      	ldreq	r1, [r3, #0]
 80085ae:	685b      	ldreq	r3, [r3, #4]
 80085b0:	1949      	addeq	r1, r1, r5
 80085b2:	6021      	streq	r1, [r4, #0]
 80085b4:	e7ed      	b.n	8008592 <_free_r+0x22>
 80085b6:	461a      	mov	r2, r3
 80085b8:	685b      	ldr	r3, [r3, #4]
 80085ba:	b10b      	cbz	r3, 80085c0 <_free_r+0x50>
 80085bc:	42a3      	cmp	r3, r4
 80085be:	d9fa      	bls.n	80085b6 <_free_r+0x46>
 80085c0:	6811      	ldr	r1, [r2, #0]
 80085c2:	1855      	adds	r5, r2, r1
 80085c4:	42a5      	cmp	r5, r4
 80085c6:	d10b      	bne.n	80085e0 <_free_r+0x70>
 80085c8:	6824      	ldr	r4, [r4, #0]
 80085ca:	4421      	add	r1, r4
 80085cc:	1854      	adds	r4, r2, r1
 80085ce:	42a3      	cmp	r3, r4
 80085d0:	6011      	str	r1, [r2, #0]
 80085d2:	d1e0      	bne.n	8008596 <_free_r+0x26>
 80085d4:	681c      	ldr	r4, [r3, #0]
 80085d6:	685b      	ldr	r3, [r3, #4]
 80085d8:	6053      	str	r3, [r2, #4]
 80085da:	4421      	add	r1, r4
 80085dc:	6011      	str	r1, [r2, #0]
 80085de:	e7da      	b.n	8008596 <_free_r+0x26>
 80085e0:	d902      	bls.n	80085e8 <_free_r+0x78>
 80085e2:	230c      	movs	r3, #12
 80085e4:	6003      	str	r3, [r0, #0]
 80085e6:	e7d6      	b.n	8008596 <_free_r+0x26>
 80085e8:	6825      	ldr	r5, [r4, #0]
 80085ea:	1961      	adds	r1, r4, r5
 80085ec:	428b      	cmp	r3, r1
 80085ee:	bf04      	itt	eq
 80085f0:	6819      	ldreq	r1, [r3, #0]
 80085f2:	685b      	ldreq	r3, [r3, #4]
 80085f4:	6063      	str	r3, [r4, #4]
 80085f6:	bf04      	itt	eq
 80085f8:	1949      	addeq	r1, r1, r5
 80085fa:	6021      	streq	r1, [r4, #0]
 80085fc:	6054      	str	r4, [r2, #4]
 80085fe:	e7ca      	b.n	8008596 <_free_r+0x26>
 8008600:	b003      	add	sp, #12
 8008602:	bd30      	pop	{r4, r5, pc}
 8008604:	200134f4 	.word	0x200134f4

08008608 <sbrk_aligned>:
 8008608:	b570      	push	{r4, r5, r6, lr}
 800860a:	4e0e      	ldr	r6, [pc, #56]	; (8008644 <sbrk_aligned+0x3c>)
 800860c:	460c      	mov	r4, r1
 800860e:	6831      	ldr	r1, [r6, #0]
 8008610:	4605      	mov	r5, r0
 8008612:	b911      	cbnz	r1, 800861a <sbrk_aligned+0x12>
 8008614:	f000 f8bc 	bl	8008790 <_sbrk_r>
 8008618:	6030      	str	r0, [r6, #0]
 800861a:	4621      	mov	r1, r4
 800861c:	4628      	mov	r0, r5
 800861e:	f000 f8b7 	bl	8008790 <_sbrk_r>
 8008622:	1c43      	adds	r3, r0, #1
 8008624:	d00a      	beq.n	800863c <sbrk_aligned+0x34>
 8008626:	1cc4      	adds	r4, r0, #3
 8008628:	f024 0403 	bic.w	r4, r4, #3
 800862c:	42a0      	cmp	r0, r4
 800862e:	d007      	beq.n	8008640 <sbrk_aligned+0x38>
 8008630:	1a21      	subs	r1, r4, r0
 8008632:	4628      	mov	r0, r5
 8008634:	f000 f8ac 	bl	8008790 <_sbrk_r>
 8008638:	3001      	adds	r0, #1
 800863a:	d101      	bne.n	8008640 <sbrk_aligned+0x38>
 800863c:	f04f 34ff 	mov.w	r4, #4294967295	; 0xffffffff
 8008640:	4620      	mov	r0, r4
 8008642:	bd70      	pop	{r4, r5, r6, pc}
 8008644:	200134f8 	.word	0x200134f8

08008648 <_malloc_r>:
 8008648:	e92d 41f0 	stmdb	sp!, {r4, r5, r6, r7, r8, lr}
 800864c:	1ccd      	adds	r5, r1, #3
 800864e:	f025 0503 	bic.w	r5, r5, #3
 8008652:	3508      	adds	r5, #8
 8008654:	2d0c      	cmp	r5, #12
 8008656:	bf38      	it	cc
 8008658:	250c      	movcc	r5, #12
 800865a:	2d00      	cmp	r5, #0
 800865c:	4607      	mov	r7, r0
 800865e:	db01      	blt.n	8008664 <_malloc_r+0x1c>
 8008660:	42a9      	cmp	r1, r5
 8008662:	d905      	bls.n	8008670 <_malloc_r+0x28>
 8008664:	230c      	movs	r3, #12
 8008666:	603b      	str	r3, [r7, #0]
 8008668:	2600      	movs	r6, #0
 800866a:	4630      	mov	r0, r6
 800866c:	e8bd 81f0 	ldmia.w	sp!, {r4, r5, r6, r7, r8, pc}
 8008670:	4e2e      	ldr	r6, [pc, #184]	; (800872c <_malloc_r+0xe4>)
 8008672:	f000 f89d 	bl	80087b0 <__malloc_lock>
 8008676:	6833      	ldr	r3, [r6, #0]
 8008678:	461c      	mov	r4, r3
 800867a:	bb34      	cbnz	r4, 80086ca <_malloc_r+0x82>
 800867c:	4629      	mov	r1, r5
 800867e:	4638      	mov	r0, r7
 8008680:	f7ff ffc2 	bl	8008608 <sbrk_aligned>
 8008684:	1c43      	adds	r3, r0, #1
 8008686:	4604      	mov	r4, r0
 8008688:	d14d      	bne.n	8008726 <_malloc_r+0xde>
 800868a:	6834      	ldr	r4, [r6, #0]
 800868c:	4626      	mov	r6, r4
 800868e:	2e00      	cmp	r6, #0
 8008690:	d140      	bne.n	8008714 <_malloc_r+0xcc>
 8008692:	6823      	ldr	r3, [r4, #0]
 8008694:	4631      	mov	r1, r6
 8008696:	4638      	mov	r0, r7
 8008698:	eb04 0803 	add.w	r8, r4, r3
 800869c:	f000 f878 	bl	8008790 <_sbrk_r>
 80086a0:	4580      	cmp	r8, r0
 80086a2:	d13a      	bne.n	800871a <_malloc_r+0xd2>
 80086a4:	6821      	ldr	r1, [r4, #0]
 80086a6:	3503      	adds	r5, #3
 80086a8:	1a6d      	subs	r5, r5, r1
 80086aa:	f025 0503 	bic.w	r5, r5, #3
 80086ae:	3508      	adds	r5, #8
 80086b0:	2d0c      	cmp	r5, #12
 80086b2:	bf38      	it	cc
 80086b4:	250c      	movcc	r5, #12
 80086b6:	4629      	mov	r1, r5
 80086b8:	4638      	mov	r0, r7
 80086ba:	f7ff ffa5 	bl	8008608 <sbrk_aligned>
 80086be:	3001      	adds	r0, #1
 80086c0:	d02b      	beq.n	800871a <_malloc_r+0xd2>
 80086c2:	6823      	ldr	r3, [r4, #0]
 80086c4:	442b      	add	r3, r5
 80086c6:	6023      	str	r3, [r4, #0]
 80086c8:	e00e      	b.n	80086e8 <_malloc_r+0xa0>
 80086ca:	6822      	ldr	r2, [r4, #0]
 80086cc:	1b52      	subs	r2, r2, r5
 80086ce:	d41e      	bmi.n	800870e <_malloc_r+0xc6>
 80086d0:	2a0b      	cmp	r2, #11
 80086d2:	d916      	bls.n	8008702 <_malloc_r+0xba>
 80086d4:	1961      	adds	r1, r4, r5
 80086d6:	42a3      	cmp	r3, r4
 80086d8:	6025      	str	r5, [r4, #0]
 80086da:	bf18      	it	ne
 80086dc:	6059      	strne	r1, [r3, #4]
 80086de:	6863      	ldr	r3, [r4, #4]
 80086e0:	bf08      	it	eq
 80086e2:	6031      	streq	r1, [r6, #0]
 80086e4:	5162      	str	r2, [r4, r5]
 80086e6:	604b      	str	r3, [r1, #4]
 80086e8:	4638      	mov	r0, r7
 80086ea:	f104 060b 	add.w	r6, r4, #11
 80086ee:	f000 f865 	bl	80087bc <__malloc_unlock>
 80086f2:	f026 0607 	bic.w	r6, r6, #7
 80086f6:	1d23      	adds	r3, r4, #4
 80086f8:	1af2      	subs	r2, r6, r3
 80086fa:	d0b6      	beq.n	800866a <_malloc_r+0x22>
 80086fc:	1b9b      	subs	r3, r3, r6
 80086fe:	50a3      	str	r3, [r4, r2]
 8008700:	e7b3      	b.n	800866a <_malloc_r+0x22>
 8008702:	6862      	ldr	r2, [r4, #4]
 8008704:	42a3      	cmp	r3, r4
 8008706:	bf0c      	ite	eq
 8008708:	6032      	streq	r2, [r6, #0]
 800870a:	605a      	strne	r2, [r3, #4]
 800870c:	e7ec      	b.n	80086e8 <_malloc_r+0xa0>
 800870e:	4623      	mov	r3, r4
 8008710:	6864      	ldr	r4, [r4, #4]
 8008712:	e7b2      	b.n	800867a <_malloc_r+0x32>
 8008714:	4634      	mov	r4, r6
 8008716:	6876      	ldr	r6, [r6, #4]
 8008718:	e7b9      	b.n	800868e <_malloc_r+0x46>
 800871a:	230c      	movs	r3, #12
 800871c:	603b      	str	r3, [r7, #0]
 800871e:	4638      	mov	r0, r7
 8008720:	f000 f84c 	bl	80087bc <__malloc_unlock>
 8008724:	e7a1      	b.n	800866a <_malloc_r+0x22>
 8008726:	6025      	str	r5, [r4, #0]
 8008728:	e7de      	b.n	80086e8 <_malloc_r+0xa0>
 800872a:	bf00      	nop
 800872c:	200134f4 	.word	0x200134f4

08008730 <_realloc_r>:
 8008730:	e92d 41f0 	stmdb	sp!, {r4, r5, r6, r7, r8, lr}
 8008734:	4680      	mov	r8, r0
 8008736:	4614      	mov	r4, r2
 8008738:	460e      	mov	r6, r1
 800873a:	b921      	cbnz	r1, 8008746 <_realloc_r+0x16>
 800873c:	e8bd 41f0 	ldmia.w	sp!, {r4, r5, r6, r7, r8, lr}
 8008740:	4611      	mov	r1, r2
 8008742:	f7ff bf81 	b.w	8008648 <_malloc_r>
 8008746:	b92a      	cbnz	r2, 8008754 <_realloc_r+0x24>
 8008748:	f7ff ff12 	bl	8008570 <_free_r>
 800874c:	4625      	mov	r5, r4
 800874e:	4628      	mov	r0, r5
 8008750:	e8bd 81f0 	ldmia.w	sp!, {r4, r5, r6, r7, r8, pc}
 8008754:	f000 f838 	bl	80087c8 <_malloc_usable_size_r>
 8008758:	4284      	cmp	r4, r0
 800875a:	4607      	mov	r7, r0
 800875c:	d802      	bhi.n	8008764 <_realloc_r+0x34>
 800875e:	ebb4 0f50 	cmp.w	r4, r0, lsr #1
 8008762:	d812      	bhi.n	800878a <_realloc_r+0x5a>
 8008764:	4621      	mov	r1, r4
 8008766:	4640      	mov	r0, r8
 8008768:	f7ff ff6e 	bl	8008648 <_malloc_r>
 800876c:	4605      	mov	r5, r0
 800876e:	2800      	cmp	r0, #0
 8008770:	d0ed      	beq.n	800874e <_realloc_r+0x1e>
 8008772:	42bc      	cmp	r4, r7
 8008774:	4622      	mov	r2, r4
 8008776:	4631      	mov	r1, r6
 8008778:	bf28      	it	cs
 800877a:	463a      	movcs	r2, r7
 800877c:	f7ff fbb8 	bl	8007ef0 <memcpy>
 8008780:	4631      	mov	r1, r6
 8008782:	4640      	mov	r0, r8
 8008784:	f7ff fef4 	bl	8008570 <_free_r>
 8008788:	e7e1      	b.n	800874e <_realloc_r+0x1e>
 800878a:	4635      	mov	r5, r6
 800878c:	e7df      	b.n	800874e <_realloc_r+0x1e>
	...

08008790 <_sbrk_r>:
 8008790:	b538      	push	{r3, r4, r5, lr}
 8008792:	4d06      	ldr	r5, [pc, #24]	; (80087ac <_sbrk_r+0x1c>)
 8008794:	2300      	movs	r3, #0
 8008796:	4604      	mov	r4, r0
 8008798:	4608      	mov	r0, r1
 800879a:	602b      	str	r3, [r5, #0]
 800879c:	f7fa f8d2 	bl	8002944 <_sbrk>
 80087a0:	1c43      	adds	r3, r0, #1
 80087a2:	d102      	bne.n	80087aa <_sbrk_r+0x1a>
 80087a4:	682b      	ldr	r3, [r5, #0]
 80087a6:	b103      	cbz	r3, 80087aa <_sbrk_r+0x1a>
 80087a8:	6023      	str	r3, [r4, #0]
 80087aa:	bd38      	pop	{r3, r4, r5, pc}
 80087ac:	200134fc 	.word	0x200134fc

080087b0 <__malloc_lock>:
 80087b0:	4801      	ldr	r0, [pc, #4]	; (80087b8 <__malloc_lock+0x8>)
 80087b2:	f000 b811 	b.w	80087d8 <__retarget_lock_acquire_recursive>
 80087b6:	bf00      	nop
 80087b8:	20013500 	.word	0x20013500

080087bc <__malloc_unlock>:
 80087bc:	4801      	ldr	r0, [pc, #4]	; (80087c4 <__malloc_unlock+0x8>)
 80087be:	f000 b80c 	b.w	80087da <__retarget_lock_release_recursive>
 80087c2:	bf00      	nop
 80087c4:	20013500 	.word	0x20013500

080087c8 <_malloc_usable_size_r>:
 80087c8:	f851 3c04 	ldr.w	r3, [r1, #-4]
 80087cc:	1f18      	subs	r0, r3, #4
 80087ce:	2b00      	cmp	r3, #0
 80087d0:	bfbc      	itt	lt
 80087d2:	580b      	ldrlt	r3, [r1, r0]
 80087d4:	18c0      	addlt	r0, r0, r3
 80087d6:	4770      	bx	lr

080087d8 <__retarget_lock_acquire_recursive>:
 80087d8:	4770      	bx	lr

080087da <__retarget_lock_release_recursive>:
 80087da:	4770      	bx	lr

080087dc <_init>:
 80087dc:	b5f8      	push	{r3, r4, r5, r6, r7, lr}
 80087de:	bf00      	nop
 80087e0:	bcf8      	pop	{r3, r4, r5, r6, r7}
 80087e2:	bc08      	pop	{r3}
 80087e4:	469e      	mov	lr, r3
 80087e6:	4770      	bx	lr

080087e8 <_fini>:
 80087e8:	b5f8      	push	{r3, r4, r5, r6, r7, lr}
 80087ea:	bf00      	nop
 80087ec:	bcf8      	pop	{r3, r4, r5, r6, r7}
 80087ee:	bc08      	pop	{r3}
 80087f0:	469e      	mov	lr, r3
 80087f2:	4770      	bx	lr
